 noiseless_dylib

 Timestamp is 5bd763de (Mon Oct 29 20:47:42 2018)

 Preferred load address is 0000000180000000

 Start         Length     Name                   Class
 0001:00000000 00000060H .text$di                CODE
 0001:00000060 00010720H .text$mn                CODE
 0001:00010780 000000e0H .text$mn$00             CODE
 0001:00010860 000009d0H .text$x                 CODE
 0001:00011230 0000002cH .text$yd                CODE
 0002:00000000 00000440H .idata$5                DATA
 0002:00000440 00000020H .00cfg                  DATA
 0002:00000460 00000008H .CRT$XCA                DATA
 0002:00000468 00000018H .CRT$XCU                DATA
 0002:00000480 00000008H .CRT$XCZ                DATA
 0002:00000488 00000008H .CRT$XIA                DATA
 0002:00000490 00000008H .CRT$XIZ                DATA
 0002:00000498 00000008H .CRT$XPA                DATA
 0002:000004a0 00000008H .CRT$XPZ                DATA
 0002:000004a8 00000008H .CRT$XTA                DATA
 0002:000004b0 00000010H .CRT$XTZ                DATA
 0002:000004b8 00000000H .gfids$y                DATA
 0002:000004c0 00001a00H .rdata                  DATA
 0002:00001ec0 000001f4H .rdata$r                DATA
 0002:000020b4 0000033cH .rdata$zzzdbg           DATA
 0002:000023f0 00000008H .rtc$IAA                DATA
 0002:000023f8 00000008H .rtc$IZZ                DATA
 0002:00002400 00000008H .rtc$TAA                DATA
 0002:00002408 00000008H .rtc$TZZ                DATA
 0002:00002410 00002b18H .xdata                  DATA
 0002:00004f28 00000218H .xdata$x                DATA
 0002:00005140 00000260H .edata                  DATA
 0002:000053a0 000000f0H .idata$2                DATA
 0002:00005490 00000018H .idata$3                DATA
 0002:000054a8 00000440H .idata$4                DATA
 0002:000058e8 00000f64H .idata$6                DATA
 0003:00000000 00000058H .data                   DATA
 0003:00000058 00000168H .data$r                 DATA
 0003:000001c0 00000600H .bss                    DATA
 0004:00000000 0000135cH .pdata                  DATA
 0005:00000000 000006e0H _RDATA                  DATA
 0006:00000000 00000060H .rsrc$01                DATA
 0006:00000060 00000180H .rsrc$02                DATA

  Address         Publics by Value              Rva+Base               Lib:Object

 0000:00000000       ___safe_se_handler_count   0000000000000000     <absolute>
 0000:00000000       __guard_longjmp_count      0000000000000000     <absolute>
 0000:00000000       __guard_longjmp_table      0000000000000000     <absolute>
 0000:00000000       __guard_iat_count          0000000000000000     <absolute>
 0000:00000000       __guard_iat_table          0000000000000000     <absolute>
 0000:00000000       __dynamic_value_reloc_table 0000000000000000     <absolute>
 0000:00000000       __hybrid_code_map          0000000000000000     <absolute>
 0000:00000000       ___safe_se_handler_table   0000000000000000     <absolute>
 0000:00000000       __enclave_config           0000000000000000     <absolute>
 0000:00000000       __hybrid_code_map_count    0000000000000000     <absolute>
 0000:00000000       __guard_fids_count         0000000000000000     <absolute>
 0000:00000000       __guard_fids_table         0000000000000000     <absolute>
 0000:00000000       __hybrid_auxiliary_iat     0000000000000000     <absolute>
 0000:00000100       __guard_flags              0000000000000100     <absolute>
 0000:00000000       __ImageBase                0000000180000000     <linker-defined>
 0001:00000060       nl_create_allocator        0000000180001060 f   allocator_c_api.obj
 0001:00000090       nl_destroy_allocator       0000000180001090 f   allocator_c_api.obj
 0001:000000b0       ??1?$Vector@D@bento@@QEAA@XZ 00000001800010b0 f i asset_database_c_api.obj
 0001:000000f0       ?clear@?$Vector@D@bento@@QEAAXXZ 00000001800010f0 f i asset_database_c_api.obj
 0001:00000100       ?free@?$Vector@D@bento@@QEAAXXZ 0000000180001100 f i asset_database_c_api.obj
 0001:00000130       nl_adb_build               0000000180001130 f   asset_database_c_api.obj
 0001:000001e0       nl_create_adb              00000001800011e0 f   asset_database_c_api.obj
 0001:00000210       nl_destroy_adb             0000000180001210 f   asset_database_c_api.obj
 0001:00000220       nl_create_integrator       0000000180001220 f   integrator_c_api.obj
 0001:00000250       nl_destroy_integrator      0000000180001250 f   integrator_c_api.obj
 0001:00000260       nl_integrator_clear_scene  0000000180001260 f   integrator_c_api.obj
 0001:00000270       nl_integrator_initialize_resources 0000000180001270 f   integrator_c_api.obj
 0001:00000280       nl_integrator_release_resources 0000000180001280 f   integrator_c_api.obj
 0001:00000290       nl_integrator_render       0000000180001290 f   integrator_c_api.obj
 0001:00000310       nl_integrator_set_resolution 0000000180001310 f   integrator_c_api.obj
 0001:00000320       nl_integrator_setup_scene  0000000180001320 f   integrator_c_api.obj
 0001:00000330       ?clear@?$Vector@UIVector3@bento@@@bento@@QEAAXXZ 0000000180001330 f i scene_c_api.obj
 0001:00000340       ?clear@?$Vector@UVector3@bento@@@bento@@QEAAXXZ 0000000180001340 f i scene_c_api.obj
 0001:00000350       ?reserve@?$Vector@UIVector3@bento@@@bento@@QEAAXI@Z 0000000180001350 f i scene_c_api.obj
 0001:000003d0       ?reserve@?$Vector@UVector3@bento@@@bento@@QEAAXI@Z 00000001800013d0 f i scene_c_api.obj
 0001:00000450       ?resize@?$Vector@UIVector3@bento@@@bento@@QEAAXI@Z 0000000180001450 f i scene_c_api.obj
 0001:000004f0       ?resize@?$Vector@UVector3@bento@@@bento@@QEAAXI@Z 00000001800014f0 f i scene_c_api.obj
 0001:00000590       nl_create_scene            0000000180001590 f   scene_c_api.obj
 0001:000005c0       nl_destroy_scene           00000001800015c0 f   scene_c_api.obj
 0001:000005d0       nl_scene_set_mesh_data     00000001800015d0 f   scene_c_api.obj
 0001:00000720       nl_scene_set_num_meshes    0000000180001720 f   scene_c_api.obj
 0001:00000730       ??0?$Vector@D@bento@@QEAA@AEAVIAllocator@1@@Z 0000000180001730 f i noiseless_sdk:compiler.obj
 0001:00000750       ??0?$Vector@VDynamicString@bento@@@bento@@QEAA@AEAVIAllocator@1@@Z 0000000180001750 f i noiseless_sdk:compiler.obj
 0001:00000770       ??1?$Vector@VDynamicString@bento@@@bento@@QEAA@XZ 0000000180001770 f i noiseless_sdk:compiler.obj
 0001:00000800       ??1DynamicString@bento@@QEAA@XZ 0000000180001800 f i noiseless_sdk:compiler.obj
 0001:00000840       ??1TKernelSource@noiseless@@QEAA@XZ 0000000180001840 f i noiseless_sdk:compiler.obj
 0001:00000880       ?clear@?$Vector@VDynamicString@bento@@@bento@@QEAAXXZ 0000000180001880 f i noiseless_sdk:compiler.obj
 0001:00000900       ?compile@asset_compiler@noiseless@@YA_NAEBUTCompilerOptions@2@AEAVTAssetDatabase@bento@@@Z 0000000180001900 f   noiseless_sdk:compiler.obj
 0001:00000b00       ?free@?$Vector@VDynamicString@bento@@@bento@@QEAAXXZ 0000000180001b00 f i noiseless_sdk:compiler.obj
 0001:00000b90       ?write@asset_compiler@noiseless@@YAXAEBUTCompilerOptions@2@AEBVTAssetDatabase@bento@@@Z 0000000180001b90 f   noiseless_sdk:compiler.obj
 0001:00000c40       ??0TIntegrator@noiseless@@QEAA@AEAVIAllocator@bento@@@Z 0000000180001c40 f   noiseless_sdk:integrator.obj
 0001:00000c60       ??1TIntegrator@noiseless@@QEAA@XZ 0000000180001c60 f   noiseless_sdk:integrator.obj
 0001:00000c70       ?clear@?$Vector@UVector4@bento@@@bento@@QEAAXXZ 0000000180001c70 f i noiseless_sdk:integrator.obj
 0001:00000c80       ?clear_scene@TIntegrator@noiseless@@QEAAXXZ 0000000180001c80 f   noiseless_sdk:integrator.obj
 0001:00000c90       ?init_resources@TIntegrator@noiseless@@QEAAXAEBVTAssetDatabase@bento@@@Z 0000000180001c90 f   noiseless_sdk:integrator.obj
 0001:00000e00       ?read_color_buffer@TIntegrator@noiseless@@QEBAXAEAV?$Vector@UVector4@bento@@@bento@@@Z 0000000180001e00 f   noiseless_sdk:integrator.obj
 0001:00000eb0       ?release_resources@TIntegrator@noiseless@@QEAAXXZ 0000000180001eb0 f   noiseless_sdk:integrator.obj
 0001:00000ef0       ?render@TIntegrator@noiseless@@QEAAXAEBUTCamera@2@@Z 0000000180001ef0 f   noiseless_sdk:integrator.obj
 0001:00000ff0       ?reserve@?$Vector@UVector4@bento@@@bento@@QEAAXI@Z 0000000180001ff0 f i noiseless_sdk:integrator.obj
 0001:00001060       ?resize@?$Vector@UVector4@bento@@@bento@@QEAAXI@Z 0000000180002060 f i noiseless_sdk:integrator.obj
 0001:00001100       ?set_resolution@TIntegrator@noiseless@@QEAAXII@Z 0000000180002100 f   noiseless_sdk:integrator.obj
 0001:000011a0       ?setup_scene@TIntegrator@noiseless@@QEAAXAEBVTScene@2@@Z 00000001800021a0 f   noiseless_sdk:integrator.obj
 0001:000011b0       ??0?$Vector@UIVector3@bento@@@bento@@QEAA@AEAVIAllocator@1@@Z 00000001800021b0 f i noiseless_sdk:scene.obj
 0001:000011d0       ??0?$Vector@UTMesh@noiseless@@@bento@@QEAA@AEAVIAllocator@1@@Z 00000001800021d0 f i noiseless_sdk:scene.obj
 0001:000011f0       ??0?$Vector@UVector3@bento@@@bento@@QEAA@AEAVIAllocator@1@@Z 00000001800021f0 f i noiseless_sdk:scene.obj
 0001:00001210       ??0TScene@noiseless@@QEAA@AEAVIAllocator@bento@@@Z 0000000180002210 f   noiseless_sdk:scene.obj
 0001:00001230       ??1?$Vector@UIVector3@bento@@@bento@@QEAA@XZ 0000000180002230 f i noiseless_sdk:scene.obj
 0001:00001270       ??1?$Vector@UTMesh@noiseless@@@bento@@QEAA@XZ 0000000180002270 f i noiseless_sdk:scene.obj
 0001:000012b0       ??1?$Vector@UVector3@bento@@@bento@@QEAA@XZ 00000001800022b0 f i noiseless_sdk:scene.obj
 0001:000012f0       ?clear@?$Vector@UTMesh@noiseless@@@bento@@QEAAXXZ 00000001800022f0 f i noiseless_sdk:scene.obj
 0001:00001390       ?free@?$Vector@UIVector3@bento@@@bento@@QEAAXXZ 0000000180002390 f i noiseless_sdk:scene.obj
 0001:000013c0       ?free@?$Vector@UTMesh@noiseless@@@bento@@QEAAXXZ 00000001800023c0 f i noiseless_sdk:scene.obj
 0001:000013f0       ?free@?$Vector@UVector3@bento@@@bento@@QEAAXXZ 00000001800023f0 f i noiseless_sdk:scene.obj
 0001:00001420       ?reserve@?$Vector@UTMesh@noiseless@@@bento@@QEAAXI@Z 0000000180002420 f i noiseless_sdk:scene.obj
 0001:000014a0       ?resize@?$Vector@UTMesh@noiseless@@@bento@@QEAAXI@Z 00000001800024a0 f i noiseless_sdk:scene.obj
 0001:00001650       ?set_num_meshes@TScene@noiseless@@QEAAXI@Z 0000000180002650 f   noiseless_sdk:scene.obj
 0001:00001660       ??$pack_bytes@I@bento@@YAXAEAV?$Vector@D@0@AEBI@Z 0000000180002660 f i noiseless_sdk:kernel_source.obj
 0001:00001670       ??$pack_vector_bytes@D@bento@@YAXAEAV?$Vector@D@0@AEBV10@@Z 0000000180002670 f i noiseless_sdk:kernel_source.obj
 0001:000016c0       ??$unpack_bytes@I@bento@@YAXAEAPEBDAEAI@Z 00000001800026c0 f i noiseless_sdk:kernel_source.obj
 0001:000016d0       ??$unpack_vector_bytes@D@bento@@YAXAEAPEBDAEAV?$Vector@D@0@@Z 00000001800026d0 f i noiseless_sdk:kernel_source.obj
 0001:00001790       ?pack_type@bento@@YAXAEAV?$Vector@D@1@AEBUTKernelSource@noiseless@@@Z 0000000180002790 f   noiseless_sdk:kernel_source.obj
 0001:000017f0       ?reserve@?$Vector@D@bento@@QEAAXI@Z 00000001800027f0 f i noiseless_sdk:kernel_source.obj
 0001:00001860       ?resize@?$Vector@D@bento@@QEAAXI@Z 0000000180002860 f i noiseless_sdk:kernel_source.obj
 0001:00001900       ?unpack_type@bento@@YA_NAEAPEBDAEAUTKernelSource@noiseless@@@Z 0000000180002900 f   noiseless_sdk:kernel_source.obj
 0001:000019e0       ?read_shader_source@noiseless@@YA_NPEBDAEAUTKernelSource@1@@Z 00000001800029e0 f   noiseless_sdk:kernel_source_helpers.obj
 0001:000019f0       ??$_Getvals@_W@?$time_get@DV?$istreambuf_iterator@DU?$char_traits@D@std@@@std@@@std@@IEAAX_WAEBV_Locinfo@1@@Z 00000001800029f0 f i noiseless_sdk:asset_database_helpers.obj
 0001:00001ac0       ??$_Getvals@_W@?$time_get@_WV?$istreambuf_iterator@_WU?$char_traits@_W@std@@@std@@@std@@IEAAX_WAEBV_Locinfo@1@@Z 0000000180002ac0 f i noiseless_sdk:asset_database_helpers.obj
 0001:00001b90       ??1DiskSerializer@bento@@QEAA@XZ 0000000180002b90 f i noiseless_sdk:asset_database_helpers.obj
 0001:00001bd0       ?_Maklocwcs@std@@YAPEA_WPEB_W@Z 0000000180002bd0 f i noiseless_sdk:asset_database_helpers.obj
 0001:00001c40       ?read_database@noiseless@@YA_NPEBDAEAVTAssetDatabase@bento@@@Z 0000000180002c40 f   noiseless_sdk:asset_database_helpers.obj
 0001:00001db0       ?write_database@noiseless@@YA_NPEBDAEBVTAssetDatabase@bento@@@Z 0000000180002db0 f   noiseless_sdk:asset_database_helpers.obj
 0001:00001f00       ?write_database_debug@noiseless@@YA_NPEBDAEBVTAssetDatabase@bento@@@Z 0000000180002f00 f   noiseless_sdk:asset_database_helpers.obj
 0001:00002040       ??$_Allocate@U?$_Default_allocate_traits@$00@std@@@std@@YAPEAX_K0_K@Z 0000000180003040 f i noiseless_sdk:compute_api.obj
 0001:000020c0       ??1?$vector@PEAU_cl_platform_id@@V?$allocator@PEAU_cl_platform_id@@@std@@@std@@QEAA@XZ 00000001800030c0 f i noiseless_sdk:compute_api.obj
 0001:000020d0       ?_Fail@?$_Default_allocate_traits@$00@std@@SAXXZ 00000001800030d0 f i noiseless_sdk:compute_api.obj
 0001:000020e0       ?_Tidy@?$vector@PEAU_cl_platform_id@@V?$allocator@PEAU_cl_platform_id@@@std@@@std@@AEAAXXZ 00000001800030e0 f i noiseless_sdk:compute_api.obj
 0001:00002170       ?create_buffer@noiseless@@YA_K_K0W4Type@ComputeBufferType@1@@Z 0000000180003170 f   noiseless_sdk:compute_api.obj
 0001:00002220       ?create_compute_context@noiseless@@YA_KXZ 0000000180003220 f   noiseless_sdk:compute_api.obj
 0001:000024f0       ?create_kernel@noiseless@@YA_K_KPEBD@Z 00000001800034f0 f   noiseless_sdk:compute_api.obj
 0001:00002530       ?create_program_source@noiseless@@YA_K_KPEBD@Z 0000000180003530 f   noiseless_sdk:compute_api.obj
 0001:00002630       ?destroy_buffer@noiseless@@YAX_K@Z 0000000180003630 f   noiseless_sdk:compute_api.obj
 0001:00002660       ?destroy_compute_context@noiseless@@YAX_K@Z 0000000180003660 f   noiseless_sdk:compute_api.obj
 0001:00002690       ?destroy_kernel@noiseless@@YAX_K@Z 0000000180003690 f   noiseless_sdk:compute_api.obj
 0001:000026a0       ?destroy_program@noiseless@@YAX_K@Z 00000001800036a0 f   noiseless_sdk:compute_api.obj
 0001:000026b0       ?evaluate_platforms@noiseless@@YA_KAEAV?$vector@PEAU_cl_platform_id@@V?$allocator@PEAU_cl_platform_id@@@std@@@std@@@Z 00000001800036b0 f   noiseless_sdk:compute_api.obj
 0001:00002760       ?kernel_argument@noiseless@@YA_N_KH0@Z 0000000180003760 f   noiseless_sdk:compute_api.obj
 0001:000027a0       ?kernel_argument@noiseless@@YA_N_KHIPEAE@Z 00000001800037a0 f   noiseless_sdk:compute_api.obj
 0001:000027e0       ?launch_kernel_1D@noiseless@@YA_N_K00@Z 00000001800037e0 f   noiseless_sdk:compute_api.obj
 0001:00002850       ?launch_kernel_2D@noiseless@@YA_N_K000@Z 0000000180003850 f   noiseless_sdk:compute_api.obj
 0001:000028d0       ?read_buffer@noiseless@@YA_N_K0PEAE@Z 00000001800038d0 f   noiseless_sdk:compute_api.obj
 0001:00002930       ?wait_command_queue@noiseless@@YAX_K@Z 0000000180003930 f   noiseless_sdk:compute_api.obj
 0001:00002940       ?write_buffer@noiseless@@YA_N_K0PEAE@Z 0000000180003940 f   noiseless_sdk:compute_api.obj
 0001:000029a0       ??0?$Vector@UIVector4@bento@@@bento@@QEAA@AEAVIAllocator@1@I@Z 00000001800039a0 f i noiseless_sdk:compute_scene.obj
 0001:00002a40       ??0?$Vector@UVector4@bento@@@bento@@QEAA@AEAVIAllocator@1@I@Z 0000000180003a40 f i noiseless_sdk:compute_scene.obj
 0001:00002ae0       ??1?$Vector@UIVector4@bento@@@bento@@QEAA@XZ 0000000180003ae0 f i noiseless_sdk:compute_scene.obj
 0001:00002b20       ??1?$Vector@UVector4@bento@@@bento@@QEAA@XZ 0000000180003b20 f i noiseless_sdk:compute_scene.obj
 0001:00002b60       ?clear@?$Vector@UIVector4@bento@@@bento@@QEAAXXZ 0000000180003b60 f i noiseless_sdk:compute_scene.obj
 0001:00002b70       ?create_compute_scene@noiseless@@YAX_KAEBVTScene@1@AEAUTComputeScene@1@@Z 0000000180003b70 f   noiseless_sdk:compute_scene.obj
 0001:00002fa0       ?destroy_compute_scene@noiseless@@YAXAEAUTComputeScene@1@@Z 0000000180003fa0 f   noiseless_sdk:compute_scene.obj
 0001:00002fe0       ?free@?$Vector@UIVector4@bento@@@bento@@QEAAXXZ 0000000180003fe0 f i noiseless_sdk:compute_scene.obj
 0001:00003010       ?free@?$Vector@UVector4@bento@@@bento@@QEAAXXZ 0000000180004010 f i noiseless_sdk:compute_scene.obj
 0001:00003040       ?reserve@?$Vector@UIVector4@bento@@@bento@@QEAAXI@Z 0000000180004040 f i noiseless_sdk:compute_scene.obj
 0001:000030b0       ?resize@?$Vector@UIVector4@bento@@@bento@@QEAAXI@Z 00000001800040b0 f i noiseless_sdk:compute_scene.obj
 0001:00003150       ?build_ray_generation_data@noiseless@@YAXAEBUTCamera@1@IIAEAUTCameraRaySettings@1@@Z 0000000180004150 f   noiseless_sdk:camera_ray_generation.obj
 0001:000034d0       ??0SystemAllocator@bento@@QEAA@XZ 00000001800044d0 f   bento_sdk:system_allocator.obj
 0001:00003500       ??1SystemAllocator@bento@@UEAA@XZ 0000000180004500 f   bento_sdk:system_allocator.obj
 0001:00003510       ??_ESystemAllocator@bento@@UEAAPEAXI@Z 0000000180004510 f i bento_sdk:system_allocator.obj
 0001:00003510       ??_GSystemAllocator@bento@@UEAAPEAXI@Z 0000000180004510 f i bento_sdk:system_allocator.obj
 0001:00003550       ?allocate@SystemAllocator@bento@@UEAAPEAX_K0@Z 0000000180004550 f   bento_sdk:system_allocator.obj
 0001:00003560       ?deallocate@SystemAllocator@bento@@UEAAXPEAX@Z 0000000180004560 f   bento_sdk:system_allocator.obj
 0001:00003570       ?reallocate@SystemAllocator@bento@@UEAAPEAXPEAX_K11@Z 0000000180004570 f   bento_sdk:system_allocator.obj
 0001:000035f0       ?common_allocator@bento@@YAPEAVIAllocator@1@XZ 00000001800045f0 f   bento_sdk:common.obj
 0001:00003600       ??0DynamicString@bento@@QEAA@AEAVIAllocator@1@@Z 0000000180004600 f   bento_sdk:dynamic_string.obj
 0001:000036a0       ??0DynamicString@bento@@QEAA@AEAVIAllocator@1@I@Z 00000001800046a0 f   bento_sdk:dynamic_string.obj
 0001:000036f0       ??0DynamicString@bento@@QEAA@AEAVIAllocator@1@PEBD@Z 00000001800046f0 f   bento_sdk:dynamic_string.obj
 0001:00003770       ??0DynamicString@bento@@QEAA@AEBV01@@Z 0000000180004770 f   bento_sdk:dynamic_string.obj
 0001:000037f0       ??4DynamicString@bento@@QEAAAEAV01@AEBV01@@Z 00000001800047f0 f   bento_sdk:dynamic_string.obj
 0001:00003850       ??4DynamicString@bento@@QEAAAEAV01@PEBD@Z 0000000180004850 f   bento_sdk:dynamic_string.obj
 0001:000038b0       ??8DynamicString@bento@@QEBA_NPEBD@Z 00000001800048b0 f   bento_sdk:dynamic_string.obj
 0001:000038e0       ??9DynamicString@bento@@QEBA_NPEBD@Z 00000001800048e0 f   bento_sdk:dynamic_string.obj
 0001:00003910       ??YDynamicString@bento@@QEAAAEAV01@AEBV01@@Z 0000000180004910 f   bento_sdk:dynamic_string.obj
 0001:00003980       ??YDynamicString@bento@@QEAAAEAV01@PEBD@Z 0000000180004980 f   bento_sdk:dynamic_string.obj
 0001:000039e0       ?find_last_of@bento@@YAIPEBDD@Z 00000001800049e0 f   bento_sdk:dynamic_string.obj
 0001:00003a20       ?pack_type@bento@@YAXAEAV?$Vector@D@1@AEBVDynamicString@1@@Z 0000000180004a20 f   bento_sdk:dynamic_string.obj
 0001:00003a70       ?resize@DynamicString@bento@@QEAAXI@Z 0000000180004a70 f   bento_sdk:dynamic_string.obj
 0001:00003b20       ?size@DynamicString@bento@@QEBAIXZ 0000000180004b20 f   bento_sdk:dynamic_string.obj
 0001:00003b30       ?strlen32@bento@@YAIPEBD@Z 0000000180004b30 f   bento_sdk:dynamic_string.obj
 0001:00003b40       ?substr@string@bento@@YA?AVDynamicString@2@AEBV32@II@Z 0000000180004b40 f   bento_sdk:dynamic_string.obj
 0001:00003be0       ?to_lower_case@string@bento@@YAXAEAVDynamicString@2@@Z 0000000180004be0 f   bento_sdk:dynamic_string.obj
 0001:00003c30       ?unpack_type@bento@@YAXAEAPEBDAEAVDynamicString@1@@Z 0000000180004c30 f   bento_sdk:dynamic_string.obj
 0001:00003c80       ??$?6DU?$char_traits@D@std@@D@std@@YAAEAV?$basic_ostream@DU?$char_traits@D@std@@@0@AEAV10@AEBU?$_Fillobj@D@0@@Z 0000000180004c80 f i bento_sdk:asset_database.obj
 0001:00003ca0       ??$?6DU?$char_traits@D@std@@_J@std@@YAAEAV?$basic_ostream@DU?$char_traits@D@std@@@0@AEAV10@AEBU?$_Smanip@_J@0@@Z 0000000180004ca0 f i bento_sdk:asset_database.obj
 0001:00003ce0       ??$?HDU?$char_traits@D@std@@V?$allocator@D@1@@std@@YA?AV?$basic_string@DU?$char_traits@D@std@@V?$allocator@D@2@@0@$$QEAV10@0@Z 0000000180004ce0 f i bento_sdk:asset_database.obj
 0001:00003d70       ??$?HDU?$char_traits@D@std@@V?$allocator@D@1@@std@@YA?AV?$basic_string@DU?$char_traits@D@std@@V?$allocator@D@2@@0@$$QEAV10@QEBD@Z 0000000180004d70 f i bento_sdk:asset_database.obj
 0001:00003dd0       ??$?HDU?$char_traits@D@std@@V?$allocator@D@1@@std@@YA?AV?$basic_string@DU?$char_traits@D@std@@V?$allocator@D@2@@0@QEBD$$QEAV10@@Z 0000000180004dd0 f i bento_sdk:asset_database.obj
 0001:00003e30       ??$?HDU?$char_traits@D@std@@V?$allocator@D@1@@std@@YA?AV?$basic_string@DU?$char_traits@D@std@@V?$allocator@D@2@@0@QEBDAEBV10@@Z 0000000180004e30 f i bento_sdk:asset_database.obj
 0001:00004020       ??$_Copy_nodes@U_Copy_tag@?$_Tree@V?$_Tmap_traits@V?$basic_string@DU?$char_traits@D@std@@V?$allocator@D@2@@std@@V?$basic_json@Vmap@std@@Vvector@2@V?$basic_string@DU?$char_traits@D@std@@V?$allocator@D@2@@2@_N_J_KNVallocator@2@Uadl_serializer@nlohmann@@@nlohmann@@U?$less@V?$basic_string@DU?$char_traits@D@std@@V?$allocator@D@2@@std@@@2@V?$allocator@U?$pair@$$CBV?$basic_string@DU?$char_traits@D@std@@V?$allocator@D@2@@std@@V?$basic_json@Vmap@std@@Vvector@2@V?$basic_string@DU?$char_traits@D@std@@V?$allocator@D@2@@2@_N_J_KNVallocator@2@Uadl_serializer@nlohmann@@@nlohmann@@@std@@@2@$0A@@std@@@std@@@?$_Tree@V?$_Tmap_traits@V?$basic_string@DU?$char_traits@D@std@@V?$allocator@D@2@@std@@V?$basic_json@Vmap@std@@Vvector@2@V?$basic_string@DU?$char_traits@D@std@@V?$allocator@D@2@@2@_N_J_KNVallocator@2@Uadl_serializer@nlohmann@@@nlohmann@@U?$less@V?$basic_string@DU?$char_traits@D@std@@V?$allocator@D@2@@std@@@2@V?$allocator@U?$pair@$$CBV?$basic_string@DU?$char_traits@D@std@@V?$allocator@D@2@@std@@V?$basic_json@Vmap@std@@Vvector@2@V?$basic_string@DU?$char_traits@D@std@@V?$allocator@D@2@@2@_N_J_KNVallocator@2@Uadl_serializer@nlohmann@@@nlohmann@@@std@@@2@$0A@@std@@@std@@IEAAPEAU?$_Tree_node@U?$pair@$$CBV?$basic_string@DU?$char_traits@D@std@@V?$allocator@D@2@@std@@V?$basic_json@Vmap@std@@Vvector@2@V?$basic_string@DU?$char_traits@D@std@@V?$allocator@D@2@@2@_N_J_KNVallocator@2@Uadl_serializer@nlohmann@@@nlohmann@@@std@@PEAX@1@PEAU21@0U_Copy_tag@01@@Z 0000000180005020 f i bento_sdk:asset_database.obj
 0001:00004120       ??$_Enable_shared_from_this1@V?$output_string_adapter@DV?$basic_string@DU?$char_traits@D@std@@V?$allocator@D@2@@std@@@detail@nlohmann@@V123@@std@@YAXAEBV?$shared_ptr@V?$output_string_adapter@DV?$basic_string@DU?$char_traits@D@std@@V?$allocator@D@2@@std@@@detail@nlohmann@@@0@PEAV?$output_string_adapter@DV?$basic_string@DU?$char_traits@D@std@@V?$allocator@D@2@@std@@@detail@nlohmann@@U?$integral_constant@_N$0A@@0@@Z 0000000180005120 f i bento_sdk:asset_database.obj
 0001:00004130       ??$_Enable_shared_from_this@V?$output_string_adapter@DV?$basic_string@DU?$char_traits@D@std@@V?$allocator@D@2@@std@@@detail@nlohmann@@V123@@std@@YAXAEBV?$shared_ptr@V?$output_string_adapter@DV?$basic_string@DU?$char_traits@D@std@@V?$allocator@D@2@@std@@@detail@nlohmann@@@0@PEAV?$output_string_adapter@DV?$basic_string@DU?$char_traits@D@std@@V?$allocator@D@2@@std@@@detail@nlohmann@@@Z 0000000180005130 f i bento_sdk:asset_database.obj
 0001:00004140       ??$_Insert_at@AEAU?$pair@$$CBV?$basic_string@DU?$char_traits@D@std@@V?$allocator@D@2@@std@@V?$basic_json@Vmap@std@@Vvector@2@V?$basic_string@DU?$char_traits@D@std@@V?$allocator@D@2@@2@_N_J_KNVallocator@2@Uadl_serializer@nlohmann@@@nlohmann@@@std@@PEAU?$_Tree_node@U?$pair@$$CBV?$basic_string@DU?$char_traits@D@std@@V?$allocator@D@2@@std@@V?$basic_json@Vmap@std@@Vvector@2@V?$basic_string@DU?$char_traits@D@std@@V?$allocator@D@2@@2@_N_J_KNVallocator@2@Uadl_serializer@nlohmann@@@nlohmann@@@std@@PEAX@2@@?$_Tree@V?$_Tmap_traits@V?$basic_string@DU?$char_traits@D@std@@V?$allocator@D@2@@std@@V?$basic_json@Vmap@std@@Vvector@2@V?$basic_string@DU?$char_traits@D@std@@V?$allocator@D@2@@2@_N_J_KNVallocator@2@Uadl_serializer@nlohmann@@@nlohmann@@U?$less@V?$basic_string@DU?$char_traits@D@std@@V?$allocator@D@2@@std@@@2@V?$allocator@U?$pair@$$CBV?$basic_string@DU?$char_traits@D@std@@V?$allocator@D@2@@std@@V?$basic_json@Vmap@std@@Vvector@2@V?$basic_string@DU?$char_traits@D@std@@V?$allocator@D@2@@2@_N_J_KNVallocator@2@Uadl_serializer@nlohmann@@@nlohmann@@@std@@@2@$0A@@std@@@std@@IEAA?AV?$_Tree_iterator@V?$_Tree_val@U?$_Tree_simple_types@U?$pair@$$CBV?$basic_string@DU?$char_traits@D@std@@V?$allocator@D@2@@std@@V?$basic_json@Vmap@std@@Vvector@2@V?$basic_string@DU?$char_traits@D@std@@V?$allocator@D@2@@2@_N_J_KNVallocator@2@Uadl_serializer@nlohmann@@@nlohmann@@@std@@@std@@@std@@@1@_NPEAU?$_Tree_node@U?$pair@$$CBV?$basic_string@DU?$char_traits@D@std@@V?$allocator@D@2@@std@@V?$basic_json@Vmap@std@@Vvector@2@V?$basic_string@DU?$char_traits@D@std@@V?$allocator@D@2@@2@_N_J_KNVallocator@2@Uadl_serializer@nlohmann@@@nlohmann@@@std@@PEAX@1@AEAU?$pair@$$CBV?$basic_string@DU?$char_traits@D@std@@V?$allocator@D@2@@std@@V?$basic_json@Vmap@std@@Vvector@2@V?$basic_string@DU?$char_traits@D@std@@V?$allocator@D@2@@2@_N_J_KNVallocator@2@Uadl_serializer@nlohmann@@@nlohmann@@@1@1@Z 0000000180005140 f i bento_sdk:asset_database.obj
 0001:00004410       ??$_Insert_hint@AEAU?$pair@$$CBV?$basic_string@DU?$char_traits@D@std@@V?$allocator@D@2@@std@@V?$basic_json@Vmap@std@@Vvector@2@V?$basic_string@DU?$char_traits@D@std@@V?$allocator@D@2@@2@_N_J_KNVallocator@2@Uadl_serializer@nlohmann@@@nlohmann@@@std@@PEAU?$_Tree_node@U?$pair@$$CBV?$basic_string@DU?$char_traits@D@std@@V?$allocator@D@2@@std@@V?$basic_json@Vmap@std@@Vvector@2@V?$basic_string@DU?$char_traits@D@std@@V?$allocator@D@2@@2@_N_J_KNVallocator@2@Uadl_serializer@nlohmann@@@nlohmann@@@std@@PEAX@2@@?$_Tree@V?$_Tmap_traits@V?$basic_string@DU?$char_traits@D@std@@V?$allocator@D@2@@std@@V?$basic_json@Vmap@std@@Vvector@2@V?$basic_string@DU?$char_traits@D@std@@V?$allocator@D@2@@2@_N_J_KNVallocator@2@Uadl_serializer@nlohmann@@@nlohmann@@U?$less@V?$basic_string@DU?$char_traits@D@std@@V?$allocator@D@2@@std@@@2@V?$allocator@U?$pair@$$CBV?$basic_string@DU?$char_traits@D@std@@V?$allocator@D@2@@std@@V?$basic_json@Vmap@std@@Vvector@2@V?$basic_string@DU?$char_traits@D@std@@V?$allocator@D@2@@2@_N_J_KNVallocator@2@Uadl_serializer@nlohmann@@@nlohmann@@@std@@@2@$0A@@std@@@std@@IEAA?AV?$_Tree_iterator@V?$_Tree_val@U?$_Tree_simple_types@U?$pair@$$CBV?$basic_string@DU?$char_traits@D@std@@V?$allocator@D@2@@std@@V?$basic_json@Vmap@std@@Vvector@2@V?$basic_string@DU?$char_traits@D@std@@V?$allocator@D@2@@2@_N_J_KNVallocator@2@Uadl_serializer@nlohmann@@@nlohmann@@@std@@@std@@@std@@@1@V?$_Tree_const_iterator@V?$_Tree_val@U?$_Tree_simple_types@U?$pair@$$CBV?$basic_string@DU?$char_traits@D@std@@V?$allocator@D@2@@std@@V?$basic_json@Vmap@std@@Vvector@2@V?$basic_string@DU?$char_traits@D@std@@V?$allocator@D@2@@2@_N_J_KNVallocator@2@Uadl_serializer@nlohmann@@@nlohmann@@@std@@@std@@@std@@@1@AEAU?$pair@$$CBV?$basic_string@DU?$char_traits@D@std@@V?$allocator@D@2@@std@@V?$basic_json@Vmap@std@@Vvector@2@V?$basic_string@DU?$char_traits@D@std@@V?$allocator@D@2@@2@_N_J_KNVallocator@2@Uadl_serializer@nlohmann@@@nlohmann@@@1@PEAU?$_Tree_node@U?$pair@$$CBV?$basic_string@DU?$char_traits@D@std@@V?$allocator@D@2@@std@@V?$basic_json@Vmap@std@@Vvector@2@V?$basic_string@DU?$char_traits@D@std@@V?$allocator@D@2@@2@_N_J_KNVallocator@2@Uadl_serializer@nlohmann@@@nlohmann@@@std@@PEAX@1@@Z 0000000180005410 f i bento_sdk:asset_database.obj
 0001:000046c0       ??$_Insert_nohint@AEAU?$pair@$$CBV?$basic_string@DU?$char_traits@D@std@@V?$allocator@D@2@@std@@V?$basic_json@Vmap@std@@Vvector@2@V?$basic_string@DU?$char_traits@D@std@@V?$allocator@D@2@@2@_N_J_KNVallocator@2@Uadl_serializer@nlohmann@@@nlohmann@@@std@@PEAU?$_Tree_node@U?$pair@$$CBV?$basic_string@DU?$char_traits@D@std@@V?$allocator@D@2@@std@@V?$basic_json@Vmap@std@@Vvector@2@V?$basic_string@DU?$char_traits@D@std@@V?$allocator@D@2@@2@_N_J_KNVallocator@2@Uadl_serializer@nlohmann@@@nlohmann@@@std@@PEAX@2@@?$_Tree@V?$_Tmap_traits@V?$basic_string@DU?$char_traits@D@std@@V?$allocator@D@2@@std@@V?$basic_json@Vmap@std@@Vvector@2@V?$basic_string@DU?$char_traits@D@std@@V?$allocator@D@2@@2@_N_J_KNVallocator@2@Uadl_serializer@nlohmann@@@nlohmann@@U?$less@V?$basic_string@DU?$char_traits@D@std@@V?$allocator@D@2@@std@@@2@V?$allocator@U?$pair@$$CBV?$basic_string@DU?$char_traits@D@std@@V?$allocator@D@2@@std@@V?$basic_json@Vmap@std@@Vvector@2@V?$basic_string@DU?$char_traits@D@std@@V?$allocator@D@2@@2@_N_J_KNVallocator@2@Uadl_serializer@nlohmann@@@nlohmann@@@std@@@2@$0A@@std@@@std@@IEAA?AU?$pair@V?$_Tree_iterator@V?$_Tree_val@U?$_Tree_simple_types@U?$pair@$$CBV?$basic_string@DU?$char_traits@D@std@@V?$allocator@D@2@@std@@V?$basic_json@Vmap@std@@Vvector@2@V?$basic_string@DU?$char_traits@D@std@@V?$allocator@D@2@@2@_N_J_KNVallocator@2@Uadl_serializer@nlohmann@@@nlohmann@@@std@@@std@@@std@@@std@@_N@1@_NAEAU?$pair@$$CBV?$basic_string@DU?$char_traits@D@std@@V?$allocator@D@2@@std@@V?$basic_json@Vmap@std@@Vvector@2@V?$basic_string@DU?$char_traits@D@std@@V?$allocator@D@2@@2@_N_J_KNVallocator@2@Uadl_serializer@nlohmann@@@nlohmann@@@1@PEAU?$_Tree_node@U?$pair@$$CBV?$basic_string@DU?$char_traits@D@std@@V?$allocator@D@2@@std@@V?$basic_json@Vmap@std@@Vvector@2@V?$basic_string@DU?$char_traits@D@std@@V?$allocator@D@2@@2@_N_J_KNVallocator@2@Uadl_serializer@nlohmann@@@nlohmann@@@std@@PEAX@1@@Z 00000001800056c0 f i bento_sdk:asset_database.obj
 0001:000049d0       ??$_UIntegral_to_buff@DI@std@@YAPEADPEADI@Z 00000001800059d0 f i bento_sdk:asset_database.obj
 0001:00004a10       ??$_UIntegral_to_buff@D_K@std@@YAPEADPEAD_K@Z 0000000180005a10 f i bento_sdk:asset_database.obj
 0001:00004a50       ??$__vcrt_va_start_verify_argument_type@QEBD@@YAXXZ 0000000180005a50 f i bento_sdk:asset_database.obj
 0001:00004a60       ??$compute_boundaries@N@dtoa_impl@detail@nlohmann@@YA?AUboundaries@012@N@Z 0000000180005a60 f i bento_sdk:asset_database.obj
 0001:00004bb0       ??$construct@V?$basic_json@Vmap@std@@Vvector@2@V?$basic_string@DU?$char_traits@D@std@@V?$allocator@D@2@@2@_N_J_KNVallocator@2@Uadl_serializer@nlohmann@@@nlohmann@@@?$external_constructor@$02@detail@nlohmann@@SAXAEAV?$basic_json@Vmap@std@@Vvector@2@V?$basic_string@DU?$char_traits@D@std@@V?$allocator@D@2@@2@_N_J_KNVallocator@2@Uadl_serializer@nlohmann@@@2@$$QEAV?$basic_string@DU?$char_traits@D@std@@V?$allocator@D@2@@std@@@Z 0000000180005bb0 f i bento_sdk:asset_database.obj
 0001:00004c10       ??$create@V?$map@V?$basic_string@DU?$char_traits@D@std@@V?$allocator@D@2@@std@@V?$basic_json@Vmap@std@@Vvector@2@V?$basic_string@DU?$char_traits@D@std@@V?$allocator@D@2@@2@_N_J_KNVallocator@2@Uadl_serializer@nlohmann@@@nlohmann@@U?$less@V?$basic_string@DU?$char_traits@D@std@@V?$allocator@D@2@@std@@@2@V?$allocator@U?$pair@$$CBV?$basic_string@DU?$char_traits@D@std@@V?$allocator@D@2@@std@@V?$basic_json@Vmap@std@@Vvector@2@V?$basic_string@DU?$char_traits@D@std@@V?$allocator@D@2@@2@_N_J_KNVallocator@2@Uadl_serializer@nlohmann@@@nlohmann@@@std@@@2@@std@@$$V@?$basic_json@Vmap@std@@Vvector@2@V?$basic_string@DU?$char_traits@D@std@@V?$allocator@D@2@@2@_N_J_KNVallocator@2@Uadl_serializer@nlohmann@@@nlohmann@@CAPEAV?$map@V?$basic_string@DU?$char_traits@D@std@@V?$allocator@D@2@@std@@V?$basic_json@Vmap@std@@Vvector@2@V?$basic_string@DU?$char_traits@D@std@@V?$allocator@D@2@@2@_N_J_KNVallocator@2@Uadl_serializer@nlohmann@@@nlohmann@@U?$less@V?$basic_string@DU?$char_traits@D@std@@V?$allocator@D@2@@std@@@2@V?$allocator@U?$pair@$$CBV?$basic_string@DU?$char_traits@D@std@@V?$allocator@D@2@@std@@V?$basic_json@Vmap@std@@Vvector@2@V?$basic_string@DU?$char_traits@D@std@@V?$allocator@D@2@@2@_N_J_KNVallocator@2@Uadl_serializer@nlohmann@@@nlohmann@@@std@@@2@@std@@XZ 0000000180005c10 f i bento_sdk:asset_database.obj
 0001:00004c90       ??$emplace@V?$basic_string@DU?$char_traits@D@std@@V?$allocator@D@2@@std@@V?$basic_json@Vmap@std@@Vvector@2@V?$basic_string@DU?$char_traits@D@std@@V?$allocator@D@2@@2@_N_J_KNVallocator@2@Uadl_serializer@nlohmann@@@nlohmann@@@?$_Tree@V?$_Tmap_traits@V?$basic_string@DU?$char_traits@D@std@@V?$allocator@D@2@@std@@V?$basic_json@Vmap@std@@Vvector@2@V?$basic_string@DU?$char_traits@D@std@@V?$allocator@D@2@@2@_N_J_KNVallocator@2@Uadl_serializer@nlohmann@@@nlohmann@@U?$less@V?$basic_string@DU?$char_traits@D@std@@V?$allocator@D@2@@std@@@2@V?$allocator@U?$pair@$$CBV?$basic_string@DU?$char_traits@D@std@@V?$allocator@D@2@@std@@V?$basic_json@Vmap@std@@Vvector@2@V?$basic_string@DU?$char_traits@D@std@@V?$allocator@D@2@@2@_N_J_KNVallocator@2@Uadl_serializer@nlohmann@@@nlohmann@@@std@@@2@$0A@@std@@@std@@QEAA?AU?$pair@V?$_Tree_iterator@V?$_Tree_val@U?$_Tree_simple_types@U?$pair@$$CBV?$basic_string@DU?$char_traits@D@std@@V?$allocator@D@2@@std@@V?$basic_json@Vmap@std@@Vvector@2@V?$basic_string@DU?$char_traits@D@std@@V?$allocator@D@2@@2@_N_J_KNVallocator@2@Uadl_serializer@nlohmann@@@nlohmann@@@std@@@std@@@std@@@std@@_N@1@$$QEAV?$basic_string@DU?$char_traits@D@std@@V?$allocator@D@2@@1@$$QEAV?$basic_json@Vmap@std@@Vvector@2@V?$basic_string@DU?$char_traits@D@std@@V?$allocator@D@2@@2@_N_J_KNVallocator@2@Uadl_serializer@nlohmann@@@nlohmann@@@Z 0000000180005c90 f i bento_sdk:asset_database.obj
 0001:00004d60       ??$grisu2@N@dtoa_impl@detail@nlohmann@@YAXPEADAEAH1N@Z 0000000180005d60 f i bento_sdk:asset_database.obj
 0001:00004f00       ??$pack_bytes@_K@bento@@YAXAEAV?$Vector@D@0@AEB_K@Z 0000000180005f00 f i bento_sdk:asset_database.obj
 0001:00004f10       ??$pack_vector_types@UTAsset@bento@@@bento@@YAXAEAV?$Vector@D@0@AEBV?$Vector@UTAsset@bento@@@0@@Z 0000000180005f10 f i bento_sdk:asset_database.obj
 0001:00004ff0       ??$reinterpret_bits@_KN@dtoa_impl@detail@nlohmann@@YA_KN@Z 0000000180005ff0 f i bento_sdk:asset_database.obj
 0001:00005000       ??$setfill@D@std@@YA?AU?$_Fillobj@D@0@D@Z 0000000180006000 f i bento_sdk:asset_database.obj
 0001:00005010       ??$to_chars@N@detail@nlohmann@@YAPEADPEAD0N@Z 0000000180006010 f i bento_sdk:asset_database.obj
 0001:00005200       ??$to_json@V?$basic_json@Vmap@std@@Vvector@2@V?$basic_string@DU?$char_traits@D@std@@V?$allocator@D@2@@2@_N_J_KNVallocator@2@Uadl_serializer@nlohmann@@@nlohmann@@$$BY04D$0A@@detail@nlohmann@@YAXAEAV?$basic_json@Vmap@std@@Vvector@2@V?$basic_string@DU?$char_traits@D@std@@V?$allocator@D@2@@2@_N_J_KNVallocator@2@Uadl_serializer@nlohmann@@@1@AEAY04$$CBD@Z 0000000180006200 f i bento_sdk:asset_database.obj
 0001:000052a0       ??$to_json@V?$basic_json@Vmap@std@@Vvector@2@V?$basic_string@DU?$char_traits@D@std@@V?$allocator@D@2@@2@_N_J_KNVallocator@2@Uadl_serializer@nlohmann@@@nlohmann@@@detail@nlohmann@@YAXAEAV?$basic_json@Vmap@std@@Vvector@2@V?$basic_string@DU?$char_traits@D@std@@V?$allocator@D@2@@2@_N_J_KNVallocator@2@Uadl_serializer@nlohmann@@@1@$$QEAV?$basic_string@DU?$char_traits@D@std@@V?$allocator@D@2@@std@@@Z 00000001800062a0 f i bento_sdk:asset_database.obj
 0001:00005300       ??$to_json@V?$basic_json@Vmap@std@@Vvector@2@V?$basic_string@DU?$char_traits@D@std@@V?$allocator@D@2@@2@_N_J_KNVallocator@2@Uadl_serializer@nlohmann@@@nlohmann@@I$0A@@detail@nlohmann@@YAXAEAV?$basic_json@Vmap@std@@Vvector@2@V?$basic_string@DU?$char_traits@D@std@@V?$allocator@D@2@@2@_N_J_KNVallocator@2@Uadl_serializer@nlohmann@@@1@I@Z 0000000180006300 f i bento_sdk:asset_database.obj
 0001:00005310       ??$to_json@V?$basic_json@Vmap@std@@Vvector@2@V?$basic_string@DU?$char_traits@D@std@@V?$allocator@D@2@@2@_N_J_KNVallocator@2@Uadl_serializer@nlohmann@@@nlohmann@@PEBD$0A@@detail@nlohmann@@YAXAEAV?$basic_json@Vmap@std@@Vvector@2@V?$basic_string@DU?$char_traits@D@std@@V?$allocator@D@2@@2@_N_J_KNVallocator@2@Uadl_serializer@nlohmann@@@1@AEBQEBD@Z 0000000180006310 f i bento_sdk:asset_database.obj
 0001:000053b0       ??$unpack_bytes@_K@bento@@YAXAEAPEBDAEA_K@Z 00000001800063b0 f i bento_sdk:asset_database.obj
 0001:000053c0       ??$unpack_vector_types@UTAsset@bento@@@bento@@YAXAEAPEBDAEAV?$Vector@UTAsset@bento@@@0@@Z 00000001800063c0 f i bento_sdk:asset_database.obj
 0001:000054a0       ??0?$Vector@UTAsset@bento@@@bento@@QEAA@AEAVIAllocator@1@@Z 00000001800064a0 f i bento_sdk:asset_database.obj
 0001:000054c0       ??0?$basic_json@Vmap@std@@Vvector@2@V?$basic_string@DU?$char_traits@D@std@@V?$allocator@D@2@@2@_N_J_KNVallocator@2@Uadl_serializer@nlohmann@@@nlohmann@@QEAA@AEBV01@@Z 00000001800064c0 f i bento_sdk:asset_database.obj
 0001:00005770       ??0?$basic_json@Vmap@std@@Vvector@2@V?$basic_string@DU?$char_traits@D@std@@V?$allocator@D@2@@2@_N_J_KNVallocator@2@Uadl_serializer@nlohmann@@@nlohmann@@QEAA@V?$initializer_list@V?$json_ref@V?$basic_json@Vmap@std@@Vvector@2@V?$basic_string@DU?$char_traits@D@std@@V?$allocator@D@2@@2@_N_J_KNVallocator@2@Uadl_serializer@nlohmann@@@nlohmann@@@detail@nlohmann@@@std@@_NW4value_t@detail@1@@Z 0000000180006770 f i bento_sdk:asset_database.obj
 0001:00005a40       ??0?$basic_string@DU?$char_traits@D@std@@V?$allocator@D@2@@std@@QEAA@AEBV01@@Z 0000000180006a40 f i bento_sdk:asset_database.obj
 0001:00005ae0       ??0?$basic_string@DU?$char_traits@D@std@@V?$allocator@D@2@@std@@QEAA@QEBD@Z 0000000180006ae0 f i bento_sdk:asset_database.obj
 0001:00005b20       ??0?$basic_string@DU?$char_traits@D@std@@V?$allocator@D@2@@std@@QEAA@_KD@Z 0000000180006b20 f i bento_sdk:asset_database.obj
 0001:00005c70       ??0TAssetDatabase@bento@@QEAA@AEAVIAllocator@1@@Z 0000000180006c70 f   bento_sdk:asset_database.obj
 0001:00005c90       ??0exception@detail@nlohmann@@QEAA@AEBV012@@Z 0000000180006c90 f i bento_sdk:asset_database.obj
 0001:00005cd0       ??0exception@stdext@@QEAA@AEBV01@@Z 0000000180006cd0 f i bento_sdk:asset_database.obj
 0001:00005cf0       ??0json_value@?$basic_json@Vmap@std@@Vvector@2@V?$basic_string@DU?$char_traits@D@std@@V?$allocator@D@2@@2@_N_J_KNVallocator@2@Uadl_serializer@nlohmann@@@nlohmann@@QEAA@W4value_t@detail@2@@Z 0000000180006cf0 f i bento_sdk:asset_database.obj
 0001:00005e70       ??0other_error@detail@nlohmann@@QEAA@AEBV012@@Z 0000000180006e70 f i bento_sdk:asset_database.obj
 0001:00005ec0       ??0type_error@detail@nlohmann@@QEAA@AEBV012@@Z 0000000180006ec0 f i bento_sdk:asset_database.obj
 0001:00005f10       ??1?$Vector@UTAsset@bento@@@bento@@QEAA@XZ 0000000180006f10 f i bento_sdk:asset_database.obj
 0001:00005f50       ??1?$_Tree_comp_alloc@V?$_Tmap_traits@V?$basic_string@DU?$char_traits@D@std@@V?$allocator@D@2@@std@@V?$basic_json@Vmap@std@@Vvector@2@V?$basic_string@DU?$char_traits@D@std@@V?$allocator@D@2@@2@_N_J_KNVallocator@2@Uadl_serializer@nlohmann@@@nlohmann@@U?$less@V?$basic_string@DU?$char_traits@D@std@@V?$allocator@D@2@@std@@@2@V?$allocator@U?$pair@$$CBV?$basic_string@DU?$char_traits@D@std@@V?$allocator@D@2@@std@@V?$basic_json@Vmap@std@@Vvector@2@V?$basic_string@DU?$char_traits@D@std@@V?$allocator@D@2@@2@_N_J_KNVallocator@2@Uadl_serializer@nlohmann@@@nlohmann@@@std@@@2@$0A@@std@@@std@@QEAA@XZ 0000000180006f50 f i bento_sdk:asset_database.obj
 0001:00005f60       ??1?$basic_json@Vmap@std@@Vvector@2@V?$basic_string@DU?$char_traits@D@std@@V?$allocator@D@2@@2@_N_J_KNVallocator@2@Uadl_serializer@nlohmann@@@nlohmann@@QEAA@XZ 0000000180006f60 f i bento_sdk:asset_database.obj
 0001:00005f70       ??1?$basic_string@DU?$char_traits@D@std@@V?$allocator@D@2@@std@@QEAA@XZ 0000000180006f70 f i bento_sdk:asset_database.obj
 0001:00005f80       ??1?$basic_stringbuf@DU?$char_traits@D@std@@V?$allocator@D@2@@std@@UEAA@XZ 0000000180006f80 f i bento_sdk:asset_database.obj
 0001:00006050       ??1?$basic_stringstream@DU?$char_traits@D@std@@V?$allocator@D@2@@std@@UEAA@XZ 0000000180007050 f i bento_sdk:asset_database.obj
 0001:000060b0       ??1?$json_ref@V?$basic_json@Vmap@std@@Vvector@2@V?$basic_string@DU?$char_traits@D@std@@V?$allocator@D@2@@2@_N_J_KNVallocator@2@Uadl_serializer@nlohmann@@@nlohmann@@@detail@nlohmann@@QEAA@XZ 00000001800070b0 f i bento_sdk:asset_database.obj
 0001:000060c0       ??1?$output_adapter@DV?$basic_string@DU?$char_traits@D@std@@V?$allocator@D@2@@std@@@detail@nlohmann@@QEAA@XZ 00000001800070c0 f i bento_sdk:asset_database.obj
 0001:00006110       ??1?$output_adapter_protocol@D@detail@nlohmann@@UEAA@XZ 0000000180007110 f i bento_sdk:asset_database.obj
 0001:00006120       ??1?$serializer@V?$basic_json@Vmap@std@@Vvector@2@V?$basic_string@DU?$char_traits@D@std@@V?$allocator@D@2@@2@_N_J_KNVallocator@2@Uadl_serializer@nlohmann@@@nlohmann@@@detail@nlohmann@@QEAA@XZ 0000000180007120 f i bento_sdk:asset_database.obj
 0001:00006180       ??1?$shared_ptr@U?$output_adapter_protocol@D@detail@nlohmann@@@std@@QEAA@XZ 0000000180007180 f i bento_sdk:asset_database.obj
 0001:00006290       ??1TAssetDatabase@bento@@QEAA@XZ 0000000180007290 f   bento_sdk:asset_database.obj
 0001:000062d0       ??1_Ref_count_base@std@@UEAA@XZ 00000001800072d0 f i bento_sdk:asset_database.obj
 0001:000062e0       ??1exception@stdext@@UEAA@XZ 00000001800072e0 f i bento_sdk:asset_database.obj
 0001:000062f0       ??1other_error@detail@nlohmann@@UEAA@XZ 00000001800072f0 f i bento_sdk:asset_database.obj
 0001:00006300       ??1type_error@detail@nlohmann@@UEAA@XZ 0000000180007300 f i bento_sdk:asset_database.obj
 0001:00006310       ??3@YAXPEAX0@Z             0000000180007310 f i bento_sdk:asset_database.obj
 0001:00006320       ??4?$Vector@D@bento@@QEAAXAEBV01@@Z 0000000180007320 f i bento_sdk:asset_database.obj
 0001:00006380       ??A?$basic_json@Vmap@std@@Vvector@2@V?$basic_string@DU?$char_traits@D@std@@V?$allocator@D@2@@2@_N_J_KNVallocator@2@Uadl_serializer@nlohmann@@@nlohmann@@QEAAAEAV01@AEBV?$basic_string@DU?$char_traits@D@std@@V?$allocator@D@2@@std@@@Z 0000000180007380 f i bento_sdk:asset_database.obj
 0001:00006530       ??_D?$basic_stringstream@DU?$char_traits@D@std@@V?$allocator@D@2@@std@@QEAAXXZ 0000000180007530 f i bento_sdk:asset_database.obj
 0001:00006590       ??_E?$basic_stringstream@DU?$char_traits@D@std@@V?$allocator@D@2@@std@@$4PPPPPPPM@A@EAAPEAXI@Z 0000000180007590 f i bento_sdk:asset_database.obj
 0001:000065a0       ??_G?$_Ref_count_obj@V?$output_string_adapter@DV?$basic_string@DU?$char_traits@D@std@@V?$allocator@D@2@@std@@@detail@nlohmann@@@std@@UEAAPEAXI@Z 00000001800075a0 f i bento_sdk:asset_database.obj
 0001:000065a0       ??_E?$_Ref_count_obj@V?$output_string_adapter@DV?$basic_string@DU?$char_traits@D@std@@V?$allocator@D@2@@std@@@detail@nlohmann@@@std@@UEAAPEAXI@Z 00000001800075a0 f i bento_sdk:asset_database.obj
 0001:000065d0       ??_E?$basic_stringbuf@DU?$char_traits@D@std@@V?$allocator@D@2@@std@@UEAAPEAXI@Z 00000001800075d0 f i bento_sdk:asset_database.obj
 0001:000065d0       ??_G?$basic_stringbuf@DU?$char_traits@D@std@@V?$allocator@D@2@@std@@UEAAPEAXI@Z 00000001800075d0 f i bento_sdk:asset_database.obj
 0001:00006610       ??_E?$basic_stringstream@DU?$char_traits@D@std@@V?$allocator@D@2@@std@@UEAAPEAXI@Z 0000000180007610 f i bento_sdk:asset_database.obj
 0001:00006610       ??_G?$basic_stringstream@DU?$char_traits@D@std@@V?$allocator@D@2@@std@@UEAAPEAXI@Z 0000000180007610 f i bento_sdk:asset_database.obj
 0001:000066b0       ??_E?$output_adapter_protocol@D@detail@nlohmann@@UEAAPEAXI@Z 00000001800076b0 f i bento_sdk:asset_database.obj
 0001:000066b0       ??_G?$output_adapter_protocol@D@detail@nlohmann@@UEAAPEAXI@Z 00000001800076b0 f i bento_sdk:asset_database.obj
 0001:000066e0       ??_G?$output_string_adapter@DV?$basic_string@DU?$char_traits@D@std@@V?$allocator@D@2@@std@@@detail@nlohmann@@UEAAPEAXI@Z 00000001800076e0 f i bento_sdk:asset_database.obj
 0001:000066e0       ??_E?$output_string_adapter@DV?$basic_string@DU?$char_traits@D@std@@V?$allocator@D@2@@std@@@detail@nlohmann@@UEAAPEAXI@Z 00000001800076e0 f i bento_sdk:asset_database.obj
 0001:00006710       ??_E_Ref_count_base@std@@UEAAPEAXI@Z 0000000180007710 f i bento_sdk:asset_database.obj
 0001:00006710       ??_G_Ref_count_base@std@@UEAAPEAXI@Z 0000000180007710 f i bento_sdk:asset_database.obj
 0001:00006740       ??_Eexception@detail@nlohmann@@UEAAPEAXI@Z 0000000180007740 f i bento_sdk:asset_database.obj
 0001:00006740       ??_Gexception@detail@nlohmann@@UEAAPEAXI@Z 0000000180007740 f i bento_sdk:asset_database.obj
 0001:00006770       ??_Eexception@stdext@@UEAAPEAXI@Z 0000000180007770 f i bento_sdk:asset_database.obj
 0001:00006770       ??_Gexception@stdext@@UEAAPEAXI@Z 0000000180007770 f i bento_sdk:asset_database.obj
 0001:000067a0       ??_Eother_error@detail@nlohmann@@UEAAPEAXI@Z 00000001800077a0 f i bento_sdk:asset_database.obj
 0001:000067a0       ??_Gother_error@detail@nlohmann@@UEAAPEAXI@Z 00000001800077a0 f i bento_sdk:asset_database.obj
 0001:000067d0       ??_Eruntime_error@std@@UEAAPEAXI@Z 00000001800077d0 f i bento_sdk:asset_database.obj
 0001:000067d0       ??_Gruntime_error@std@@UEAAPEAXI@Z 00000001800077d0 f i bento_sdk:asset_database.obj
 0001:00006800       ??_Gtype_error@detail@nlohmann@@UEAAPEAXI@Z 0000000180007800 f i bento_sdk:asset_database.obj
 0001:00006800       ??_Etype_error@detail@nlohmann@@UEAAPEAXI@Z 0000000180007800 f i bento_sdk:asset_database.obj
 0001:00006830       ?_Become_small@?$basic_string@DU?$char_traits@D@std@@V?$allocator@D@2@@std@@QEAAXXZ 0000000180007830 f i bento_sdk:asset_database.obj
 0001:000068b0       ?_Buy@?$vector@V?$basic_json@Vmap@std@@Vvector@2@V?$basic_string@DU?$char_traits@D@std@@V?$allocator@D@2@@2@_N_J_KNVallocator@2@Uadl_serializer@nlohmann@@@nlohmann@@V?$allocator@V?$basic_json@Vmap@std@@Vvector@2@V?$basic_string@DU?$char_traits@D@std@@V?$allocator@D@2@@2@_N_J_KNVallocator@2@Uadl_serializer@nlohmann@@@nlohmann@@@std@@@std@@AEAA_N_K@Z 00000001800078b0 f i bento_sdk:asset_database.obj
 0001:00006920       ?_Delete_this@?$_Ref_count_obj@V?$output_string_adapter@DV?$basic_string@DU?$char_traits@D@std@@V?$allocator@D@2@@std@@@detail@nlohmann@@@std@@EEAAXXZ 0000000180007920 f i bento_sdk:asset_database.obj
 0001:00006940       ?_Destroy@?$_Ref_count_obj@V?$output_string_adapter@DV?$basic_string@DU?$char_traits@D@std@@V?$allocator@D@2@@std@@@detail@nlohmann@@@std@@EEAAXXZ 0000000180007940 f i bento_sdk:asset_database.obj
 0001:00006950       ?_Destroy_if_node@?$_Tree@V?$_Tmap_traits@V?$basic_string@DU?$char_traits@D@std@@V?$allocator@D@2@@std@@V?$basic_json@Vmap@std@@Vvector@2@V?$basic_string@DU?$char_traits@D@std@@V?$allocator@D@2@@2@_N_J_KNVallocator@2@Uadl_serializer@nlohmann@@@nlohmann@@U?$less@V?$basic_string@DU?$char_traits@D@std@@V?$allocator@D@2@@std@@@2@V?$allocator@U?$pair@$$CBV?$basic_string@DU?$char_traits@D@std@@V?$allocator@D@2@@std@@V?$basic_json@Vmap@std@@Vvector@2@V?$basic_string@DU?$char_traits@D@std@@V?$allocator@D@2@@2@_N_J_KNVallocator@2@Uadl_serializer@nlohmann@@@nlohmann@@@std@@@2@$0A@@std@@@std@@IEAAXPEAU?$_Tree_node@U?$pair@$$CBV?$basic_string@DU?$char_traits@D@std@@V?$allocator@D@2@@std@@V?$basic_json@Vmap@std@@Vvector@2@V?$basic_string@DU?$char_traits@D@std@@V?$allocator@D@2@@2@_N_J_KNVallocator@2@Uadl_serializer@nlohmann@@@nlohmann@@@std@@PEAX@2@@Z 0000000180007950 f i bento_sdk:asset_database.obj
 0001:00006990       ?_Doraise@exception@stdext@@MEBAXXZ 0000000180007990 f i bento_sdk:asset_database.obj
 0001:000069a0       ?_Doraise@runtime_error@std@@MEBAXXZ 00000001800079a0 f i bento_sdk:asset_database.obj
 0001:000069c0       ?_Erase@?$_Tree@V?$_Tmap_traits@V?$basic_string@DU?$char_traits@D@std@@V?$allocator@D@2@@std@@V?$basic_json@Vmap@std@@Vvector@2@V?$basic_string@DU?$char_traits@D@std@@V?$allocator@D@2@@2@_N_J_KNVallocator@2@Uadl_serializer@nlohmann@@@nlohmann@@U?$less@V?$basic_string@DU?$char_traits@D@std@@V?$allocator@D@2@@std@@@2@V?$allocator@U?$pair@$$CBV?$basic_string@DU?$char_traits@D@std@@V?$allocator@D@2@@std@@V?$basic_json@Vmap@std@@Vvector@2@V?$basic_string@DU?$char_traits@D@std@@V?$allocator@D@2@@2@_N_J_KNVallocator@2@Uadl_serializer@nlohmann@@@nlohmann@@@std@@@2@$0A@@std@@@std@@IEAAXPEAU?$_Tree_node@U?$pair@$$CBV?$basic_string@DU?$char_traits@D@std@@V?$allocator@D@2@@std@@V?$basic_json@Vmap@std@@Vvector@2@V?$basic_string@DU?$char_traits@D@std@@V?$allocator@D@2@@2@_N_J_KNVallocator@2@Uadl_serializer@nlohmann@@@nlohmann@@@std@@PEAX@2@@Z 00000001800079c0 f i bento_sdk:asset_database.obj
 0001:00006a40       ?_Get_deleter@_Ref_count_base@std@@UEBAPEAXAEBVtype_info@@@Z 0000000180007a40 f i bento_sdk:asset_database.obj
 0001:00006a50       ?_Tidy@?$vector@V?$basic_json@Vmap@std@@Vvector@2@V?$basic_string@DU?$char_traits@D@std@@V?$allocator@D@2@@2@_N_J_KNVallocator@2@Uadl_serializer@nlohmann@@@nlohmann@@V?$allocator@V?$basic_json@Vmap@std@@Vvector@2@V?$basic_string@DU?$char_traits@D@std@@V?$allocator@D@2@@2@_N_J_KNVallocator@2@Uadl_serializer@nlohmann@@@nlohmann@@@std@@@std@@AEAAXXZ 0000000180007a50 f i bento_sdk:asset_database.obj
 0001:00006b20       ?_Tidy_deallocate@?$basic_string@DU?$char_traits@D@std@@V?$allocator@D@2@@std@@QEAAXXZ 0000000180007b20 f i bento_sdk:asset_database.obj
 0001:00006ba0       ?_Xlen@?$basic_string@DU?$char_traits@D@std@@V?$allocator@D@2@@std@@SAXXZ 0000000180007ba0 f i bento_sdk:asset_database.obj
 0001:00006bc0       ?_Xlength@?$vector@V?$basic_json@Vmap@std@@Vvector@2@V?$basic_string@DU?$char_traits@D@std@@V?$allocator@D@2@@2@_N_J_KNVallocator@2@Uadl_serializer@nlohmann@@@nlohmann@@V?$allocator@V?$basic_json@Vmap@std@@Vvector@2@V?$basic_string@DU?$char_traits@D@std@@V?$allocator@D@2@@2@_N_J_KNVallocator@2@Uadl_serializer@nlohmann@@@nlohmann@@@std@@@std@@CAXXZ 0000000180007bc0 f i bento_sdk:asset_database.obj
 0001:00006be0       ?_Xran@?$_String_val@U?$_Simple_types@D@std@@@std@@SAXXZ 0000000180007be0 f i bento_sdk:asset_database.obj
 0001:00006c00       ?append@?$basic_string@DU?$char_traits@D@std@@V?$allocator@D@2@@std@@QEAAAEAV12@QEBD_K@Z 0000000180007c00 f i bento_sdk:asset_database.obj
 0001:00006d80       ?append@?$basic_string@DU?$char_traits@D@std@@V?$allocator@D@2@@std@@QEAAAEAV12@_KD@Z 0000000180007d80 f i bento_sdk:asset_database.obj
 0001:00006f10       ?assign@?$basic_string@DU?$char_traits@D@std@@V?$allocator@D@2@@std@@QEAAAEAV12@QEBD_K@Z 0000000180007f10 f i bento_sdk:asset_database.obj
 0001:00007040       ?back@?$basic_string@DU?$char_traits@D@std@@V?$allocator@D@2@@std@@QEBAAEBDXZ 0000000180008040 f i bento_sdk:asset_database.obj
 0001:00007060       ?clear@?$Vector@UTAsset@bento@@@bento@@QEAAXXZ 0000000180008060 f i bento_sdk:asset_database.obj
 0001:00007110       ?compare@?$basic_string@DU?$char_traits@D@std@@V?$allocator@D@2@@std@@QEBAHAEBV12@@Z 0000000180008110 f i bento_sdk:asset_database.obj
 0001:00007180       ?create@other_error@detail@nlohmann@@SA?AV123@HAEBV?$basic_string@DU?$char_traits@D@std@@V?$allocator@D@2@@std@@@Z 0000000180008180 f i bento_sdk:asset_database.obj
 0001:00007390       ?create@type_error@detail@nlohmann@@SA?AV123@HAEBV?$basic_string@DU?$char_traits@D@std@@V?$allocator@D@2@@std@@@Z 0000000180008390 f i bento_sdk:asset_database.obj
 0001:000075a0       ?destroy@json_value@?$basic_json@Vmap@std@@Vvector@2@V?$basic_string@DU?$char_traits@D@std@@V?$allocator@D@2@@2@_N_J_KNVallocator@2@Uadl_serializer@nlohmann@@@nlohmann@@QEAAXW4value_t@detail@3@@Z 00000001800085a0 f i bento_sdk:asset_database.obj
 0001:00007670       ?dump@?$basic_json@Vmap@std@@Vvector@2@V?$basic_string@DU?$char_traits@D@std@@V?$allocator@D@2@@2@_N_J_KNVallocator@2@Uadl_serializer@nlohmann@@@nlohmann@@QEBA?AV?$basic_string@DU?$char_traits@D@std@@V?$allocator@D@2@@std@@HD_N@Z 0000000180008670 f i bento_sdk:asset_database.obj
 0001:000078f0       ?dump@?$serializer@V?$basic_json@Vmap@std@@Vvector@2@V?$basic_string@DU?$char_traits@D@std@@V?$allocator@D@2@@2@_N_J_KNVallocator@2@Uadl_serializer@nlohmann@@@nlohmann@@@detail@nlohmann@@QEAAXAEBV?$basic_json@Vmap@std@@Vvector@2@V?$basic_string@DU?$char_traits@D@std@@V?$allocator@D@2@@2@_N_J_KNVallocator@2@Uadl_serializer@nlohmann@@@3@_N1II@Z 00000001800088f0 f i bento_sdk:asset_database.obj
 0001:00008160       ?dump_escaped@?$serializer@V?$basic_json@Vmap@std@@Vvector@2@V?$basic_string@DU?$char_traits@D@std@@V?$allocator@D@2@@2@_N_J_KNVallocator@2@Uadl_serializer@nlohmann@@@nlohmann@@@detail@nlohmann@@AEAAXAEBV?$basic_string@DU?$char_traits@D@std@@V?$allocator@D@2@@std@@_N@Z 0000000180009160 f i bento_sdk:asset_database.obj
 0001:00008790       ?format_buffer@dtoa_impl@detail@nlohmann@@YAPEADPEADHHHH@Z 0000000180009790 f i bento_sdk:asset_database.obj
 0001:00008950       ?free@?$Vector@UTAsset@bento@@@bento@@QEAAXXZ 0000000180009950 f i bento_sdk:asset_database.obj
 0001:00008980       ?grisu2@dtoa_impl@detail@nlohmann@@YAXPEADAEAH1Udiyfp@123@22@Z 0000000180009980 f i bento_sdk:asset_database.obj
 0001:00008bd0       ?grisu2_digit_gen@dtoa_impl@detail@nlohmann@@YAXPEADAEAH1Udiyfp@123@22@Z 0000000180009bd0 f i bento_sdk:asset_database.obj
 0001:00008e20       ?hex@std@@YAAEAVios_base@1@AEAV21@@Z 0000000180009e20 f i bento_sdk:asset_database.obj
 0001:00008e40       ?insert@?$basic_string@DU?$char_traits@D@std@@V?$allocator@D@2@@std@@QEAAAEAV12@_KQEBD0@Z 0000000180009e40 f i bento_sdk:asset_database.obj
 0001:00008f50       ?insert_asset@TAssetDatabase@bento@@QEAAXPEBD0IAEAV?$Vector@D@2@@Z 0000000180009f50 f   bento_sdk:asset_database.obj
 0001:00009020       ?name@exception@detail@nlohmann@@KA?AV?$basic_string@DU?$char_traits@D@std@@V?$allocator@D@2@@std@@AEBV45@H@Z 000000018000a020 f i bento_sdk:asset_database.obj
 0001:000093a0       ?overflow@?$basic_stringbuf@DU?$char_traits@D@std@@V?$allocator@D@2@@std@@MEAAHH@Z 000000018000a3a0 f i bento_sdk:asset_database.obj
 0001:00009620       ?pack_type@bento@@YAXAEAV?$Vector@D@1@AEBUTAsset@1@@Z 000000018000a620 f   bento_sdk:asset_database.obj
 0001:000096a0       ?pack_type@bento@@YAXAEAV?$Vector@D@1@AEBVTAssetDatabase@1@@Z 000000018000a6a0 f   bento_sdk:asset_database.obj
 0001:00009790       ?pbackfail@?$basic_stringbuf@DU?$char_traits@D@std@@V?$allocator@D@2@@std@@MEAAHH@Z 000000018000a790 f i bento_sdk:asset_database.obj
 0001:000097e0       ?push_back@?$basic_string@DU?$char_traits@D@std@@V?$allocator@D@2@@std@@QEAAXD@Z 000000018000a7e0 f i bento_sdk:asset_database.obj
 0001:00009940       ?request_asset@TAssetDatabase@bento@@QEBAPEBUTAsset@2@PEBD@Z 000000018000a940 f   bento_sdk:asset_database.obj
 0001:000099b0       ?request_asset@TAssetDatabase@bento@@QEBAPEBUTAsset@2@_K@Z 000000018000a9b0 f   bento_sdk:asset_database.obj
 0001:000099e0       ?reserve@?$Vector@UTAsset@bento@@@bento@@QEAAXI@Z 000000018000a9e0 f i bento_sdk:asset_database.obj
 0001:00009a50       ?resize@?$Vector@UTAsset@bento@@@bento@@QEAAXI@Z 000000018000aa50 f i bento_sdk:asset_database.obj
 0001:00009c40       ?seekoff@?$basic_stringbuf@DU?$char_traits@D@std@@V?$allocator@D@2@@std@@MEAA?AV?$fpos@U_Mbstatet@@@2@_JHH@Z 000000018000ac40 f i bento_sdk:asset_database.obj
 0001:00009df0       ?seekpos@?$basic_stringbuf@DU?$char_traits@D@std@@V?$allocator@D@2@@std@@MEAA?AV?$fpos@U_Mbstatet@@@2@V32@H@Z 000000018000adf0 f i bento_sdk:asset_database.obj
 0001:00009f00       ?str@?$basic_stringstream@DU?$char_traits@D@std@@V?$allocator@D@2@@std@@QEBA?AV?$basic_string@DU?$char_traits@D@std@@V?$allocator@D@2@@2@XZ 000000018000af00 f i bento_sdk:asset_database.obj
 0001:00009ff0       ?to_string@bento@@YAXAEAVDynamicString@1@AEBVTAssetDatabase@1@@Z 000000018000aff0 f   bento_sdk:asset_database.obj
 0001:0000a760       ?to_string@std@@YA?AV?$basic_string@DU?$char_traits@D@std@@V?$allocator@D@2@@1@_K@Z 000000018000b760 f i bento_sdk:asset_database.obj
 0001:0000a800       ?type_name@?$basic_json@Vmap@std@@Vvector@2@V?$basic_string@DU?$char_traits@D@std@@V?$allocator@D@2@@2@_N_J_KNVallocator@2@Uadl_serializer@nlohmann@@@nlohmann@@QEBAPEBDXZ 000000018000b800 f i bento_sdk:asset_database.obj
 0001:0000a880       ?underflow@?$basic_stringbuf@DU?$char_traits@D@std@@V?$allocator@D@2@@std@@MEAAHXZ 000000018000b880 f i bento_sdk:asset_database.obj
 0001:0000a8f0       ?unpack_type@bento@@YAXAEAPEBDAEAUTAsset@1@@Z 000000018000b8f0 f   bento_sdk:asset_database.obj
 0001:0000a980       ?unpack_type@bento@@YA_NAEAPEBDAEAVTAssetDatabase@1@@Z 000000018000b980 f   bento_sdk:asset_database.obj
 0001:0000aa90       ?uppercase@std@@YAAEAVios_base@1@AEAV21@@Z 000000018000ba90 f i bento_sdk:asset_database.obj
 0001:0000aaa0       ?what@exception@detail@nlohmann@@UEBAPEBDXZ 000000018000baa0 f i bento_sdk:asset_database.obj
 0001:0000aab0       ?what@exception@stdext@@UEBAPEBDXZ 000000018000bab0 f i bento_sdk:asset_database.obj
 0001:0000aad0       ?write_character@?$output_string_adapter@DV?$basic_string@DU?$char_traits@D@std@@V?$allocator@D@2@@std@@@detail@nlohmann@@UEAAXD@Z 000000018000bad0 f i bento_sdk:asset_database.obj
 0001:0000aae0       ?write_characters@?$output_string_adapter@DV?$basic_string@DU?$char_traits@D@std@@V?$allocator@D@2@@std@@@detail@nlohmann@@UEAAXPEBD_K@Z 000000018000bae0 f i bento_sdk:asset_database.obj
 0001:0000aaf0       __local_stdio_printf_options 000000018000baf0 f i bento_sdk:asset_database.obj
 0001:0000ab00       snprintf                   000000018000bb00 f i bento_sdk:asset_database.obj
 0001:0000ab60       ?default_logger@bento@@YAPEAVILogger@1@XZ 000000018000bb60 f   bento_sdk:log.obj
 0001:0000ab70       ?reset_logger@bento@@YAXXZ 000000018000bb70 f   bento_sdk:log.obj
 0001:0000ab80       ?set_default_logger@bento@@YAXPEAVILogger@1@@Z 000000018000bb80 f   bento_sdk:log.obj
 0001:0000ab90       ?add_extension@path@bento@@YA?AVDynamicString@2@PEBD0AEAVIAllocator@2@@Z 000000018000bb90 f   bento_sdk:file_system.obj
 0001:0000abb0       ?collect_files_with_extension@file_system@bento@@YAXPEBD0AEAV?$Vector@VDynamicString@bento@@@2@@Z 000000018000bbb0 f   bento_sdk:file_system.obj
 0001:0000b090       ?directory@path@bento@@YA?AVDynamicString@2@PEBDAEAVIAllocator@2@@Z 000000018000c090 f   bento_sdk:file_system.obj
 0001:0000b100       ?extension@path@bento@@YA?AVDynamicString@2@PEBDAEAVIAllocator@2@@Z 000000018000c100 f   bento_sdk:file_system.obj
 0001:0000b190       ?filename@path@bento@@YA?AVDynamicString@2@PEBDAEAVIAllocator@2@@Z 000000018000c190 f   bento_sdk:file_system.obj
 0001:0000b240       ?internal_join@path@bento@@YA?AVDynamicString@2@PEBD0DAEAVIAllocator@2@@Z 000000018000c240 f i bento_sdk:file_system.obj
 0001:0000b2f0       ?join@path@bento@@YA?AVDynamicString@2@PEBD0AEAVIAllocator@2@@Z 000000018000c2f0 f   bento_sdk:file_system.obj
 0001:0000b310       ?path_is_file@file_system@bento@@YA_NPEBD@Z 000000018000c310 f   bento_sdk:file_system.obj
 0001:0000b360       ?push_back@?$Vector@D@bento@@QEAAXAEBD@Z 000000018000c360 f i bento_sdk:file_system.obj
 0001:0000b3b0       ?push_back@?$Vector@VDynamicString@bento@@@bento@@QEAAXAEBVDynamicString@2@@Z 000000018000c3b0 f i bento_sdk:file_system.obj
 0001:0000b470       ?read_file@bento@@YA_NPEBDAEAV?$Vector@D@1@W4FileType@1@@Z 000000018000c470 f   bento_sdk:file_system.obj
 0001:0000b580       ?reserve@?$Vector@VDynamicString@bento@@@bento@@QEAAXI@Z 000000018000c580 f i bento_sdk:file_system.obj
 0001:0000b5f0       ?strip_extension@path@bento@@YA?AVDynamicString@2@PEBDAEAVIAllocator@2@@Z 000000018000c5f0 f   bento_sdk:file_system.obj
 0001:0000b660       ?write_file@bento@@YA_NPEBD0IW4FileType@1@@Z 000000018000c660 f   bento_sdk:file_system.obj
 0001:0000b9c0       ?murmur_hash@bento@@YAIPEBXII@Z 000000018000c9c0 f   bento_sdk:hash.obj
 0001:0000ba50       ?murmur_hash_64@bento@@YA_KPEBXII@Z 000000018000ca50 f   bento_sdk:hash.obj
 0001:0000bb70       ?pack_buffer@bento@@YAXAEAV?$Vector@D@1@IPEBD@Z 000000018000cb70 f   bento_sdk:stream.obj
 0001:0000bc20       ?unpack_buffer@bento@@YAXAEAPEBDIPEAD@Z 000000018000cc20 f   bento_sdk:stream.obj
 0001:0000bc60       ??0DiskSerializer@bento@@QEAA@AEAVIAllocator@1@PEBD@Z 000000018000cc60 f   bento_sdk:disk_serializer.obj
 0001:0000bc90       ?internal_read_buffer@DiskSerializer@bento@@AEAA_NAEAV?$Vector@D@2@PEBD1@Z 000000018000cc90 f   bento_sdk:disk_serializer.obj
 0001:0000bd80       ?internal_read_string@DiskSerializer@bento@@AEAA_NAEAVDynamicString@2@PEBD1@Z 000000018000cd80 f   bento_sdk:disk_serializer.obj
 0001:0000bed0       ?internal_write_buffer@DiskSerializer@bento@@AEAA_NAEBV?$Vector@D@2@PEBD1@Z 000000018000ced0 f   bento_sdk:disk_serializer.obj
 0001:0000bfc0       ?internal_write_string@DiskSerializer@bento@@AEAA_NAEBVDynamicString@2@PEBD1@Z 000000018000cfc0 f   bento_sdk:disk_serializer.obj
 0001:0000c0d0       ?__handle_fail@bento@@YAXPEBD0H@Z 000000018000d0d0 f   bento_sdk:security.obj
 0001:0000c130       ?print_trace@bento@@YAXXZ  000000018000d130 f   bento_sdk:security.obj
 0001:0000c140       ??$?6U?$char_traits@D@std@@@std@@YAAEAV?$basic_ostream@DU?$char_traits@D@std@@@0@AEAV10@PEBD@Z 000000018000d140 f i bento_sdk:matrix4.obj
 0001:0000c310       ??1_Sentry_base@?$basic_ostream@DU?$char_traits@D@std@@@std@@QEAA@XZ 000000018000d310 f i bento_sdk:matrix4.obj
 0001:0000c340       ??1sentry@?$basic_ostream@DU?$char_traits@D@std@@@std@@QEAA@XZ 000000018000d340 f i bento_sdk:matrix4.obj
 0001:0000c380       ??6bento@@YAAEAV?$basic_ostream@DU?$char_traits@D@std@@@std@@AEAV12@AEBUMatrix4@0@@Z 000000018000d380 f   bento_sdk:matrix4.obj
 0001:0000c580       ??Dbento@@YA?AUMatrix4@0@AEBU10@0@Z 000000018000d580 f   bento_sdk:matrix4.obj
 0001:0000c990       ??Dbento@@YA?AUVector3@0@AEBUMatrix4@0@AEBU10@@Z 000000018000d990 f   bento_sdk:matrix4.obj
 0001:0000ca30       ??Dbento@@YA?AUVector4@0@AEBUMatrix4@0@AEBU10@@Z 000000018000da30 f   bento_sdk:matrix4.obj
 0001:0000cb20       ?AsPerspective@bento@@YAXAEAUMatrix4@1@MMMM@Z 000000018000db20 f   bento_sdk:matrix4.obj
 0001:0000cbe0       ?Det@bento@@YAMAEBUMatrix4@1@@Z 000000018000dbe0 f   bento_sdk:matrix4.obj
 0001:0000cc10       ?GetTranslate@bento@@YA?AUVector3@1@AEBUMatrix4@1@@Z 000000018000dc10 f   bento_sdk:matrix4.obj
 0001:0000cc40       ?Inverse3x3@bento@@YA?AUMatrix3@1@AEBUMatrix4@1@@Z 000000018000dc40 f   bento_sdk:matrix4.obj
 0001:0000ce40       ?Inverse@bento@@YA?AUMatrix4@1@AEBU21@@Z 000000018000de40 f   bento_sdk:matrix4.obj
 0001:0000d690       ?ResetToZero@bento@@YAXAEAUMatrix4@1@@Z 000000018000e690 f   bento_sdk:matrix4.obj
 0001:0000d6c0       ?Rotate@bento@@YA?AUMatrix4@1@MAEBUVector3@1@@Z 000000018000e6c0 f   bento_sdk:matrix4.obj
 0001:0000d8f0       ?RotateXAxis@bento@@YA?AUMatrix4@1@M@Z 000000018000e8f0 f   bento_sdk:matrix4.obj
 0001:0000d960       ?RotateYAxis@bento@@YA?AUMatrix4@1@M@Z 000000018000e960 f   bento_sdk:matrix4.obj
 0001:0000d9d0       ?RotateZAxis@bento@@YA?AUMatrix4@1@M@Z 000000018000e9d0 f   bento_sdk:matrix4.obj
 0001:0000da40       ?Set@bento@@YAAEAUMatrix4@1@AEAU21@AEBU21@@Z 000000018000ea40 f   bento_sdk:matrix4.obj
 0001:0000dab0       ?SetIdentity@bento@@YAXAEAUMatrix4@1@@Z 000000018000eab0 f   bento_sdk:matrix4.obj
 0001:0000daf0       ?ToTable@bento@@YAXAEBUMatrix4@1@PEAM@Z 000000018000eaf0 f   bento_sdk:matrix4.obj
 0001:0000db50       ?Translate_M4@bento@@YA?AUMatrix4@1@AEBUVector3@1@@Z 000000018000eb50 f   bento_sdk:matrix4.obj
 0001:0000dba0       ?Translate_M4@bento@@YA?AUMatrix4@1@AEBUVector4@1@@Z 000000018000eba0 f   bento_sdk:matrix4.obj
 0001:0000dbf0       ?WRow@bento@@YAPEBUVector4@1@AEBUMatrix4@1@@Z 000000018000ebf0 f   bento_sdk:matrix4.obj
 0001:0000dc00       ?XAxis@bento@@YA?AUVector3@1@AEBUMatrix4@1@@Z 000000018000ec00 f   bento_sdk:matrix4.obj
 0001:0000dc30       ?XRow@bento@@YAPEBUVector4@1@AEBUMatrix4@1@@Z 000000018000ec30 f   bento_sdk:matrix4.obj
 0001:0000dc40       ?YAxis@bento@@YA?AUVector3@1@AEBUMatrix4@1@@Z 000000018000ec40 f   bento_sdk:matrix4.obj
 0001:0000dc70       ?YRow@bento@@YAPEBUVector4@1@AEBUMatrix4@1@@Z 000000018000ec70 f   bento_sdk:matrix4.obj
 0001:0000dc80       ?ZAxis@bento@@YA?AUVector3@1@AEBUMatrix4@1@@Z 000000018000ec80 f   bento_sdk:matrix4.obj
 0001:0000dcb0       ?ZRow@bento@@YAPEBUVector4@1@AEBUMatrix4@1@@Z 000000018000ecb0 f   bento_sdk:matrix4.obj
 0001:0000dcc0       ?matrix4@bento@@YAXAEAUMatrix4@1@PEAM@Z 000000018000ecc0 f   bento_sdk:matrix4.obj
 0001:0000dce0       ?transpose@bento@@YA?AUMatrix4@1@AEBU21@@Z 000000018000ece0 f   bento_sdk:matrix4.obj
 0001:0000dd70       ??0IAllocator@bento@@QEAA@XZ 000000018000ed70 f   bento_sdk:allocator.obj
 0001:0000dd80       ??1IAllocator@bento@@UEAA@XZ 000000018000ed80 f   bento_sdk:allocator.obj
 0001:0000dd90       ??_GIAllocator@bento@@UEAAPEAXI@Z 000000018000ed90 f i bento_sdk:allocator.obj
 0001:0000dd90       ??_EIAllocator@bento@@UEAAPEAXI@Z 000000018000ed90 f i bento_sdk:allocator.obj
 0001:0000ddc0       ??0SystemLogger@bento@@QEAA@XZ 000000018000edc0 f   bento_sdk:system_logger.obj
 0001:0000ddd0       ??1ILogger@bento@@UEAA@XZ  000000018000edd0 f i bento_sdk:system_logger.obj
 0001:0000dde0       ??1SystemLogger@bento@@UEAA@XZ 000000018000ede0 f   bento_sdk:system_logger.obj
 0001:0000ddf0       ??_GILogger@bento@@UEAAPEAXI@Z 000000018000edf0 f i bento_sdk:system_logger.obj
 0001:0000ddf0       ??_EILogger@bento@@UEAAPEAXI@Z 000000018000edf0 f i bento_sdk:system_logger.obj
 0001:0000de20       ??_ESystemLogger@bento@@UEAAPEAXI@Z 000000018000ee20 f i bento_sdk:system_logger.obj
 0001:0000de20       ??_GSystemLogger@bento@@UEAAPEAXI@Z 000000018000ee20 f i bento_sdk:system_logger.obj
 0001:0000de50       ?level_to_string@bento@@YAPEBDW4Type@LogLevel@1@@Z 000000018000ee50 f   bento_sdk:system_logger.obj
 0001:0000de90       ?log@SystemLogger@bento@@UEAAXW4Type@LogLevel@2@PEBD1@Z 000000018000ee90 f   bento_sdk:system_logger.obj
 0001:0000df37       clGetPlatformIDs           000000018000ef37 f   OpenCL:OpenCL.dll
 0001:0000df3d       clGetDeviceIDs             000000018000ef3d f   OpenCL:OpenCL.dll
 0001:0000df43       clGetDeviceInfo            000000018000ef43 f   OpenCL:OpenCL.dll
 0001:0000df49       clCreateContext            000000018000ef49 f   OpenCL:OpenCL.dll
 0001:0000df4f       clReleaseContext           000000018000ef4f f   OpenCL:OpenCL.dll
 0001:0000df55       clCreateCommandQueueWithProperties 000000018000ef55 f   OpenCL:OpenCL.dll
 0001:0000df5b       clReleaseCommandQueue      000000018000ef5b f   OpenCL:OpenCL.dll
 0001:0000df61       clCreateBuffer             000000018000ef61 f   OpenCL:OpenCL.dll
 0001:0000df67       clReleaseMemObject         000000018000ef67 f   OpenCL:OpenCL.dll
 0001:0000df6d       clCreateProgramWithSource  000000018000ef6d f   OpenCL:OpenCL.dll
 0001:0000df73       clReleaseProgram           000000018000ef73 f   OpenCL:OpenCL.dll
 0001:0000df79       clBuildProgram             000000018000ef79 f   OpenCL:OpenCL.dll
 0001:0000df7f       clGetProgramBuildInfo      000000018000ef7f f   OpenCL:OpenCL.dll
 0001:0000df85       clCreateKernel             000000018000ef85 f   OpenCL:OpenCL.dll
 0001:0000df8b       clReleaseKernel            000000018000ef8b f   OpenCL:OpenCL.dll
 0001:0000df91       clSetKernelArg             000000018000ef91 f   OpenCL:OpenCL.dll
 0001:0000df97       clFinish                   000000018000ef97 f   OpenCL:OpenCL.dll
 0001:0000df9d       clEnqueueReadBuffer        000000018000ef9d f   OpenCL:OpenCL.dll
 0001:0000dfa3       clEnqueueWriteBuffer       000000018000efa3 f   OpenCL:OpenCL.dll
 0001:0000dfa9       clEnqueueNDRangeKernel     000000018000efa9 f   OpenCL:OpenCL.dll
 0001:0000dfaf       ?_Xbad_alloc@std@@YAXXZ    000000018000efaf f   msvcprt:MSVCP140.dll
 0001:0000dfb5       _Mbrtowc                   000000018000efb5 f   msvcprt:MSVCP140.dll
 0001:0000dfbb       ?_Getcvt@_Locinfo@std@@QEBA?AU_Cvtvec@@XZ 000000018000efbb f   msvcprt:MSVCP140.dll
 0001:0000dfc1       ?_W_Getdays@_Locinfo@std@@QEBAPEBGXZ 000000018000efc1 f   msvcprt:MSVCP140.dll
 0001:0000dfc7       ?_W_Getmonths@_Locinfo@std@@QEBAPEBGXZ 000000018000efc7 f   msvcprt:MSVCP140.dll
 0001:0000dfcd       ?_Xlength_error@std@@YAXPEBD@Z 000000018000efcd f   msvcprt:MSVCP140.dll
 0001:0000e068       __std_reverse_trivially_swappable_1 000000018000f068 f   msvcprt:vector_algorithms.obj
 0001:0000e144       __std_reverse_trivially_swappable_2 000000018000f144 f   msvcprt:vector_algorithms.obj
 0001:0000e224       __std_reverse_trivially_swappable_4 000000018000f224 f   msvcprt:vector_algorithms.obj
 0001:0000e2e8       __std_reverse_trivially_swappable_8 000000018000f2e8 f   msvcprt:vector_algorithms.obj
 0001:0000e3a2       ?_Xout_of_range@std@@YAXPEBD@Z 000000018000f3a2 f   msvcprt:MSVCP140.dll
 0001:0000e3a8       ??0?$basic_streambuf@DU?$char_traits@D@std@@@std@@IEAA@XZ 000000018000f3a8 f   msvcprt:MSVCP140.dll
 0001:0000e3ae       ??1?$basic_streambuf@DU?$char_traits@D@std@@@std@@UEAA@XZ 000000018000f3ae f   msvcprt:MSVCP140.dll
 0001:0000e3b4       ??1?$basic_ios@DU?$char_traits@D@std@@@std@@UEAA@XZ 000000018000f3b4 f   msvcprt:MSVCP140.dll
 0001:0000e3ba       ??0?$basic_ios@DU?$char_traits@D@std@@@std@@IEAA@XZ 000000018000f3ba f   msvcprt:MSVCP140.dll
 0001:0000e3c0       ??6?$basic_ostream@DU?$char_traits@D@std@@@std@@QEAAAEAV01@P6AAEAVios_base@1@AEAV21@@Z@Z 000000018000f3c0 f   msvcprt:MSVCP140.dll
 0001:0000e3c6       ??6?$basic_ostream@DU?$char_traits@D@std@@@std@@QEAAAEAV01@H@Z 000000018000f3c6 f   msvcprt:MSVCP140.dll
 0001:0000e3cc       ??0?$basic_iostream@DU?$char_traits@D@std@@@std@@QEAA@PEAV?$basic_streambuf@DU?$char_traits@D@std@@@1@@Z 000000018000f3cc f   msvcprt:MSVCP140.dll
 0001:0000e3d2       ??1?$basic_iostream@DU?$char_traits@D@std@@@std@@UEAA@XZ 000000018000f3d2 f   msvcprt:MSVCP140.dll
 0001:0000e3d8       ?setw@std@@YA?AU?$_Smanip@_J@1@_J@Z 000000018000f3d8 f   msvcprt:MSVCP140.dll
 0001:0000e3de       ?_Lock@?$basic_streambuf@DU?$char_traits@D@std@@@std@@UEAAXXZ 000000018000f3de f   msvcprt:MSVCP140.dll
 0001:0000e3e4       ?_Unlock@?$basic_streambuf@DU?$char_traits@D@std@@@std@@UEAAXXZ 000000018000f3e4 f   msvcprt:MSVCP140.dll
 0001:0000e3ea       ?imbue@?$basic_streambuf@DU?$char_traits@D@std@@@std@@MEAAXAEBVlocale@2@@Z 000000018000f3ea f   msvcprt:MSVCP140.dll
 0001:0000e3f0       ?setbuf@?$basic_streambuf@DU?$char_traits@D@std@@@std@@MEAAPEAV12@PEAD_J@Z 000000018000f3f0 f   msvcprt:MSVCP140.dll
 0001:0000e3f6       ?showmanyc@?$basic_streambuf@DU?$char_traits@D@std@@@std@@MEAA_JXZ 000000018000f3f6 f   msvcprt:MSVCP140.dll
 0001:0000e3fc       ?sync@?$basic_streambuf@DU?$char_traits@D@std@@@std@@MEAAHXZ 000000018000f3fc f   msvcprt:MSVCP140.dll
 0001:0000e402       ?uflow@?$basic_streambuf@DU?$char_traits@D@std@@@std@@MEAAHXZ 000000018000f402 f   msvcprt:MSVCP140.dll
 0001:0000e408       ?xsgetn@?$basic_streambuf@DU?$char_traits@D@std@@@std@@MEAA_JPEAD_J@Z 000000018000f408 f   msvcprt:MSVCP140.dll
 0001:0000e40e       ?xsputn@?$basic_streambuf@DU?$char_traits@D@std@@@std@@MEAA_JPEBD_J@Z 000000018000f40e f   msvcprt:MSVCP140.dll
 0001:0000e414       ?sputc@?$basic_streambuf@DU?$char_traits@D@std@@@std@@QEAAHD@Z 000000018000f414 f   msvcprt:MSVCP140.dll
 0001:0000e41a       ?sputn@?$basic_streambuf@DU?$char_traits@D@std@@@std@@QEAA_JPEBD_J@Z 000000018000f41a f   msvcprt:MSVCP140.dll
 0001:0000e420       ?setstate@?$basic_ios@DU?$char_traits@D@std@@@std@@QEAAXH_N@Z 000000018000f420 f   msvcprt:MSVCP140.dll
 0001:0000e426       ?_Osfx@?$basic_ostream@DU?$char_traits@D@std@@@std@@QEAAXXZ 000000018000f426 f   msvcprt:MSVCP140.dll
 0001:0000e42c       ??6?$basic_ostream@DU?$char_traits@D@std@@@std@@QEAAAEAV01@M@Z 000000018000f42c f   msvcprt:MSVCP140.dll
 0001:0000e432       ?flush@?$basic_ostream@DU?$char_traits@D@std@@@std@@QEAAAEAV12@XZ 000000018000f432 f   msvcprt:MSVCP140.dll
 0001:0000e438       ??$__crt_fast_decode_pointer@PEAP6AXXZ@@YAPEAP6AXXZQEAP6AXXZ@Z 000000018000f438 f i MSVCRT:utility.obj
 0001:0000e450       ??$__crt_fast_encode_pointer@PEAP6AXXZ@@YAPEAP6AXXZQEAP6AXXZ@Z 000000018000f450 f i MSVCRT:utility.obj
 0001:0000e470       ?__crt_rotate_pointer_value@@YA_K_KH@Z 000000018000f470 f i MSVCRT:utility.obj
 0001:0000e47c       ?configure_argv@__scrt_narrow_argv_policy@@SAHXZ 000000018000f47c f i MSVCRT:utility.obj
 0001:0000e4dc       ?initialize_environment@__scrt_narrow_environment_policy@@SAHXZ 000000018000f4dc f i MSVCRT:utility.obj
 0001:0000e514       NtCurrentTeb               000000018000f514 f i MSVCRT:utility.obj
 0001:0000e520       __scrt_acquire_startup_lock 000000018000f520 f   MSVCRT:utility.obj
 0001:0000e55c       __scrt_dllmain_after_initialize_c 000000018000f55c f   MSVCRT:utility.obj
 0001:0000e590       __scrt_dllmain_before_initialize_c 000000018000f590 f   MSVCRT:utility.obj
 0001:0000e5a8       __scrt_dllmain_crt_thread_attach 000000018000f5a8 f   MSVCRT:utility.obj
 0001:0000e5d0       __scrt_dllmain_crt_thread_detach 000000018000f5d0 f   MSVCRT:utility.obj
 0001:0000e5e8       __scrt_dllmain_exception_filter 000000018000f5e8 f   MSVCRT:utility.obj
 0001:0000e64c       __scrt_dllmain_uninitialize_c 000000018000f64c f   MSVCRT:utility.obj
 0001:0000e67c       __scrt_dllmain_uninitialize_critical 000000018000f67c f   MSVCRT:utility.obj
 0001:0000e690       __scrt_initialize_crt      000000018000f690 f   MSVCRT:utility.obj
 0001:0000e6dc       __scrt_initialize_onexit_tables 000000018000f6dc f   MSVCRT:utility.obj
 0001:0000e7bc       __scrt_is_nonwritable_in_current_image 000000018000f7bc f   MSVCRT:utility.obj
 0001:0000e858       __scrt_release_startup_lock 000000018000f858 f   MSVCRT:utility.obj
 0001:0000e87c       __scrt_uninitialize_crt    000000018000f87c f   MSVCRT:utility.obj
 0001:0000e8a8       _onexit                    000000018000f8a8 f   MSVCRT:utility.obj
 0001:0000e8f8       at_quick_exit              000000018000f8f8 f   MSVCRT:utility.obj
 0001:0000e930       atexit                     000000018000f930 f   MSVCRT:utility.obj
 0001:0000e948       __GSHandlerCheck           000000018000f948 f   MSVCRT:_gshandler_.obj
 0001:0000e968       __GSHandlerCheckCommon     000000018000f968 f   MSVCRT:_gshandler_.obj
 0001:0000e9e0       __security_check_cookie    000000018000f9e0 f   MSVCRT:_amdsecgs_.obj
 0001:0000ed9c       _CRT_INIT                  000000018000fd9c f   MSVCRT:dll_dllmain.obj
 0001:0000eda4       _DllMainCRTStartup         000000018000fda4 f   MSVCRT:dll_dllmain.obj
 0001:0000ede4       ??3@YAXPEAX_K@Z            000000018000fde4 f   MSVCRT:delete_scalar_size.obj
 0001:0000edec       ??2@YAPEAX_K@Z             000000018000fdec f   MSVCRT:new_scalar.obj
 0001:0000ee28       ??_M@YAXPEAX_K1P6AX0@Z@Z   000000018000fe28 f   MSVCRT:ehvecdtr.obj
 0001:0000ee94       ??_M@YAXPEAX_KHP6AX0@Z@Z   000000018000fe94 f   MSVCRT:ehvecdtr.obj
 0001:0000eeb8       ?__ArrayUnwind@@YAXPEAX_K1P6AX0@Z@Z 000000018000feb8 f   MSVCRT:ehvecdtr.obj
 0001:0000ef1c       __GSHandlerCheck_EH        000000018000ff1c f   MSVCRT:gshandlereh.obj
 0001:0000ef9c       ??1type_info@@UEAA@XZ      000000018000ff9c f   MSVCRT:std_type_info_static.obj
 0001:0000efa8       ??_Etype_info@@UEAAPEAXI@Z 000000018000ffa8 f i MSVCRT:std_type_info_static.obj
 0001:0000efa8       ??_Gtype_info@@UEAAPEAXI@Z 000000018000ffa8 f i MSVCRT:std_type_info_static.obj
 0001:0000efe0       __vdecl_sinf4              000000018000ffe0 f   MSVCRT:_svml_ssinf4_dispatch_.obj
 0001:0000eff0       __libm_sse2_sincosf_       000000018000fff0 f   MSVCRT:_svml_ssinf4_dispatch_.obj
 0001:0000f036       __libm_sse2_sincosf4_      0000000180010036 f   MSVCRT:_svml_ssinf4_dispatch_.obj
 0001:0000f048       __isa_available_init       0000000180010048 f   MSVCRT:_cpu_disp_.obj
 0001:0000f204       _get_startup_argv_mode     0000000180010204 f   MSVCRT:argv_mode.obj
 0001:0000f20c       __scrt_is_ucrt_dll_in_use  000000018001020c f   MSVCRT:ucrt_detection.obj
 0001:0000f218       __crt_debugger_hook        0000000180010218 f   MSVCRT:utility_desktop.obj
 0001:0000f220       __scrt_fastfail            0000000180010220 f   MSVCRT:utility_desktop.obj
 0001:0000f36c       __scrt_get_show_window_mode 000000018001036c f   MSVCRT:utility_desktop.obj
 0001:0000f3a8       __scrt_initialize_winrt    00000001800103a8 f   MSVCRT:utility_desktop.obj
 0001:0000f3ac       __scrt_is_managed_app      00000001800103ac f   MSVCRT:utility_desktop.obj
 0001:0000f400       __scrt_set_unhandled_exception_filter 0000000180010400 f   MSVCRT:utility_desktop.obj
 0001:0000f410       __scrt_unhandled_exception_filter 0000000180010410 f   MSVCRT:utility_desktop.obj
 0001:0000f448       _guard_check_icall         0000000180010448 f i MSVCRT:checkcfg.obj
 0001:0000f450       __raise_securityfailure    0000000180010450 f   MSVCRT:gs_report.obj
 0001:0000f484       __report_gsfailure         0000000180010484 f   MSVCRT:gs_report.obj
 0001:0000f558       __report_rangecheckfailure 0000000180010558 f   MSVCRT:gs_report.obj
 0001:0000f56c       __report_securityfailure   000000018001056c f   MSVCRT:gs_report.obj
 0001:0000f608       __report_securityfailureEx 0000000180010608 f   MSVCRT:gs_report.obj
 0001:0000f868       __security_init_cookie     0000000180010868 f   MSVCRT:gs_support.obj
 0001:0000f918       DllMain                    0000000180010918 f   MSVCRT:dll_dllmain_stub.obj
 0001:0000f93c       ?__scrt_initialize_type_info@@YAXXZ 000000018001093c f   MSVCRT:tncleanup.obj
 0001:0000f94c       ?__scrt_uninitialize_type_info@@YAXXZ 000000018001094c f   MSVCRT:tncleanup.obj
 0001:0000f958       __local_stdio_scanf_options 0000000180010958 f i MSVCRT:default_local_stdio_options.obj
 0001:0000f960       __scrt_initialize_default_local_stdio_options 0000000180010960 f   MSVCRT:default_local_stdio_options.obj
 0001:0000f97c       __scrt_get_dyn_tls_init_callback 000000018001097c f   MSVCRT:dyn_tls_init.obj
 0001:0000f984       _RTC_Initialize            0000000180010984 f   MSVCRT:_initsect_.obj
 0001:0000f9d0       _RTC_Terminate             00000001800109d0 f   MSVCRT:_initsect_.obj
 0001:0000fa1c       ??3@YAXPEAX@Z              0000000180010a1c f   MSVCRT:delete_scalar.obj
 0001:0000fa24       ??0bad_alloc@std@@AEAA@QEBD@Z 0000000180010a24 f i MSVCRT:throw_bad_alloc.obj
 0001:0000fa3c       ??0bad_alloc@std@@QEAA@AEBV01@@Z 0000000180010a3c f i MSVCRT:throw_bad_alloc.obj
 0001:0000fa7c       ??0bad_alloc@std@@QEAA@XZ  0000000180010a7c f i MSVCRT:throw_bad_alloc.obj
 0001:0000fa9c       ??0bad_array_new_length@std@@QEAA@AEBV01@@Z 0000000180010a9c f i MSVCRT:throw_bad_alloc.obj
 0001:0000fadc       ??0bad_array_new_length@std@@QEAA@XZ 0000000180010adc f i MSVCRT:throw_bad_alloc.obj
 0001:0000fafc       ??0exception@std@@QEAA@AEBV01@@Z 0000000180010afc f i MSVCRT:throw_bad_alloc.obj
 0001:0000fb34       ??0exception@std@@QEAA@QEBDH@Z 0000000180010b34 f i MSVCRT:throw_bad_alloc.obj
 0001:0000fb4c       ??1bad_alloc@std@@UEAA@XZ  0000000180010b4c f i MSVCRT:throw_bad_alloc.obj
 0001:0000fb60       ??1bad_array_new_length@std@@UEAA@XZ 0000000180010b60 f i MSVCRT:throw_bad_alloc.obj
 0001:0000fb74       ??1exception@std@@UEAA@XZ  0000000180010b74 f i MSVCRT:throw_bad_alloc.obj
 0001:0000fb88       ??_Ebad_alloc@std@@UEAAPEAXI@Z 0000000180010b88 f i MSVCRT:throw_bad_alloc.obj
 0001:0000fb88       ??_Gbad_alloc@std@@UEAAPEAXI@Z 0000000180010b88 f i MSVCRT:throw_bad_alloc.obj
 0001:0000fbcc       ??_Ebad_array_new_length@std@@UEAAPEAXI@Z 0000000180010bcc f i MSVCRT:throw_bad_alloc.obj
 0001:0000fbcc       ??_Gbad_array_new_length@std@@UEAAPEAXI@Z 0000000180010bcc f i MSVCRT:throw_bad_alloc.obj
 0001:0000fc10       ??_Gexception@std@@UEAAPEAXI@Z 0000000180010c10 f i MSVCRT:throw_bad_alloc.obj
 0001:0000fc10       ??_Eexception@std@@UEAAPEAXI@Z 0000000180010c10 f i MSVCRT:throw_bad_alloc.obj
 0001:0000fc54       ?__scrt_throw_std_bad_alloc@@YAXXZ 0000000180010c54 f   MSVCRT:throw_bad_alloc.obj
 0001:0000fc74       ?__scrt_throw_std_bad_array_new_length@@YAXXZ 0000000180010c74 f   MSVCRT:throw_bad_alloc.obj
 0001:0000fc94       ?what@exception@std@@UEBAPEBDXZ 0000000180010c94 f i MSVCRT:throw_bad_alloc.obj
 0001:0000fcb0       __sse2_sinf4               0000000180010cb0 f   MSVCRT:_svml_ssinf4_sse2_.obj
 0001:00010570       _guard_check_icall_nop     0000000180011570 f i MSVCRT:guard_support.obj
 0001:00010574       ReadNoFence64              0000000180011574 f i MSVCRT:guard_support.obj
 0001:00010578       ReadPointerNoFence         0000000180011578 f i MSVCRT:guard_support.obj
 0001:0001057c       __guard_ss_common_verify_stub 000000018001157c f i MSVCRT:guard_support.obj
 0001:00010580       _guard_icall_checks_enforced 0000000180011580 f i MSVCRT:guard_support.obj
 0001:00010598       _guard_rf_checks_enforced  0000000180011598 f i MSVCRT:guard_support.obj
 0001:000105b0       __CxxFrameHandler3         00000001800115b0 f   vcruntime:VCRUNTIME140.dll
 0001:000105b6       __std_terminate            00000001800115b6 f   vcruntime:VCRUNTIME140.dll
 0001:000105bc       memcpy                     00000001800115bc f   vcruntime:VCRUNTIME140.dll
 0001:000105c2       memset                     00000001800115c2 f   vcruntime:VCRUNTIME140.dll
 0001:000105c8       _purecall                  00000001800115c8 f   vcruntime:VCRUNTIME140.dll
 0001:000105ce       memmove                    00000001800115ce f   vcruntime:VCRUNTIME140.dll
 0001:000105d4       _CxxThrowException         00000001800115d4 f   vcruntime:VCRUNTIME140.dll
 0001:000105da       memcmp                     00000001800115da f   vcruntime:VCRUNTIME140.dll
 0001:000105e0       __C_specific_handler       00000001800115e0 f   vcruntime:VCRUNTIME140.dll
 0001:000105e6       __std_type_info_destroy_list 00000001800115e6 f   vcruntime:VCRUNTIME140.dll
 0001:000105ec       __std_exception_copy       00000001800115ec f   vcruntime:VCRUNTIME140.dll
 0001:000105f2       __std_exception_destroy    00000001800115f2 f   vcruntime:VCRUNTIME140.dll
 0001:000105f8       calloc                     00000001800115f8 f   ucrt:api-ms-win-crt-heap-l1-1-0.dll
 0001:000105fe       _invalid_parameter_noinfo_noreturn 00000001800115fe f   ucrt:api-ms-win-crt-runtime-l1-1-0.dll
 0001:00010604       tanf                       0000000180011604 f   ucrt:api-ms-win-crt-math-l1-1-0.dll
 0001:0001060a       _aligned_free              000000018001160a f   ucrt:api-ms-win-crt-heap-l1-1-0.dll
 0001:00010610       _aligned_malloc            0000000180011610 f   ucrt:api-ms-win-crt-heap-l1-1-0.dll
 0001:00010616       tolower                    0000000180011616 f   ucrt:api-ms-win-crt-string-l1-1-0.dll
 0001:0001061c       _invoke_watson             000000018001161c f   ucrt:api-ms-win-crt-runtime-l1-1-0.dll
 0001:00010622       _dsign                     0000000180011622 f   ucrt:api-ms-win-crt-math-l1-1-0.dll
 0001:00010628       _dtest                     0000000180011628 f   ucrt:api-ms-win-crt-math-l1-1-0.dll
 0001:0001062e       __stdio_common_vsprintf    000000018001162e f   ucrt:api-ms-win-crt-stdio-l1-1-0.dll
 0001:00010634       localeconv                 0000000180011634 f   ucrt:api-ms-win-crt-locale-l1-1-0.dll
 0001:0001063a       _set_errno                 000000018001163a f   ucrt:api-ms-win-crt-runtime-l1-1-0.dll
 0001:00010640       free                       0000000180011640 f   ucrt:api-ms-win-crt-heap-l1-1-0.dll
 0001:00010646       malloc                     0000000180011646 f   ucrt:api-ms-win-crt-heap-l1-1-0.dll
 0001:0001064c       mbstowcs_s                 000000018001164c f   ucrt:api-ms-win-crt-convert-l1-1-0.dll
 0001:00010652       wcstombs_s                 0000000180011652 f   ucrt:api-ms-win-crt-convert-l1-1-0.dll
 0001:00010658       fclose                     0000000180011658 f   ucrt:api-ms-win-crt-stdio-l1-1-0.dll
 0001:0001065e       fopen                      000000018001165e f   ucrt:api-ms-win-crt-stdio-l1-1-0.dll
 0001:00010664       fread                      0000000180011664 f   ucrt:api-ms-win-crt-stdio-l1-1-0.dll
 0001:0001066a       fseek                      000000018001166a f   ucrt:api-ms-win-crt-stdio-l1-1-0.dll
 0001:00010670       ftell                      0000000180011670 f   ucrt:api-ms-win-crt-stdio-l1-1-0.dll
 0001:00010676       fwrite                     0000000180011676 f   ucrt:api-ms-win-crt-stdio-l1-1-0.dll
 0001:0001067c       _stat64i32                 000000018001167c f   ucrt:api-ms-win-crt-filesystem-l1-1-0.dll
 0001:00010682       cosf                       0000000180011682 f   ucrt:api-ms-win-crt-math-l1-1-0.dll
 0001:00010688       sinf                       0000000180011688 f   ucrt:api-ms-win-crt-math-l1-1-0.dll
 0001:0001068e       _seh_filter_dll            000000018001168e f   ucrt:api-ms-win-crt-runtime-l1-1-0.dll
 0001:00010694       _configure_narrow_argv     0000000180011694 f   ucrt:api-ms-win-crt-runtime-l1-1-0.dll
 0001:0001069a       _initialize_narrow_environment 000000018001169a f   ucrt:api-ms-win-crt-runtime-l1-1-0.dll
 0001:000106a0       _initialize_onexit_table   00000001800116a0 f   ucrt:api-ms-win-crt-runtime-l1-1-0.dll
 0001:000106a6       _register_onexit_function  00000001800116a6 f   ucrt:api-ms-win-crt-runtime-l1-1-0.dll
 0001:000106ac       _execute_onexit_table      00000001800116ac f   ucrt:api-ms-win-crt-runtime-l1-1-0.dll
 0001:000106b2       _crt_atexit                00000001800116b2 f   ucrt:api-ms-win-crt-runtime-l1-1-0.dll
 0001:000106b8       _crt_at_quick_exit         00000001800116b8 f   ucrt:api-ms-win-crt-runtime-l1-1-0.dll
 0001:000106be       _cexit                     00000001800116be f   ucrt:api-ms-win-crt-runtime-l1-1-0.dll
 0001:000106c4       _initterm                  00000001800116c4 f   ucrt:api-ms-win-crt-runtime-l1-1-0.dll
 0001:000106ca       _initterm_e                00000001800116ca f   ucrt:api-ms-win-crt-runtime-l1-1-0.dll
 0001:000106d0       _callnewh                  00000001800116d0 f   ucrt:api-ms-win-crt-heap-l1-1-0.dll
 0001:000106d6       terminate                  00000001800116d6 f   ucrt:api-ms-win-crt-runtime-l1-1-0.dll
 0001:000106dc       FindClose                  00000001800116dc f   kernel32:KERNEL32.dll
 0001:000106e2       FindFirstFileW             00000001800116e2 f   kernel32:KERNEL32.dll
 0001:000106e8       FindNextFileW              00000001800116e8 f   kernel32:KERNEL32.dll
 0001:000106ee       GetFullPathNameW           00000001800116ee f   kernel32:KERNEL32.dll
 0001:000106f4       RtlCaptureContext          00000001800116f4 f   kernel32:KERNEL32.dll
 0001:000106fa       RtlLookupFunctionEntry     00000001800116fa f   kernel32:KERNEL32.dll
 0001:00010700       RtlVirtualUnwind           0000000180011700 f   kernel32:KERNEL32.dll
 0001:00010706       IsDebuggerPresent          0000000180011706 f   kernel32:KERNEL32.dll
 0001:0001070c       UnhandledExceptionFilter   000000018001170c f   kernel32:KERNEL32.dll
 0001:00010712       SetUnhandledExceptionFilter 0000000180011712 f   kernel32:KERNEL32.dll
 0001:00010718       GetStartupInfoW            0000000180011718 f   kernel32:KERNEL32.dll
 0001:0001071e       IsProcessorFeaturePresent  000000018001171e f   kernel32:KERNEL32.dll
 0001:00010724       GetModuleHandleW           0000000180011724 f   kernel32:KERNEL32.dll
 0001:0001072a       GetCurrentProcess          000000018001172a f   kernel32:KERNEL32.dll
 0001:00010730       TerminateProcess           0000000180011730 f   kernel32:KERNEL32.dll
 0001:00010736       QueryPerformanceCounter    0000000180011736 f   kernel32:KERNEL32.dll
 0001:0001073c       GetCurrentProcessId        000000018001173c f   kernel32:KERNEL32.dll
 0001:00010742       GetCurrentThreadId         0000000180011742 f   kernel32:KERNEL32.dll
 0001:00010748       GetSystemTimeAsFileTime    0000000180011748 f   kernel32:KERNEL32.dll
 0001:0001074e       DisableThreadLibraryCalls  000000018001174e f   kernel32:KERNEL32.dll
 0001:00010754       InitializeSListHead        0000000180011754 f   kernel32:KERNEL32.dll
 0001:0001075c       __acrt_initialize          000000018001175c f   MSVCRT:ucrt_stubs.obj
 0001:0001075c       __scrt_stub_for_acrt_initialize 000000018001175c f   MSVCRT:ucrt_stubs.obj
 0001:0001075c       __vcrt_initialize          000000018001175c f   MSVCRT:ucrt_stubs.obj
 0001:00010760       __acrt_thread_attach       0000000180011760 f   MSVCRT:ucrt_stubs.obj
 0001:00010760       __vcrt_thread_attach       0000000180011760 f   MSVCRT:ucrt_stubs.obj
 0001:00010760       __scrt_stub_for_acrt_thread_attach 0000000180011760 f   MSVCRT:ucrt_stubs.obj
 0001:00010764       __acrt_thread_detach       0000000180011764 f   MSVCRT:ucrt_stubs.obj
 0001:00010764       __vcrt_thread_detach       0000000180011764 f   MSVCRT:ucrt_stubs.obj
 0001:00010764       __scrt_stub_for_acrt_thread_detach 0000000180011764 f   MSVCRT:ucrt_stubs.obj
 0001:00010768       __acrt_uninitialize        0000000180011768 f   MSVCRT:ucrt_stubs.obj
 0001:00010768       __vcrt_uninitialize        0000000180011768 f   MSVCRT:ucrt_stubs.obj
 0001:00010768       __scrt_stub_for_acrt_uninitialize 0000000180011768 f   MSVCRT:ucrt_stubs.obj
 0001:0001076c       __scrt_stub_for_acrt_uninitialize_critical 000000018001176c f   MSVCRT:ucrt_stubs.obj
 0001:0001076c       __vcrt_uninitialize_critical 000000018001176c f   MSVCRT:ucrt_stubs.obj
 0001:0001076c       __acrt_uninitialize_critical 000000018001176c f   MSVCRT:ucrt_stubs.obj
 0001:00010770       __scrt_stub_for_is_c_termination_complete 0000000180011770 f   MSVCRT:ucrt_stubs.obj
 0001:00010770       _is_c_termination_complete 0000000180011770 f   MSVCRT:ucrt_stubs.obj
 0001:00010790       _guard_dispatch_icall_nop  0000000180011790 f   MSVCRT:_guard_dispatch_.obj
 0001:000107b0       __guard_ss_verify_failure  00000001800117b0 f   MSVCRT:_rfgfailure_.obj
 0001:000107bb       __guard_ss_verify_failure_rcx 00000001800117bb     MSVCRT:_rfgfailure_.obj
 0001:000107c1       __guard_ss_verify_failure_rdx 00000001800117c1     MSVCRT:_rfgfailure_.obj
 0001:000107c7       __guard_ss_verify_failure_r8 00000001800117c7     MSVCRT:_rfgfailure_.obj
 0001:000107cd       __guard_ss_verify_failure_r9 00000001800117cd     MSVCRT:_rfgfailure_.obj
 0001:000107d3       __guard_ss_verify_failure_r10 00000001800117d3     MSVCRT:_rfgfailure_.obj
 0001:000107e0       __guard_ss_verify_failure_default 00000001800117e0 f   MSVCRT:_rfgfailure_.obj
 0001:00010840       __guard_ss_verify_sp       0000000180011840 f   MSVCRT:_rfgfailure_.obj
 0001:00010850       __guard_ss_verify_sp_default 0000000180011850 f   MSVCRT:_rfgfailure_.obj
 0002:00000000       __imp_FindClose            0000000180013000     kernel32:KERNEL32.dll
 0002:00000008       __imp_FindFirstFileW       0000000180013008     kernel32:KERNEL32.dll
 0002:00000010       __imp_FindNextFileW        0000000180013010     kernel32:KERNEL32.dll
 0002:00000018       __imp_GetFullPathNameW     0000000180013018     kernel32:KERNEL32.dll
 0002:00000020       __imp_RtlCaptureContext    0000000180013020     kernel32:KERNEL32.dll
 0002:00000028       __imp_RtlLookupFunctionEntry 0000000180013028     kernel32:KERNEL32.dll
 0002:00000030       __imp_RtlVirtualUnwind     0000000180013030     kernel32:KERNEL32.dll
 0002:00000038       __imp_IsDebuggerPresent    0000000180013038     kernel32:KERNEL32.dll
 0002:00000040       __imp_UnhandledExceptionFilter 0000000180013040     kernel32:KERNEL32.dll
 0002:00000048       __imp_SetUnhandledExceptionFilter 0000000180013048     kernel32:KERNEL32.dll
 0002:00000050       __imp_GetStartupInfoW      0000000180013050     kernel32:KERNEL32.dll
 0002:00000058       __imp_IsProcessorFeaturePresent 0000000180013058     kernel32:KERNEL32.dll
 0002:00000060       __imp_GetModuleHandleW     0000000180013060     kernel32:KERNEL32.dll
 0002:00000068       __imp_GetCurrentProcess    0000000180013068     kernel32:KERNEL32.dll
 0002:00000070       __imp_TerminateProcess     0000000180013070     kernel32:KERNEL32.dll
 0002:00000078       __imp_QueryPerformanceCounter 0000000180013078     kernel32:KERNEL32.dll
 0002:00000080       __imp_GetCurrentProcessId  0000000180013080     kernel32:KERNEL32.dll
 0002:00000088       __imp_GetCurrentThreadId   0000000180013088     kernel32:KERNEL32.dll
 0002:00000090       __imp_GetSystemTimeAsFileTime 0000000180013090     kernel32:KERNEL32.dll
 0002:00000098       __imp_DisableThreadLibraryCalls 0000000180013098     kernel32:KERNEL32.dll
 0002:000000a0       __imp_InitializeSListHead  00000001800130a0     kernel32:KERNEL32.dll
 0002:000000a8       \177KERNEL32_NULL_THUNK_DATA 00000001800130a8     kernel32:KERNEL32.dll
 0002:000000b0       __imp__Mbrtowc             00000001800130b0     msvcprt:MSVCP140.dll
 0002:000000b8       __imp_?_Getcvt@_Locinfo@std@@QEBA?AU_Cvtvec@@XZ 00000001800130b8     msvcprt:MSVCP140.dll
 0002:000000c0       __imp_?_W_Getdays@_Locinfo@std@@QEBAPEBGXZ 00000001800130c0     msvcprt:MSVCP140.dll
 0002:000000c8       __imp_?_W_Getmonths@_Locinfo@std@@QEBAPEBGXZ 00000001800130c8     msvcprt:MSVCP140.dll
 0002:000000d0       __imp_?_Xlength_error@std@@YAXPEBD@Z 00000001800130d0     msvcprt:MSVCP140.dll
 0002:000000d8       __imp_?_Xout_of_range@std@@YAXPEBD@Z 00000001800130d8     msvcprt:MSVCP140.dll
 0002:000000e0       __imp_??0?$basic_streambuf@DU?$char_traits@D@std@@@std@@IEAA@XZ 00000001800130e0     msvcprt:MSVCP140.dll
 0002:000000e8       __imp_??1?$basic_streambuf@DU?$char_traits@D@std@@@std@@UEAA@XZ 00000001800130e8     msvcprt:MSVCP140.dll
 0002:000000f0       __imp_??1?$basic_ios@DU?$char_traits@D@std@@@std@@UEAA@XZ 00000001800130f0     msvcprt:MSVCP140.dll
 0002:000000f8       __imp_??0?$basic_ios@DU?$char_traits@D@std@@@std@@IEAA@XZ 00000001800130f8     msvcprt:MSVCP140.dll
 0002:00000100       __imp_??6?$basic_ostream@DU?$char_traits@D@std@@@std@@QEAAAEAV01@P6AAEAVios_base@1@AEAV21@@Z@Z 0000000180013100     msvcprt:MSVCP140.dll
 0002:00000108       __imp_??6?$basic_ostream@DU?$char_traits@D@std@@@std@@QEAAAEAV01@H@Z 0000000180013108     msvcprt:MSVCP140.dll
 0002:00000110       __imp_??0?$basic_iostream@DU?$char_traits@D@std@@@std@@QEAA@PEAV?$basic_streambuf@DU?$char_traits@D@std@@@1@@Z 0000000180013110     msvcprt:MSVCP140.dll
 0002:00000118       __imp_??1?$basic_iostream@DU?$char_traits@D@std@@@std@@UEAA@XZ 0000000180013118     msvcprt:MSVCP140.dll
 0002:00000120       __imp_?setw@std@@YA?AU?$_Smanip@_J@1@_J@Z 0000000180013120     msvcprt:MSVCP140.dll
 0002:00000128       __imp_?_Lock@?$basic_streambuf@DU?$char_traits@D@std@@@std@@UEAAXXZ 0000000180013128     msvcprt:MSVCP140.dll
 0002:00000130       __imp_?_Xbad_alloc@std@@YAXXZ 0000000180013130     msvcprt:MSVCP140.dll
 0002:00000138       __imp_?imbue@?$basic_streambuf@DU?$char_traits@D@std@@@std@@MEAAXAEBVlocale@2@@Z 0000000180013138     msvcprt:MSVCP140.dll
 0002:00000140       __imp_?setbuf@?$basic_streambuf@DU?$char_traits@D@std@@@std@@MEAAPEAV12@PEAD_J@Z 0000000180013140     msvcprt:MSVCP140.dll
 0002:00000148       __imp_?showmanyc@?$basic_streambuf@DU?$char_traits@D@std@@@std@@MEAA_JXZ 0000000180013148     msvcprt:MSVCP140.dll
 0002:00000150       __imp_?sync@?$basic_streambuf@DU?$char_traits@D@std@@@std@@MEAAHXZ 0000000180013150     msvcprt:MSVCP140.dll
 0002:00000158       __imp_?uflow@?$basic_streambuf@DU?$char_traits@D@std@@@std@@MEAAHXZ 0000000180013158     msvcprt:MSVCP140.dll
 0002:00000160       __imp_?xsgetn@?$basic_streambuf@DU?$char_traits@D@std@@@std@@MEAA_JPEAD_J@Z 0000000180013160     msvcprt:MSVCP140.dll
 0002:00000168       __imp_?xsputn@?$basic_streambuf@DU?$char_traits@D@std@@@std@@MEAA_JPEBD_J@Z 0000000180013168     msvcprt:MSVCP140.dll
 0002:00000170       __imp_?_BADOFF@std@@3_JB   0000000180013170     msvcprt:MSVCP140.dll
 0002:00000178       __imp_?sputc@?$basic_streambuf@DU?$char_traits@D@std@@@std@@QEAAHD@Z 0000000180013178     msvcprt:MSVCP140.dll
 0002:00000180       __imp_?sputn@?$basic_streambuf@DU?$char_traits@D@std@@@std@@QEAA_JPEBD_J@Z 0000000180013180     msvcprt:MSVCP140.dll
 0002:00000188       __imp_?setstate@?$basic_ios@DU?$char_traits@D@std@@@std@@QEAAXH_N@Z 0000000180013188     msvcprt:MSVCP140.dll
 0002:00000190       __imp_?_Osfx@?$basic_ostream@DU?$char_traits@D@std@@@std@@QEAAXXZ 0000000180013190     msvcprt:MSVCP140.dll
 0002:00000198       __imp_??6?$basic_ostream@DU?$char_traits@D@std@@@std@@QEAAAEAV01@M@Z 0000000180013198     msvcprt:MSVCP140.dll
 0002:000001a0       __imp_?flush@?$basic_ostream@DU?$char_traits@D@std@@@std@@QEAAAEAV12@XZ 00000001800131a0     msvcprt:MSVCP140.dll
 0002:000001a8       __imp_?cout@std@@3V?$basic_ostream@DU?$char_traits@D@std@@@1@A 00000001800131a8     msvcprt:MSVCP140.dll
 0002:000001b0       __imp_?_Unlock@?$basic_streambuf@DU?$char_traits@D@std@@@std@@UEAAXXZ 00000001800131b0     msvcprt:MSVCP140.dll
 0002:000001b8       \177MSVCP140_NULL_THUNK_DATA 00000001800131b8     msvcprt:MSVCP140.dll
 0002:000001c0       __imp_clEnqueueWriteBuffer 00000001800131c0     OpenCL:OpenCL.dll
 0002:000001c8       __imp_clEnqueueReadBuffer  00000001800131c8     OpenCL:OpenCL.dll
 0002:000001d0       __imp_clFinish             00000001800131d0     OpenCL:OpenCL.dll
 0002:000001d8       __imp_clSetKernelArg       00000001800131d8     OpenCL:OpenCL.dll
 0002:000001e0       __imp_clReleaseKernel      00000001800131e0     OpenCL:OpenCL.dll
 0002:000001e8       __imp_clCreateKernel       00000001800131e8     OpenCL:OpenCL.dll
 0002:000001f0       __imp_clGetProgramBuildInfo 00000001800131f0     OpenCL:OpenCL.dll
 0002:000001f8       __imp_clBuildProgram       00000001800131f8     OpenCL:OpenCL.dll
 0002:00000200       __imp_clReleaseProgram     0000000180013200     OpenCL:OpenCL.dll
 0002:00000208       __imp_clEnqueueNDRangeKernel 0000000180013208     OpenCL:OpenCL.dll
 0002:00000210       __imp_clReleaseMemObject   0000000180013210     OpenCL:OpenCL.dll
 0002:00000218       __imp_clCreateBuffer       0000000180013218     OpenCL:OpenCL.dll
 0002:00000220       __imp_clGetPlatformIDs     0000000180013220     OpenCL:OpenCL.dll
 0002:00000228       __imp_clReleaseCommandQueue 0000000180013228     OpenCL:OpenCL.dll
 0002:00000230       __imp_clCreateCommandQueueWithProperties 0000000180013230     OpenCL:OpenCL.dll
 0002:00000238       __imp_clReleaseContext     0000000180013238     OpenCL:OpenCL.dll
 0002:00000240       __imp_clCreateContext      0000000180013240     OpenCL:OpenCL.dll
 0002:00000248       __imp_clGetDeviceInfo      0000000180013248     OpenCL:OpenCL.dll
 0002:00000250       __imp_clGetDeviceIDs       0000000180013250     OpenCL:OpenCL.dll
 0002:00000258       __imp_clCreateProgramWithSource 0000000180013258     OpenCL:OpenCL.dll
 0002:00000260       \177OpenCL_NULL_THUNK_DATA 0000000180013260     OpenCL:OpenCL.dll
 0002:00000268       __imp_memcmp               0000000180013268     vcruntime:VCRUNTIME140.dll
 0002:00000270       __imp___CxxFrameHandler3   0000000180013270     vcruntime:VCRUNTIME140.dll
 0002:00000278       __imp___std_terminate      0000000180013278     vcruntime:VCRUNTIME140.dll
 0002:00000280       __imp___std_exception_destroy 0000000180013280     vcruntime:VCRUNTIME140.dll
 0002:00000288       __imp___std_exception_copy 0000000180013288     vcruntime:VCRUNTIME140.dll
 0002:00000290       __imp___std_type_info_destroy_list 0000000180013290     vcruntime:VCRUNTIME140.dll
 0002:00000298       __imp___C_specific_handler 0000000180013298     vcruntime:VCRUNTIME140.dll
 0002:000002a0       __imp_memcpy               00000001800132a0     vcruntime:VCRUNTIME140.dll
 0002:000002a8       __imp_memset               00000001800132a8     vcruntime:VCRUNTIME140.dll
 0002:000002b0       __imp__purecall            00000001800132b0     vcruntime:VCRUNTIME140.dll
 0002:000002b8       __imp_memmove              00000001800132b8     vcruntime:VCRUNTIME140.dll
 0002:000002c0       __imp__CxxThrowException   00000001800132c0     vcruntime:VCRUNTIME140.dll
 0002:000002c8       \177VCRUNTIME140_NULL_THUNK_DATA 00000001800132c8     vcruntime:VCRUNTIME140.dll
 0002:000002d0       __imp_wcstombs_s           00000001800132d0     ucrt:api-ms-win-crt-convert-l1-1-0.dll
 0002:000002d8       __imp_mbstowcs_s           00000001800132d8     ucrt:api-ms-win-crt-convert-l1-1-0.dll
 0002:000002e0       \177api-ms-win-crt-convert-l1-1-0_NULL_THUNK_DATA 00000001800132e0     ucrt:api-ms-win-crt-convert-l1-1-0.dll
 0002:000002e8       __imp__stat64i32           00000001800132e8     ucrt:api-ms-win-crt-filesystem-l1-1-0.dll
 0002:000002f0       \177api-ms-win-crt-filesystem-l1-1-0_NULL_THUNK_DATA 00000001800132f0     ucrt:api-ms-win-crt-filesystem-l1-1-0.dll
 0002:000002f8       __imp__aligned_free        00000001800132f8     ucrt:api-ms-win-crt-heap-l1-1-0.dll
 0002:00000300       __imp__aligned_malloc      0000000180013300     ucrt:api-ms-win-crt-heap-l1-1-0.dll
 0002:00000308       __imp_free                 0000000180013308     ucrt:api-ms-win-crt-heap-l1-1-0.dll
 0002:00000310       __imp_malloc               0000000180013310     ucrt:api-ms-win-crt-heap-l1-1-0.dll
 0002:00000318       __imp_calloc               0000000180013318     ucrt:api-ms-win-crt-heap-l1-1-0.dll
 0002:00000320       __imp__callnewh            0000000180013320     ucrt:api-ms-win-crt-heap-l1-1-0.dll
 0002:00000328       \177api-ms-win-crt-heap-l1-1-0_NULL_THUNK_DATA 0000000180013328     ucrt:api-ms-win-crt-heap-l1-1-0.dll
 0002:00000330       __imp_localeconv           0000000180013330     ucrt:api-ms-win-crt-locale-l1-1-0.dll
 0002:00000338       \177api-ms-win-crt-locale-l1-1-0_NULL_THUNK_DATA 0000000180013338     ucrt:api-ms-win-crt-locale-l1-1-0.dll
 0002:00000340       __imp_sinf                 0000000180013340     ucrt:api-ms-win-crt-math-l1-1-0.dll
 0002:00000348       __imp__dtest               0000000180013348     ucrt:api-ms-win-crt-math-l1-1-0.dll
 0002:00000350       __imp__dsign               0000000180013350     ucrt:api-ms-win-crt-math-l1-1-0.dll
 0002:00000358       __imp_cosf                 0000000180013358     ucrt:api-ms-win-crt-math-l1-1-0.dll
 0002:00000360       __imp_tanf                 0000000180013360     ucrt:api-ms-win-crt-math-l1-1-0.dll
 0002:00000368       \177api-ms-win-crt-math-l1-1-0_NULL_THUNK_DATA 0000000180013368     ucrt:api-ms-win-crt-math-l1-1-0.dll
 0002:00000370       __imp__initterm_e          0000000180013370     ucrt:api-ms-win-crt-runtime-l1-1-0.dll
 0002:00000378       __imp__configure_narrow_argv 0000000180013378     ucrt:api-ms-win-crt-runtime-l1-1-0.dll
 0002:00000380       __imp__crt_atexit          0000000180013380     ucrt:api-ms-win-crt-runtime-l1-1-0.dll
 0002:00000388       __imp__execute_onexit_table 0000000180013388     ucrt:api-ms-win-crt-runtime-l1-1-0.dll
 0002:00000390       __imp__set_errno           0000000180013390     ucrt:api-ms-win-crt-runtime-l1-1-0.dll
 0002:00000398       __imp__invoke_watson       0000000180013398     ucrt:api-ms-win-crt-runtime-l1-1-0.dll
 0002:000003a0       __imp__cexit               00000001800133a0     ucrt:api-ms-win-crt-runtime-l1-1-0.dll
 0002:000003a8       __imp__register_onexit_function 00000001800133a8     ucrt:api-ms-win-crt-runtime-l1-1-0.dll
 0002:000003b0       __imp__initialize_onexit_table 00000001800133b0     ucrt:api-ms-win-crt-runtime-l1-1-0.dll
 0002:000003b8       __imp__crt_at_quick_exit   00000001800133b8     ucrt:api-ms-win-crt-runtime-l1-1-0.dll
 0002:000003c0       __imp__invalid_parameter_noinfo_noreturn 00000001800133c0     ucrt:api-ms-win-crt-runtime-l1-1-0.dll
 0002:000003c8       __imp__initialize_narrow_environment 00000001800133c8     ucrt:api-ms-win-crt-runtime-l1-1-0.dll
 0002:000003d0       __imp__initterm            00000001800133d0     ucrt:api-ms-win-crt-runtime-l1-1-0.dll
 0002:000003d8       __imp__seh_filter_dll      00000001800133d8     ucrt:api-ms-win-crt-runtime-l1-1-0.dll
 0002:000003e0       __imp_terminate            00000001800133e0     ucrt:api-ms-win-crt-runtime-l1-1-0.dll
 0002:000003e8       \177api-ms-win-crt-runtime-l1-1-0_NULL_THUNK_DATA 00000001800133e8     ucrt:api-ms-win-crt-runtime-l1-1-0.dll
 0002:000003f0       __imp_ftell                00000001800133f0     ucrt:api-ms-win-crt-stdio-l1-1-0.dll
 0002:000003f8       __imp_fseek                00000001800133f8     ucrt:api-ms-win-crt-stdio-l1-1-0.dll
 0002:00000400       __imp_fread                0000000180013400     ucrt:api-ms-win-crt-stdio-l1-1-0.dll
 0002:00000408       __imp___stdio_common_vsprintf 0000000180013408     ucrt:api-ms-win-crt-stdio-l1-1-0.dll
 0002:00000410       __imp_fclose               0000000180013410     ucrt:api-ms-win-crt-stdio-l1-1-0.dll
 0002:00000418       __imp_fwrite               0000000180013418     ucrt:api-ms-win-crt-stdio-l1-1-0.dll
 0002:00000420       __imp_fopen                0000000180013420     ucrt:api-ms-win-crt-stdio-l1-1-0.dll
 0002:00000428       \177api-ms-win-crt-stdio-l1-1-0_NULL_THUNK_DATA 0000000180013428     ucrt:api-ms-win-crt-stdio-l1-1-0.dll
 0002:00000430       __imp_tolower              0000000180013430     ucrt:api-ms-win-crt-string-l1-1-0.dll
 0002:00000438       \177api-ms-win-crt-string-l1-1-0_NULL_THUNK_DATA 0000000180013438     ucrt:api-ms-win-crt-string-l1-1-0.dll
 0002:00000440       __guard_check_icall_fptr   0000000180013440     MSVCRT:guard_support.obj
 0002:00000448       __guard_dispatch_icall_fptr 0000000180013448     MSVCRT:guard_support.obj
 0002:00000450       __guard_ss_verify_failure_fptr 0000000180013450     MSVCRT:guard_support.obj
 0002:00000458       __guard_ss_verify_sp_fptr  0000000180013458     MSVCRT:guard_support.obj
 0002:00000460       __xc_a                     0000000180013460     MSVCRT:initializers.obj
 0002:00000480       __xc_z                     0000000180013480     MSVCRT:initializers.obj
 0002:00000488       __xi_a                     0000000180013488     MSVCRT:initializers.obj
 0002:00000490       __xi_z                     0000000180013490     MSVCRT:initializers.obj
 0002:00000498       __xp_a                     0000000180013498     MSVCRT:initializers.obj
 0002:000004a0       __xp_z                     00000001800134a0     MSVCRT:initializers.obj
 0002:000004a8       __xt_a                     00000001800134a8     MSVCRT:initializers.obj
 0002:000004b0       __xt_z                     00000001800134b0     MSVCRT:initializers.obj
 0002:00000628       ??_C@_00CNPNBAHC@?$AA@     0000000180013628     noiseless_sdk:compiler.obj
 0002:0000062c       ??_C@_02INHECGIH@kl?$AA@   000000018001362c     noiseless_sdk:compiler.obj
 0002:00000630       ??_C@_0BJ@PMLLKPNF@Failed?5to?5compile?5shader?$AA@ 0000000180013630     noiseless_sdk:compiler.obj
 0002:00000650       ??_C@_0P@NILDAEHK@ASSET_COMPILER?$AA@ 0000000180013650     noiseless_sdk:compiler.obj
 0002:00000660       ??_C@_0BA@LOGFPCHE@?1asset_database?$AA@ 0000000180013660     noiseless_sdk:compiler.obj
 0002:00000698       ??_C@_0CB@EMJFLDDN@kernels?1camera_ray_generation?4kl@ 0000000180013698     noiseless_sdk:integrator.obj
 0002:000006c0       ??_C@_0BG@KGEILDFI@camera_ray_generation?$AA@ 00000001800136c0     noiseless_sdk:integrator.obj
 0002:000006d8       ??_C@_0BG@MACKAGDP@kernels?1integrator?4kl?$AA@ 00000001800136d8     noiseless_sdk:integrator.obj
 0002:000006f0       ??_C@_05IMBNNINJ@trace?$AA@ 00000001800136f0     noiseless_sdk:integrator.obj
 0002:000007c4       ??_C@_03EFDENKFM@adb?$AA@  00000001800137c4     noiseless_sdk:asset_database_helpers.obj
 0002:000007c8       ??_C@_04CLCAKCEI@json?$AA@ 00000001800137c8     noiseless_sdk:asset_database_helpers.obj
 0002:00000870       ??_C@_1BK@MHIKGOKE@?$AA?3?$AAA?$AAM?$AA?3?$AAa?$AAm?$AA?3?$AAP?$AAM?$AA?3?$AAp?$AAm?$AA?$AA@ 0000000180013870     noiseless_sdk:asset_database_helpers.obj
 0002:000008c0       ??_C@_0ED@JMHKEEDE@D?3?2code?2Git?2personal?2noiseless?2s@ 00000001800138c0     noiseless_sdk:compute_api.obj
 0002:00000908       ??_C@_0BE@MLMDKKBF@Can?8t?5fetch?5devices?$AA@ 0000000180013908     noiseless_sdk:compute_api.obj
 0002:00000920       ??_C@_0BF@DLKPNOOG@Can?8t?5create?5context?$AA@ 0000000180013920     noiseless_sdk:compute_api.obj
 0002:00000938       ??_C@_0BL@LLPIACLO@Can?8t?5create?5command?5queue?$AA@ 0000000180013938     noiseless_sdk:compute_api.obj
 0002:00000958       ??_C@_0CB@IAGEKLPC@Can?8t?5create?5program?5with?5source@ 0000000180013958     noiseless_sdk:compute_api.obj
 0002:00000980       ??_C@_0BE@LAPIOMCJ@Can?8t?5create?5kernel?$AA@ 0000000180013980     noiseless_sdk:compute_api.obj
 0002:00000998       ??_C@_0BF@ENIAPGEL@Can?8t?5execute?5kernel?$AA@ 0000000180013998     noiseless_sdk:compute_api.obj
 0002:000009b0       ??_C@_0BE@KCCDINBD@Can?8t?5create?5buffer?$AA@ 00000001800139b0     noiseless_sdk:compute_api.obj
 0002:000009c8       ??_C@_0BC@EFNEDNGM@Can?8t?5read?5buffer?$AA@ 00000001800139c8     noiseless_sdk:compute_api.obj
 0002:000009e0       ??_C@_0BD@HCNAHOEB@Can?8t?5write?5buffer?$AA@ 00000001800139e0     noiseless_sdk:compute_api.obj
 0002:000009f8       ??_C@_0BK@GDLHKOBC@Can?8t?5set?5kernel?5argument?$AA@ 00000001800139f8     noiseless_sdk:compute_api.obj
 0002:00000a18       ??_C@_0BD@OLBABOEK@vector?$DMT?$DO?5too?5long?$AA@ 0000000180013a18     noiseless_sdk:compute_api.obj
 0002:00000aa8       __real@3c0efa35            0000000180013aa8     noiseless_sdk:camera_ray_generation.obj
 0002:00000aac       __real@3f800000            0000000180013aac     noiseless_sdk:camera_ray_generation.obj
 0002:00000ab0       __xmm@80000000800000008000000080000000 0000000180013ab0     noiseless_sdk:camera_ray_generation.obj
 0002:00000ac0       ??_7SystemAllocator@bento@@6B@ 0000000180013ac0     bento_sdk:system_allocator.obj
 0002:00000ed0       ??_7exception@stdext@@6B@  0000000180013ed0     bento_sdk:asset_database.obj
 0002:00000ee8       ??_C@_0BC@BDKFLDHL@unknown?5exception?$AA@ 0000000180013ee8     bento_sdk:asset_database.obj
 0002:00000f00       ??_C@_07CIFAGBMG@unknown?$AA@ 0000000180013f00     bento_sdk:asset_database.obj
 0002:00000f08       ??_7runtime_error@std@@6B@ 0000000180013f08     bento_sdk:asset_database.obj
 0002:00000f20       ??_C@_05LAPONLG@false?$AA@ 0000000180013f20     bento_sdk:asset_database.obj
 0002:00000f28       ??_C@_04LOAJBDKD@true?$AA@ 0000000180013f28     bento_sdk:asset_database.obj
 0002:00000f30       ??_7_Ref_count_base@std@@6B@ 0000000180013f30     bento_sdk:asset_database.obj
 0002:00000f50       ??_7exception@detail@nlohmann@@6B@ 0000000180013f50     bento_sdk:asset_database.obj
 0002:00000f68       ??_C@_02PBFOLPKM@?$FN?5?$AA@ 0000000180013f68     bento_sdk:asset_database.obj
 0002:00000f6c       ??_C@_01LFCBOECM@?4?$AA@   0000000180013f6c     bento_sdk:asset_database.obj
 0002:00000f70       ??_C@_0BB@DHAIOKED@?$FLjson?4exception?4?$AA@ 0000000180013f70     bento_sdk:asset_database.obj
 0002:00000f88       ??_7type_error@detail@nlohmann@@6B@ 0000000180013f88     bento_sdk:asset_database.obj
 0002:00000fa0       ??_C@_0L@CJHFOHFM@type_error?$AA@ 0000000180013fa0     bento_sdk:asset_database.obj
 0002:00000fb0       ??_7other_error@detail@nlohmann@@6B@ 0000000180013fb0     bento_sdk:asset_database.obj
 0002:00000fc8       ??_C@_0M@DLKELGHM@other_error?$AA@ 0000000180013fc8     bento_sdk:asset_database.obj
 0002:00000fe0       ?kCachedPowers@?1??get_cached_power_for_binary_exponent@dtoa_impl@detail@nlohmann@@YA?AUcached_power@234@H@Z@4QBU5234@B 0000000180013fe0     bento_sdk:asset_database.obj
 0002:000014d0       ??_C@_04MEMAJGDJ@name?$AA@ 00000001800144d0     bento_sdk:asset_database.obj
 0002:000014d8       ??_C@_04LNEJFJGI@path?$AA@ 00000001800144d8     bento_sdk:asset_database.obj
 0002:000014e0       ??_C@_04GPMDFGEJ@type?$AA@ 00000001800144e0     bento_sdk:asset_database.obj
 0002:000014e8       ??_C@_04IAGNFIBA@size?$AA@ 00000001800144e8     bento_sdk:asset_database.obj
 0002:000014f0       ??_C@_0BM@NCLJBPEP@cannot?5use?5operator?$FL?$FN?5with?5?$AA@ 00000001800144f0     bento_sdk:asset_database.obj
 0002:00001510       ??_C@_0CL@PMFMHANH@cannot?5create?5object?5from?5initia@ 0000000180014510     bento_sdk:asset_database.obj
 0002:00001540       ??_C@_0CP@JKJLJCEB@961c151d2e87f2686a955a9be24d316f@ 0000000180014540     bento_sdk:asset_database.obj
 0002:00001570       ??_7?$output_adapter_protocol@D@detail@nlohmann@@6B@ 0000000180014570     bento_sdk:asset_database.obj
 0002:00001588       ??_C@_02MCILKGOH@?$HL?$HN?$AA@ 0000000180014588     bento_sdk:asset_database.obj
 0002:0000158c       ??_C@_02KCPFEJNG@?$HL?6?$AA@ 000000018001458c     bento_sdk:asset_database.obj
 0002:00001590       ??_C@_03GIPIADLC@?$CC?3?5?$AA@ 0000000180014590     bento_sdk:asset_database.obj
 0002:00001594       ??_C@_02MLAGHBOD@?0?6?$AA@ 0000000180014594     bento_sdk:asset_database.obj
 0002:00001598       ??_C@_02BONOGKBK@?$CC?3?$AA@ 0000000180014598     bento_sdk:asset_database.obj
 0002:0000159c       ??_C@_02GPECMEKF@?$FL?$FN?$AA@ 000000018001459c     bento_sdk:asset_database.obj
 0002:000015a0       ??_C@_02JKLIAPDG@?$FL?6?$AA@ 00000001800145a0     bento_sdk:asset_database.obj
 0002:000015a8       ??_C@_0M@MKMGJFPL@?$DMdiscarded?$DO?$AA@ 00000001800145a8     bento_sdk:asset_database.obj
 0002:000015b4       ??_C@_04MLLLIHIP@null?$AA@ 00000001800145b4     bento_sdk:asset_database.obj
 0002:000015c0       ??_7?$output_string_adapter@DV?$basic_string@DU?$char_traits@D@std@@V?$allocator@D@2@@std@@@detail@nlohmann@@6B@ 00000001800145c0     bento_sdk:asset_database.obj
 0002:000015d8       ??_C@_06IEOJBDIK@object?$AA@ 00000001800145d8     bento_sdk:asset_database.obj
 0002:000015e0       ??_C@_05HIFJDKLD@array?$AA@ 00000001800145e0     bento_sdk:asset_database.obj
 0002:000015e8       ??_C@_06ICGJLFIM@string?$AA@ 00000001800145e8     bento_sdk:asset_database.obj
 0002:000015f0       ??_C@_07GOBOHMJA@boolean?$AA@ 00000001800145f0     bento_sdk:asset_database.obj
 0002:000015f8       ??_C@_09BHELGMBL@discarded?$AA@ 00000001800145f8     bento_sdk:asset_database.obj
 0002:00001604       ??_C@_06EBGNBFIA@number?$AA@ 0000000180014604     bento_sdk:asset_database.obj
 0002:00001610       ??_7?$basic_stringbuf@DU?$char_traits@D@std@@V?$allocator@D@2@@std@@6B@ 0000000180014610     bento_sdk:asset_database.obj
 0002:00001688       ??_7?$basic_stringstream@DU?$char_traits@D@std@@V?$allocator@D@2@@std@@6B@ 0000000180014688     bento_sdk:asset_database.obj
 0002:00001690       ??_8?$basic_stringstream@DU?$char_traits@D@std@@V?$allocator@D@2@@std@@7B?$basic_istream@DU?$char_traits@D@std@@@1@@ 0000000180014690     bento_sdk:asset_database.obj
 0002:00001698       ??_8?$basic_stringstream@DU?$char_traits@D@std@@V?$allocator@D@2@@std@@7B?$basic_ostream@DU?$char_traits@D@std@@@1@@ 0000000180014698     bento_sdk:asset_database.obj
 0002:000016a0       ??_C@_06OAIHNJFH@?2u?$CF04x?$AA@ 00000001800146a0     bento_sdk:asset_database.obj
 0002:000016a8       ??_C@_0N@MOBGICJD@?2u?$CF04x?2u?$CF04x?$AA@ 00000001800146a8     bento_sdk:asset_database.obj
 0002:000016b8       ??_C@_04LBPDBBJF@?3?50x?$AA@ 00000001800146b8     bento_sdk:asset_database.obj
 0002:000016c0       ??_C@_0BN@FGKMDFDN@invalid?5UTF?98?5byte?5at?5index?5?$AA@ 00000001800146c0     bento_sdk:asset_database.obj
 0002:000016e0       ??_C@_0CH@OBGEFBNA@incomplete?5UTF?98?5string?$DL?5last?5by@ 00000001800146e0     bento_sdk:asset_database.obj
 0002:00001710       ?utf8d@?1??decode@?$serializer@V?$basic_json@Vmap@std@@Vvector@2@V?$basic_string@DU?$char_traits@D@std@@V?$allocator@D@2@@2@_N_J_KNVallocator@2@Uadl_serializer@nlohmann@@@nlohmann@@@detail@nlohmann@@CAEAEAEAEAIE@Z@4V?$array@E$0BJA@@std@@B 0000000180014710     bento_sdk:asset_database.obj
 0002:000018a0       ??_C@_0BI@CFPLBAOH@invalid?5string?5position?$AA@ 00000001800148a0     bento_sdk:asset_database.obj
 0002:000018b8       ??_7?$_Ref_count_obj@V?$output_string_adapter@DV?$basic_string@DU?$char_traits@D@std@@V?$allocator@D@2@@std@@@detail@nlohmann@@@std@@6B@ 00000001800148b8     bento_sdk:asset_database.obj
 0002:000018d8       ??_C@_0BA@JFNIOLAK@string?5too?5long?$AA@ 00000001800148d8     bento_sdk:asset_database.obj
 0002:000018e8       ??_C@_0BE@JONHPENG@map?1set?$DMT?$DO?5too?5long?$AA@ 00000001800148e8     bento_sdk:asset_database.obj
 0002:00001900       __xmm@000000000000000f0000000000000000 0000000180014900     bento_sdk:asset_database.obj
 0002:00001910       __xmm@80000000000000008000000000000000 0000000180014910     bento_sdk:asset_database.obj
 0002:00001970       ??_C@_0BE@KOGKLJGM@Error?5in?5directory?4?$AA@ 0000000180014970     bento_sdk:file_system.obj
 0002:00001988       ??_C@_0M@FLBCLFHO@FILE_SYSTEM?$AA@ 0000000180014988     bento_sdk:file_system.obj
 0002:00001994       ??_C@_02DJGKEECL@?4?4?$AA@ 0000000180014994     bento_sdk:file_system.obj
 0002:00001998       ??_C@_01KMDKNFGN@?1?$AA@   0000000180014998     bento_sdk:file_system.obj
 0002:000019a0       ??_C@_0BP@OGGHFCKA@Error?5while?5closing?5directory?4?$AA@ 00000001800149a0     bento_sdk:file_system.obj
 0002:000019c0       ??_C@_02GMLFBBN@wb?$AA@    00000001800149c0     bento_sdk:file_system.obj
 0002:000019c4       ??_C@_01NOFIACDB@w?$AA@    00000001800149c4     bento_sdk:file_system.obj
 0002:000019c8       ??_C@_02JDPG@rb?$AA@       00000001800149c8     bento_sdk:file_system.obj
 0002:00001a70       ??_C@_07DMOCMFND@FAILURE?$AA@ 0000000180014a70     bento_sdk:security.obj
 0002:00001af0       ??_C@_0EA@DBMLENFN@D?3?2code?2Git?2personal?2noiseless?2b@ 0000000180014af0     bento_sdk:matrix4.obj
 0002:00001b30       ??_C@_0BJ@DHGJMDGE@function?5not?5implemented?$AA@ 0000000180014b30     bento_sdk:matrix4.obj
 0002:00001b4c       ??_C@_01PKGAHCOL@?$CJ?$AA@ 0000000180014b4c     bento_sdk:matrix4.obj
 0002:00001b50       ??_C@_02KEGNLNML@?0?5?$AA@ 0000000180014b50     bento_sdk:matrix4.obj
 0002:00001b58       ??_C@_09KGBOGBAA@Matrix4?6?$CI?$AA@ 0000000180014b58     bento_sdk:matrix4.obj
 0002:00001b64       __real@3c0ee7a7            0000000180014b64     bento_sdk:matrix4.obj
 0002:00001b68       ??_7IAllocator@bento@@6B@  0000000180014b68     bento_sdk:allocator.obj
 0002:00001b88       ??_7ILogger@bento@@6B@     0000000180014b88     bento_sdk:system_logger.obj
 0002:00001b98       ??_7SystemLogger@bento@@6B@ 0000000180014b98     bento_sdk:system_logger.obj
 0002:00001ba8       ??_C@_07NJGAEJFG@?$FLDEBUG?$FN?$AA@ 0000000180014ba8     bento_sdk:system_logger.obj
 0002:00001bb0       ??_C@_06EGHJMOEF@?$FLINFO?$FN?$AA@ 0000000180014bb0     bento_sdk:system_logger.obj
 0002:00001bb8       ??_C@_09HLHFDKBC@?$FLWARNING?$FN?$AA@ 0000000180014bb8     bento_sdk:system_logger.obj
 0002:00001bc8       ??_C@_07CEGNDBCD@?$FLERROR?$FN?$AA@ 0000000180014bc8     bento_sdk:system_logger.obj
 0002:00001bd0       ??_C@_01EEMJAFIK@?6?$AA@   0000000180014bd0     bento_sdk:system_logger.obj
 0002:00001bd4       ??_C@_01LBDDMOBJ@?$FN?$AA@ 0000000180014bd4     bento_sdk:system_logger.obj
 0002:00001bd8       ??_C@_01OHGJGJJP@?$FL?$AA@ 0000000180014bd8     bento_sdk:system_logger.obj
 0002:00001be0       __xmm@000102030405060708090a0b0c0d0e0f 0000000180014be0     msvcprt:vector_algorithms.obj
 0002:00001bf0       __xmm@010003020504070609080b0a0d0c0f0e 0000000180014bf0     msvcprt:vector_algorithms.obj
 0002:00001c00       __ymm@000102030405060708090a0b0c0d0e0f000102030405060708090a0b0c0d0e0f 0000000180014c00     msvcprt:vector_algorithms.obj
 0002:00001c20       __ymm@010003020504070609080b0a0d0c0f0e010003020504070609080b0a0d0c0f0e 0000000180014c20     msvcprt:vector_algorithms.obj
 0002:00001c40       _pRawDllMain               0000000180014c40     MSVCRT:dll_dllmain.obj
 0002:00001c40       _pDefaultRawDllMain        0000000180014c40     MSVCRT:dll_dllmain.obj
 0002:00001c50       ??_7type_info@@6B@         0000000180014c50     MSVCRT:std_type_info_static.obj
 0002:00001cd8       ??_7exception@std@@6B@     0000000180014cd8     MSVCRT:throw_bad_alloc.obj
 0002:00001ce8       ??_C@_0BC@EOODALEL@Unknown?5exception?$AA@ 0000000180014ce8     MSVCRT:throw_bad_alloc.obj
 0002:00001d08       ??_7bad_alloc@std@@6B@     0000000180014d08     MSVCRT:throw_bad_alloc.obj
 0002:00001d18       ??_C@_0P@GHFPNOJB@bad?5allocation?$AA@ 0000000180014d18     MSVCRT:throw_bad_alloc.obj
 0002:00001d30       ??_7bad_array_new_length@std@@6B@ 0000000180014d30     MSVCRT:throw_bad_alloc.obj
 0002:00001d40       ??_C@_0BF@KINCDENJ@bad?5array?5new?5length?$AA@ 0000000180014d40     MSVCRT:throw_bad_alloc.obj
 0002:00001dc0       _load_config_used          0000000180014dc0     MSVCRT:loadcfg.obj
 0002:00001ec0       ??_R4type_info@@6B@        0000000180014ec0     MSVCRT:std_type_info_static.obj
 0002:00001ee8       ??_R3type_info@@8          0000000180014ee8     MSVCRT:std_type_info_static.obj
 0002:00001f00       ??_R2type_info@@8          0000000180014f00     MSVCRT:std_type_info_static.obj
 0002:00001f10       ??_R1A@?0A@EA@type_info@@8 0000000180014f10     MSVCRT:std_type_info_static.obj
 0002:00001f38       ??_R4exception@std@@6B@    0000000180014f38     MSVCRT:throw_bad_alloc.obj
 0002:00001f60       ??_R3exception@std@@8      0000000180014f60     MSVCRT:throw_bad_alloc.obj
 0002:00001f78       ??_R2exception@std@@8      0000000180014f78     MSVCRT:throw_bad_alloc.obj
 0002:00001f88       ??_R1A@?0A@EA@exception@std@@8 0000000180014f88     MSVCRT:throw_bad_alloc.obj
 0002:00001fb0       ??_R4bad_alloc@std@@6B@    0000000180014fb0     MSVCRT:throw_bad_alloc.obj
 0002:00001fd8       ??_R3bad_alloc@std@@8      0000000180014fd8     MSVCRT:throw_bad_alloc.obj
 0002:00001ff0       ??_R2bad_alloc@std@@8      0000000180014ff0     MSVCRT:throw_bad_alloc.obj
 0002:00002008       ??_R1A@?0A@EA@bad_alloc@std@@8 0000000180015008     MSVCRT:throw_bad_alloc.obj
 0002:00002030       ??_R4bad_array_new_length@std@@6B@ 0000000180015030     MSVCRT:throw_bad_alloc.obj
 0002:00002058       ??_R3bad_array_new_length@std@@8 0000000180015058     MSVCRT:throw_bad_alloc.obj
 0002:00002070       ??_R2bad_array_new_length@std@@8 0000000180015070     MSVCRT:throw_bad_alloc.obj
 0002:00002090       ??_R1A@?0A@EA@bad_array_new_length@std@@8 0000000180015090     MSVCRT:throw_bad_alloc.obj
 0002:000023f0       __rtc_iaa                  00000001800153f0     MSVCRT:_initsect_.obj
 0002:000023f8       __rtc_izz                  00000001800153f8     MSVCRT:_initsect_.obj
 0002:00002400       __rtc_taa                  0000000180015400     MSVCRT:_initsect_.obj
 0002:00002408       __rtc_tzz                  0000000180015408     MSVCRT:_initsect_.obj
 0002:00004f28       _TI3?AVtype_error@detail@nlohmann@@ 0000000180017f28     bento_sdk:asset_database.obj
 0002:00004f48       _CTA3?AVtype_error@detail@nlohmann@@ 0000000180017f48     bento_sdk:asset_database.obj
 0002:00004f68       _CT??_R0?AVtype_error@detail@nlohmann@@@8??0type_error@detail@nlohmann@@QEAA@AEBV012@@Z40 0000000180017f68     bento_sdk:asset_database.obj
 0002:00004f90       _CT??_R0?AVexception@detail@nlohmann@@@8??0exception@detail@nlohmann@@QEAA@AEBV012@@Z40 0000000180017f90     bento_sdk:asset_database.obj
 0002:00004fb8       _CT??_R0?AVexception@stdext@@@8??0exception@stdext@@QEAA@AEBV01@@Z16 0000000180017fb8     bento_sdk:asset_database.obj
 0002:00004fe0       _TI3?AVother_error@detail@nlohmann@@ 0000000180017fe0     bento_sdk:asset_database.obj
 0002:00005000       _CTA3?AVother_error@detail@nlohmann@@ 0000000180018000     bento_sdk:asset_database.obj
 0002:00005020       _CT??_R0?AVother_error@detail@nlohmann@@@8??0other_error@detail@nlohmann@@QEAA@AEBV012@@Z40 0000000180018020     bento_sdk:asset_database.obj
 0002:00005048       _TI2?AVbad_alloc@std@@     0000000180018048     MSVCRT:throw_bad_alloc.obj
 0002:00005068       _CTA2?AVbad_alloc@std@@    0000000180018068     MSVCRT:throw_bad_alloc.obj
 0002:00005080       _CT??_R0?AVbad_alloc@std@@@8??0bad_alloc@std@@QEAA@AEBV01@@Z24 0000000180018080     MSVCRT:throw_bad_alloc.obj
 0002:000050a8       _CT??_R0?AVexception@std@@@8??0exception@std@@QEAA@AEBV01@@Z24 00000001800180a8     MSVCRT:throw_bad_alloc.obj
 0002:000050d0       _TI3?AVbad_array_new_length@std@@ 00000001800180d0     MSVCRT:throw_bad_alloc.obj
 0002:000050f0       _CTA3?AVbad_array_new_length@std@@ 00000001800180f0     MSVCRT:throw_bad_alloc.obj
 0002:00005110       _CT??_R0?AVbad_array_new_length@std@@@8??0bad_array_new_length@std@@QEAA@AEBV01@@Z24 0000000180018110     MSVCRT:throw_bad_alloc.obj
 0002:000053a0       __IMPORT_DESCRIPTOR_OpenCL 00000001800183a0     OpenCL:OpenCL.dll
 0002:000053b4       __IMPORT_DESCRIPTOR_MSVCP140 00000001800183b4     msvcprt:MSVCP140.dll
 0002:000053c8       __IMPORT_DESCRIPTOR_VCRUNTIME140 00000001800183c8     vcruntime:VCRUNTIME140.dll
 0002:000053dc       __IMPORT_DESCRIPTOR_api-ms-win-crt-heap-l1-1-0 00000001800183dc     ucrt:api-ms-win-crt-heap-l1-1-0.dll
 0002:000053f0       __IMPORT_DESCRIPTOR_api-ms-win-crt-runtime-l1-1-0 00000001800183f0     ucrt:api-ms-win-crt-runtime-l1-1-0.dll
 0002:00005404       __IMPORT_DESCRIPTOR_api-ms-win-crt-math-l1-1-0 0000000180018404     ucrt:api-ms-win-crt-math-l1-1-0.dll
 0002:00005418       __IMPORT_DESCRIPTOR_api-ms-win-crt-string-l1-1-0 0000000180018418     ucrt:api-ms-win-crt-string-l1-1-0.dll
 0002:0000542c       __IMPORT_DESCRIPTOR_api-ms-win-crt-stdio-l1-1-0 000000018001842c     ucrt:api-ms-win-crt-stdio-l1-1-0.dll
 0002:00005440       __IMPORT_DESCRIPTOR_api-ms-win-crt-locale-l1-1-0 0000000180018440     ucrt:api-ms-win-crt-locale-l1-1-0.dll
 0002:00005454       __IMPORT_DESCRIPTOR_api-ms-win-crt-convert-l1-1-0 0000000180018454     ucrt:api-ms-win-crt-convert-l1-1-0.dll
 0002:00005468       __IMPORT_DESCRIPTOR_api-ms-win-crt-filesystem-l1-1-0 0000000180018468     ucrt:api-ms-win-crt-filesystem-l1-1-0.dll
 0002:0000547c       __IMPORT_DESCRIPTOR_KERNEL32 000000018001847c     kernel32:KERNEL32.dll
 0002:00005490       __NULL_IMPORT_DESCRIPTOR   0000000180018490     OpenCL:OpenCL.dll
 0003:00000000       ?database_file_extension@noiseless@@3PEBDEB 000000018001a000     noiseless_sdk:asset_database_helpers.obj
 0003:00000008       ?database_debug_file_extension@noiseless@@3PEBDEB 000000018001a008     noiseless_sdk:asset_database_helpers.obj
 0003:00000010       ?__default_logger@bento@@3PEAVILogger@1@EA 000000018001a010     bento_sdk:log.obj
 0003:00000018       __scrt_native_dllmain_reason 000000018001a018     MSVCRT:utility.obj
 0003:00000020       __security_cookie          000000018001a020     MSVCRT:gs_cookie.obj
 0003:00000028       __security_cookie_complement 000000018001a028     MSVCRT:gs_cookie.obj
 0003:00000030       _fltused                   000000018001a030     MSVCRT:fltused.obj
 0003:00000040       __isa_available            000000018001a040     MSVCRT:_cpu_disp_.obj
 0003:00000044       __isa_enabled              000000018001a044     MSVCRT:_cpu_disp_.obj
 0003:00000048       __memcpy_nt_iters          000000018001a048     MSVCRT:_cpu_disp_.obj
 0003:00000050       __scrt_ucrt_dll_is_in_use  000000018001a050     MSVCRT:ucrt_stubs.obj
 0003:00000058       ??_R0?AVtype_error@detail@nlohmann@@@8 000000018001a058     bento_sdk:asset_database.obj
 0003:00000090       ??_R0?AVexception@detail@nlohmann@@@8 000000018001a090     bento_sdk:asset_database.obj
 0003:000000c0       ??_R0?AVexception@stdext@@@8 000000018001a0c0     bento_sdk:asset_database.obj
 0003:000000e8       ??_R0?AVother_error@detail@nlohmann@@@8 000000018001a0e8     bento_sdk:asset_database.obj
 0003:00000120       ??_R0?AVtype_info@@@8      000000018001a120     MSVCRT:std_type_info_static.obj
 0003:00000140       ??_R0?AVbad_alloc@std@@@8  000000018001a140     MSVCRT:throw_bad_alloc.obj
 0003:00000168       ??_R0?AVexception@std@@@8  000000018001a168     MSVCRT:throw_bad_alloc.obj
 0003:00000190       ??_R0?AVbad_array_new_length@std@@@8 000000018001a190     MSVCRT:throw_bad_alloc.obj
 0003:000001d0       ?_OptionsStorage@?1??__local_stdio_printf_options@@9@4_KA 000000018001a1d0     bento_sdk:asset_database.obj
 0003:000001d8       ?__default_system_logger@bento@@3VSystemLogger@1@A 000000018001a1d8     bento_sdk:log.obj
 0003:000001e0       __scrt_current_native_startup_state 000000018001a1e0     MSVCRT:utility.obj
 0003:000001e8       __scrt_native_startup_lock 000000018001a1e8     MSVCRT:utility.obj
 0003:00000228       __favor                    000000018001a228     MSVCRT:_cpu_disp_.obj
 0003:0000022c       __scrt_debugger_hook_flag  000000018001a22c     MSVCRT:utility_desktop.obj
 0003:000007a0       ?__type_info_root_node@@3U__type_info_node@@A 000000018001a7a0     MSVCRT:tncleanup.obj
 0003:000007b0       ?_OptionsStorage@?1??__local_stdio_scanf_options@@9@4_KA 000000018001a7b0     MSVCRT:default_local_stdio_options.obj
 0003:000007b8       __dyn_tls_init_callback    000000018001a7b8     <common>

 entry point at        0001:0000eda4

 Static symbols

 0004:fffe5000       $pdata$?free@?$Vector@D@bento@@QEAAXXZ 0000000180000000     noiseless_sdk:compiler.obj
 0002:fffed000       $unwind$??1?$Vector@D@bento@@QEAA@XZ 0000000180000000     bento_sdk:dynamic_string.obj
 0000:fffe0000       .debug$S                   0000000180000000     noiseless_dylib.exp
 0004:fffe5000       $pdata$??1?$Vector@D@bento@@QEAA@XZ 0000000180000000     bento_sdk:dynamic_string.obj
 0002:fffed000       $cppxdata$??1?$Vector@D@bento@@QEAA@XZ 0000000180000000     bento_sdk:dynamic_string.obj
 0002:fffed000       $ip2state$??1?$Vector@D@bento@@QEAA@XZ 0000000180000000     bento_sdk:dynamic_string.obj
 0002:fffed000       $unwind$??1?$Vector@D@bento@@QEAA@XZ 0000000180000000     bento_sdk:disk_serializer.obj
 0004:fffe5000       $pdata$??1?$Vector@D@bento@@QEAA@XZ 0000000180000000     bento_sdk:disk_serializer.obj
 0002:fffed000       $cppxdata$??1?$Vector@D@bento@@QEAA@XZ 0000000180000000     bento_sdk:disk_serializer.obj
 0002:fffed000       $ip2state$??1?$Vector@D@bento@@QEAA@XZ 0000000180000000     bento_sdk:disk_serializer.obj
 0002:fffed000       $unwind$?free@?$Vector@D@bento@@QEAAXXZ 0000000180000000     bento_sdk:disk_serializer.obj
 0004:fffe5000       $pdata$?free@?$Vector@D@bento@@QEAAXXZ 0000000180000000     bento_sdk:disk_serializer.obj
 0002:fffed000       $unwind$??1DynamicString@bento@@QEAA@XZ 0000000180000000     bento_sdk:disk_serializer.obj
 0004:fffe5000       $pdata$??1DynamicString@bento@@QEAA@XZ 0000000180000000     bento_sdk:disk_serializer.obj
 0002:fffed000       $cppxdata$??1DynamicString@bento@@QEAA@XZ 0000000180000000     bento_sdk:disk_serializer.obj
 0002:fffed000       $stateUnwindMap$??1DynamicString@bento@@QEAA@XZ 0000000180000000     bento_sdk:disk_serializer.obj
 0002:fffed000       $ip2state$??1DynamicString@bento@@QEAA@XZ 0000000180000000     bento_sdk:disk_serializer.obj
 0004:fffe5000       $pdata$?_Fail@?$_Default_allocate_traits@$00@std@@SAXXZ 0000000180000000     bento_sdk:asset_database.obj
 0002:fffed000       $unwind$?_Fail@?$_Default_allocate_traits@$00@std@@SAXXZ 0000000180000000     bento_sdk:asset_database.obj
 0002:fffed000       $ip2state$??1TKernelSource@noiseless@@QEAA@XZ 0000000180000000     noiseless_sdk:integrator.obj
 0002:fffed000       $stateUnwindMap$??1TKernelSource@noiseless@@QEAA@XZ 0000000180000000     noiseless_sdk:integrator.obj
 0002:fffed000       $cppxdata$??1TKernelSource@noiseless@@QEAA@XZ 0000000180000000     noiseless_sdk:integrator.obj
 0002:fffed000       $unwind$?resize@?$Vector@D@bento@@QEAAXI@Z 0000000180000000     bento_sdk:dynamic_string.obj
 0004:fffe5000       $pdata$?resize@?$Vector@D@bento@@QEAAXI@Z 0000000180000000     bento_sdk:dynamic_string.obj
 0002:fffed000       $unwind$?free@?$Vector@D@bento@@QEAAXXZ 0000000180000000     bento_sdk:dynamic_string.obj
 0000:fffe0000       .debug$S                   0000000180000000     ucrt:api-ms-win-crt-convert-l1-1-0.dll
 0004:fffe5000       $pdata$??$_Allocate@U?$_Default_allocate_traits@$00@std@@@std@@YAPEAX_K0_K@Z 0000000180000000     bento_sdk:asset_database.obj
 0000:fffe0000       .debug$S                   0000000180000000     ucrt:api-ms-win-crt-convert-l1-1-0.dll
 0002:fffed000       $unwind$??$_Allocate@U?$_Default_allocate_traits@$00@std@@@std@@YAPEAX_K0_K@Z 0000000180000000     bento_sdk:asset_database.obj
 0000:fffe0000       .debug$S                   0000000180000000     ucrt:api-ms-win-crt-filesystem-l1-1-0.dll
 0004:fffe5000       $pdata$?free@?$Vector@D@bento@@QEAAXXZ 0000000180000000     bento_sdk:dynamic_string.obj
 0002:fffed000       $unwind$?reserve@?$Vector@D@bento@@QEAAXI@Z 0000000180000000     bento_sdk:dynamic_string.obj
 0002:fffed000       $unwind$??1?$Vector@D@bento@@QEAA@XZ 0000000180000000     bento_sdk:file_system.obj
 0000:fffe0000       .debug$S                   0000000180000000     ucrt:api-ms-win-crt-heap-l1-1-0.dll
 0004:fffe5000       $pdata$??1?$Vector@D@bento@@QEAA@XZ 0000000180000000     bento_sdk:file_system.obj
 0000:fffe0000       .debug$S                   0000000180000000     ucrt:api-ms-win-crt-heap-l1-1-0.dll
 0002:fffed000       $cppxdata$??1?$Vector@D@bento@@QEAA@XZ 0000000180000000     bento_sdk:file_system.obj
 0000:fffe0000       .debug$S                   0000000180000000     ucrt:api-ms-win-crt-heap-l1-1-0.dll
 0002:fffed000       $ip2state$??1?$Vector@D@bento@@QEAA@XZ 0000000180000000     bento_sdk:file_system.obj
 0000:fffe0000       .debug$S                   0000000180000000     ucrt:api-ms-win-crt-heap-l1-1-0.dll
 0002:fffed000       $unwind$?resize@?$Vector@D@bento@@QEAAXI@Z 0000000180000000     bento_sdk:file_system.obj
 0000:fffe0000       .debug$S                   0000000180000000     ucrt:api-ms-win-crt-heap-l1-1-0.dll
 0004:fffe5000       $pdata$?resize@?$Vector@D@bento@@QEAAXI@Z 0000000180000000     bento_sdk:file_system.obj
 0000:fffe0000       .debug$S                   0000000180000000     ucrt:api-ms-win-crt-heap-l1-1-0.dll
 0002:fffed000       $unwind$?free@?$Vector@D@bento@@QEAAXXZ 0000000180000000     bento_sdk:file_system.obj
 0004:fffe5000       $pdata$?free@?$Vector@D@bento@@QEAAXXZ 0000000180000000     bento_sdk:file_system.obj
 0002:fffed000       $unwind$?reserve@?$Vector@D@bento@@QEAAXI@Z 0000000180000000     bento_sdk:file_system.obj
 0004:fffe5000       $pdata$?reserve@?$Vector@D@bento@@QEAAXI@Z 0000000180000000     bento_sdk:file_system.obj
 0002:fffed000       $unwind$??1DynamicString@bento@@QEAA@XZ 0000000180000000     bento_sdk:file_system.obj
 0004:fffe5000       $pdata$??1DynamicString@bento@@QEAA@XZ 0000000180000000     bento_sdk:file_system.obj
 0002:fffed000       $cppxdata$??1DynamicString@bento@@QEAA@XZ 0000000180000000     bento_sdk:file_system.obj
 0002:fffed000       $stateUnwindMap$??1DynamicString@bento@@QEAA@XZ 0000000180000000     bento_sdk:file_system.obj
 0000:fffe0000       .debug$S                   0000000180000000     ucrt:api-ms-win-crt-locale-l1-1-0.dll
 0004:fffe5000       $pdata$??1TKernelSource@noiseless@@QEAA@XZ 0000000180000000     noiseless_sdk:integrator.obj
 0002:fffed000       $ip2state$??1DynamicString@bento@@QEAA@XZ 0000000180000000     bento_sdk:file_system.obj
 0004:fffe5000       $pdata$??$unpack_vector_bytes@D@bento@@YAXAEAPEBDAEAV?$Vector@D@0@@Z 0000000180000000     bento_sdk:asset_database.obj
 0002:fffed000       $unwind$??$unpack_vector_bytes@D@bento@@YAXAEAPEBDAEAV?$Vector@D@0@@Z 0000000180000000     bento_sdk:asset_database.obj
 0004:fffe5000       $pdata$??$pack_vector_bytes@D@bento@@YAXAEAV?$Vector@D@0@AEBV10@@Z 0000000180000000     bento_sdk:asset_database.obj
 0000:fffe0000       .debug$S                   0000000180000000     ucrt:api-ms-win-crt-math-l1-1-0.dll
 0000:fffe0000       .debug$S                   0000000180000000     ucrt:api-ms-win-crt-math-l1-1-0.dll
 0002:fffed000       $unwind$??$pack_vector_bytes@D@bento@@YAXAEAV?$Vector@D@0@AEBV10@@Z 0000000180000000     bento_sdk:asset_database.obj
 0000:fffe0000       .debug$S                   0000000180000000     kernel32:KERNEL32.dll
 0000:fffe0000       .debug$S                   0000000180000000     kernel32:KERNEL32.dll
 0000:fffe0000       .debug$S                   0000000180000000     kernel32:KERNEL32.dll
 0000:fffe0000       .debug$S                   0000000180000000     kernel32:KERNEL32.dll
 0000:fffe0000       .debug$S                   0000000180000000     kernel32:KERNEL32.dll
 0000:fffe0000       .debug$S                   0000000180000000     kernel32:KERNEL32.dll
 0000:fffe0000       .debug$S                   0000000180000000     kernel32:KERNEL32.dll
 0000:fffe0000       .debug$S                   0000000180000000     kernel32:KERNEL32.dll
 0000:fffe0000       .debug$S                   0000000180000000     kernel32:KERNEL32.dll
 0000:fffe0000       .debug$S                   0000000180000000     kernel32:KERNEL32.dll
 0000:fffe0000       .debug$S                   0000000180000000     kernel32:KERNEL32.dll
 0000:fffe0000       .debug$S                   0000000180000000     kernel32:KERNEL32.dll
 0000:fffe0000       .debug$S                   0000000180000000     kernel32:KERNEL32.dll
 0000:fffe0000       .debug$S                   0000000180000000     kernel32:KERNEL32.dll
 0000:fffe0000       .debug$S                   0000000180000000     kernel32:KERNEL32.dll
 0000:fffe0000       .debug$S                   0000000180000000     kernel32:KERNEL32.dll
 0000:fffe0000       .debug$S                   0000000180000000     kernel32:KERNEL32.dll
 0000:fffe0000       .debug$S                   0000000180000000     kernel32:KERNEL32.dll
 0000:fffe0000       .debug$S                   0000000180000000     kernel32:KERNEL32.dll
 0000:fffe0000       .debug$S                   0000000180000000     kernel32:KERNEL32.dll
 0000:fffe0000       .debug$S                   0000000180000000     kernel32:KERNEL32.dll
 0000:fffe0000       .debug$S                   0000000180000000     ucrt:api-ms-win-crt-math-l1-1-0.dll
 0004:fffe5000       $pdata$?reserve@?$Vector@D@bento@@QEAAXI@Z 0000000180000000     bento_sdk:dynamic_string.obj
 0002:fffed000       __guard_fids__             0000000180000000     MSVCRT:throw_bad_alloc.obj
 0002:fffed000       __guard_fids__             0000000180000000     MSVCRT:throw_bad_alloc.obj
 0002:fffed000       __guard_fids__             0000000180000000     MSVCRT:throw_bad_alloc.obj
 0002:fffed000       $unwind$??$pack_vector_bytes@D@bento@@YAXAEAV?$Vector@D@0@AEBV10@@Z 0000000180000000     bento_sdk:dynamic_string.obj
 0002:fffed000       $ip2state$??1sentry@?$basic_ostream@DU?$char_traits@D@std@@@std@@QEAA@XZ 0000000180000000     bento_sdk:system_logger.obj
 0002:fffed000       $stateUnwindMap$??1sentry@?$basic_ostream@DU?$char_traits@D@std@@@std@@QEAA@XZ 0000000180000000     bento_sdk:system_logger.obj
 0002:fffed000       $cppxdata$??1sentry@?$basic_ostream@DU?$char_traits@D@std@@@std@@QEAA@XZ 0000000180000000     bento_sdk:system_logger.obj
 0004:fffe5000       $pdata$??1sentry@?$basic_ostream@DU?$char_traits@D@std@@@std@@QEAA@XZ 0000000180000000     bento_sdk:system_logger.obj
 0002:fffed000       $unwind$??1sentry@?$basic_ostream@DU?$char_traits@D@std@@@std@@QEAA@XZ 0000000180000000     bento_sdk:system_logger.obj
 0002:fffed000       $ip2state$??1_Sentry_base@?$basic_ostream@DU?$char_traits@D@std@@@std@@QEAA@XZ 0000000180000000     bento_sdk:system_logger.obj
 0002:fffed000       $cppxdata$??1_Sentry_base@?$basic_ostream@DU?$char_traits@D@std@@@std@@QEAA@XZ 0000000180000000     bento_sdk:system_logger.obj
 0002:fffed000       $unwind$??1?$Vector@D@bento@@QEAA@XZ 0000000180000000     noiseless_sdk:asset_database_helpers.obj
 0004:fffe5000       $pdata$??1?$Vector@D@bento@@QEAA@XZ 0000000180000000     noiseless_sdk:asset_database_helpers.obj
 0002:fffed000       $cppxdata$??1?$Vector@D@bento@@QEAA@XZ 0000000180000000     noiseless_sdk:asset_database_helpers.obj
 0002:fffed000       $ip2state$??1?$Vector@D@bento@@QEAA@XZ 0000000180000000     noiseless_sdk:asset_database_helpers.obj
 0002:fffed000       $unwind$?free@?$Vector@D@bento@@QEAAXXZ 0000000180000000     noiseless_sdk:asset_database_helpers.obj
 0004:fffe5000       $pdata$?free@?$Vector@D@bento@@QEAAXXZ 0000000180000000     noiseless_sdk:asset_database_helpers.obj
 0002:fffed000       $unwind$??1DynamicString@bento@@QEAA@XZ 0000000180000000     noiseless_sdk:asset_database_helpers.obj
 0004:fffe5000       $pdata$??1DynamicString@bento@@QEAA@XZ 0000000180000000     noiseless_sdk:asset_database_helpers.obj
 0002:fffed000       $cppxdata$??1DynamicString@bento@@QEAA@XZ 0000000180000000     noiseless_sdk:asset_database_helpers.obj
 0002:fffed000       $stateUnwindMap$??1DynamicString@bento@@QEAA@XZ 0000000180000000     noiseless_sdk:asset_database_helpers.obj
 0002:fffed000       $ip2state$??1DynamicString@bento@@QEAA@XZ 0000000180000000     noiseless_sdk:asset_database_helpers.obj
 0000:fffe0000       .debug$S                   0000000180000000     OpenCL:OpenCL.dll
 0000:fffe0000       .debug$S                   0000000180000000     ucrt:api-ms-win-crt-math-l1-1-0.dll
 0000:fffe0000       .debug$S                   0000000180000000     OpenCL:OpenCL.dll
 0000:fffe0000       .debug$S                   0000000180000000     OpenCL:OpenCL.dll
 0000:fffe0000       .debug$S                   0000000180000000     OpenCL:OpenCL.dll
 0000:fffe0000       .debug$S                   0000000180000000     OpenCL:OpenCL.dll
 0000:fffe0000       .debug$S                   0000000180000000     ucrt:api-ms-win-crt-math-l1-1-0.dll
 0000:fffe0000       .debug$S                   0000000180000000     OpenCL:OpenCL.dll
 0000:fffe0000       .debug$S                   0000000180000000     OpenCL:OpenCL.dll
 0000:fffe0000       .debug$S                   0000000180000000     OpenCL:OpenCL.dll
 0000:fffe0000       .debug$S                   0000000180000000     OpenCL:OpenCL.dll
 0004:fffe5000       $pdata$??$_Getvals@_W@?$time_get@_WV?$istreambuf_iterator@_WU?$char_traits@_W@std@@@std@@@std@@IEAAX_WAEBV_Locinfo@1@@Z 0000000180000000     bento_sdk:asset_database.obj
 0002:fffed000       $unwind$??$_Getvals@_W@?$time_get@_WV?$istreambuf_iterator@_WU?$char_traits@_W@std@@@std@@@std@@IEAAX_WAEBV_Locinfo@1@@Z 0000000180000000     bento_sdk:asset_database.obj
 0004:fffe5000       $pdata$??$_Getvals@_W@?$time_get@DV?$istreambuf_iterator@DU?$char_traits@D@std@@@std@@@std@@IEAAX_WAEBV_Locinfo@1@@Z 0000000180000000     bento_sdk:asset_database.obj
 0002:fffed000       $unwind$??$_Getvals@_W@?$time_get@DV?$istreambuf_iterator@DU?$char_traits@D@std@@@std@@@std@@IEAAX_WAEBV_Locinfo@1@@Z 0000000180000000     bento_sdk:asset_database.obj
 0000:fffe0000       .debug$S                   0000000180000000     OpenCL:OpenCL.dll
 0000:fffe0000       .debug$S                   0000000180000000     ucrt:api-ms-win-crt-runtime-l1-1-0.dll
 0000:fffe0000       .debug$S                   0000000180000000     OpenCL:OpenCL.dll
 0000:fffe0000       .debug$S                   0000000180000000     OpenCL:OpenCL.dll
 0000:fffe0000       .debug$S                   0000000180000000     OpenCL:OpenCL.dll
 0000:fffe0000       .debug$S                   0000000180000000     OpenCL:OpenCL.dll
 0000:fffe0000       .debug$S                   0000000180000000     ucrt:api-ms-win-crt-runtime-l1-1-0.dll
 0000:fffe0000       .debug$S                   0000000180000000     OpenCL:OpenCL.dll
 0000:fffe0000       .debug$S                   0000000180000000     ucrt:api-ms-win-crt-runtime-l1-1-0.dll
 0000:fffe0000       .debug$S                   0000000180000000     OpenCL:OpenCL.dll
 0000:fffe0000       .debug$S                   0000000180000000     ucrt:api-ms-win-crt-runtime-l1-1-0.dll
 0004:fffe5000       $pdata$??1_Sentry_base@?$basic_ostream@DU?$char_traits@D@std@@@std@@QEAA@XZ 0000000180000000     bento_sdk:system_logger.obj
 0002:fffed000       $unwind$??1_Sentry_base@?$basic_ostream@DU?$char_traits@D@std@@@std@@QEAA@XZ 0000000180000000     bento_sdk:system_logger.obj
 0002:fffed000       $ip2state$??$?6U?$char_traits@D@std@@@std@@YAAEAV?$basic_ostream@DU?$char_traits@D@std@@@0@AEAV10@PEBD@Z 0000000180000000     bento_sdk:system_logger.obj
 0002:fffed000       $stateUnwindMap$??$?6U?$char_traits@D@std@@@std@@YAAEAV?$basic_ostream@DU?$char_traits@D@std@@@0@AEAV10@PEBD@Z 0000000180000000     bento_sdk:system_logger.obj
 0002:fffed000       $unwind$??1?$Vector@D@bento@@QEAA@XZ 0000000180000000     noiseless_sdk:compiler.obj
 0004:fffe5000       $pdata$??1?$Vector@D@bento@@QEAA@XZ 0000000180000000     noiseless_sdk:compiler.obj
 0002:fffed000       $cppxdata$??1?$Vector@D@bento@@QEAA@XZ 0000000180000000     noiseless_sdk:compiler.obj
 0002:fffed000       $ip2state$??1?$Vector@D@bento@@QEAA@XZ 0000000180000000     noiseless_sdk:compiler.obj
 0002:fffed000       $unwind$?free@?$Vector@D@bento@@QEAAXXZ 0000000180000000     noiseless_sdk:compiler.obj
 0002:fffed000       __guard_fids___scrt_set_unhandled_exception_filter 0000000180000000     MSVCRT:utility_desktop.obj
 0000:fffe0000       .debug$S                   0000000180000000     OpenCL:OpenCL.dll
 0000:fffe0000       .debug$S                   0000000180000000     ucrt:api-ms-win-crt-runtime-l1-1-0.dll
 0000:fffe0000       .debug$S                   0000000180000000     OpenCL:OpenCL.dll
 0000:fffe0000       .debug$S                   0000000180000000     OpenCL:OpenCL.dll
 0000:fffe0000       .debug$S                   0000000180000000     OpenCL:OpenCL.dll
 0002:fffed000       $unwind$??1TKernelSource@noiseless@@QEAA@XZ 0000000180000000     noiseless_sdk:integrator.obj
 0000:fffe0000       .debug$S                   0000000180000000     ucrt:api-ms-win-crt-runtime-l1-1-0.dll
 0004:fffe5000       $pdata$?_Maklocwcs@std@@YAPEA_WPEB_W@Z 0000000180000000     bento_sdk:asset_database.obj
 0002:fffed000       $unwind$?_Maklocwcs@std@@YAPEA_WPEB_W@Z 0000000180000000     bento_sdk:asset_database.obj
 0002:fffed000       __guard_fids_?dllmain_dispatch@@YAHQEAUHINSTANCE__@@KQEAX@Z 0000000180000000     MSVCRT:dll_dllmain.obj
 0002:fffed000       __guard_fids__             0000000180000000     MSVCRT:guard_support.obj
 0000:fffe0000       .debug$S                   0000000180000000     ucrt:api-ms-win-crt-runtime-l1-1-0.dll
 0002:fffed000       $unwind$?resize@?$Vector@D@bento@@QEAAXI@Z 0000000180000000     bento_sdk:stream.obj
 0004:fffe5000       $pdata$?resize@?$Vector@D@bento@@QEAAXI@Z 0000000180000000     bento_sdk:stream.obj
 0002:fffed000       $unwind$?reserve@?$Vector@D@bento@@QEAAXI@Z 0000000180000000     bento_sdk:stream.obj
 0000:fffe0000       .debug$S                   0000000180000000     msvcprt:MSVCP140.dll
 0000:fffe0000       .debug$S                   0000000180000000     ucrt:api-ms-win-crt-runtime-l1-1-0.dll
 0000:fffe0000       .debug$S                   0000000180000000     msvcprt:MSVCP140.dll
 0000:fffe0000       .debug$S                   0000000180000000     msvcprt:MSVCP140.dll
 0000:fffe0000       .debug$S                   0000000180000000     msvcprt:MSVCP140.dll
 0000:fffe0000       .debug$S                   0000000180000000     msvcprt:MSVCP140.dll
 0000:fffe0000       .debug$S                   0000000180000000     ucrt:api-ms-win-crt-runtime-l1-1-0.dll
 0000:fffe0000       .debug$S                   0000000180000000     msvcprt:MSVCP140.dll
 0000:fffe0000       .debug$S                   0000000180000000     msvcprt:MSVCP140.dll
 0000:fffe0000       .debug$S                   0000000180000000     msvcprt:MSVCP140.dll
 0000:fffe0000       .debug$S                   0000000180000000     msvcprt:MSVCP140.dll
 0000:fffe0000       .debug$S                   0000000180000000     ucrt:api-ms-win-crt-runtime-l1-1-0.dll
 0000:fffe0000       .debug$S                   0000000180000000     msvcprt:MSVCP140.dll
 0000:fffe0000       .debug$S                   0000000180000000     msvcprt:MSVCP140.dll
 0000:fffe0000       .debug$S                   0000000180000000     msvcprt:MSVCP140.dll
 0000:fffe0000       .debug$S                   0000000180000000     msvcprt:MSVCP140.dll
 0000:fffe0000       .debug$S                   0000000180000000     ucrt:api-ms-win-crt-runtime-l1-1-0.dll
 0000:fffe0000       .debug$S                   0000000180000000     msvcprt:MSVCP140.dll
 0000:fffe0000       .debug$S                   0000000180000000     msvcprt:MSVCP140.dll
 0000:fffe0000       .debug$S                   0000000180000000     msvcprt:MSVCP140.dll
 0002:fffed000       $cppxdata$??$?6U?$char_traits@D@std@@@std@@YAAEAV?$basic_ostream@DU?$char_traits@D@std@@@0@AEAV10@PEBD@Z 0000000180000000     bento_sdk:system_logger.obj
 0000:fffe0000       .debug$S                   0000000180000000     msvcprt:MSVCP140.dll
 0000:fffe0000       .debug$S                   0000000180000000     ucrt:api-ms-win-crt-runtime-l1-1-0.dll
 0000:fffe0000       .debug$S                   0000000180000000     msvcprt:MSVCP140.dll
 0000:fffe0000       .debug$S                   0000000180000000     msvcprt:MSVCP140.dll
 0000:fffe0000       .debug$S                   0000000180000000     msvcprt:MSVCP140.dll
 0000:fffe0000       .debug$S                   0000000180000000     msvcprt:MSVCP140.dll
 0000:fffe0000       .debug$S                   0000000180000000     ucrt:api-ms-win-crt-runtime-l1-1-0.dll
 0000:fffe0000       .debug$S                   0000000180000000     msvcprt:MSVCP140.dll
 0000:fffe0000       .debug$S                   0000000180000000     ucrt:api-ms-win-crt-runtime-l1-1-0.dll
 0000:fffe0000       .debug$S                   0000000180000000     msvcprt:MSVCP140.dll
 0000:fffe0000       .debug$S                   0000000180000000     ucrt:api-ms-win-crt-runtime-l1-1-0.dll
 0000:fffe0000       .debug$S                   0000000180000000     msvcprt:MSVCP140.dll
 0000:fffe0000       .debug$S                   0000000180000000     msvcprt:MSVCP140.dll
 0000:fffe0000       .debug$S                   0000000180000000     msvcprt:MSVCP140.dll
 0000:fffe0000       .debug$S                   0000000180000000     ucrt:api-ms-win-crt-stdio-l1-1-0.dll
 0000:fffe0000       .debug$S                   0000000180000000     msvcprt:MSVCP140.dll
 0000:fffe0000       .debug$S                   0000000180000000     ucrt:api-ms-win-crt-stdio-l1-1-0.dll
 0000:fffe0000       .debug$S                   0000000180000000     msvcprt:MSVCP140.dll
 0000:fffe0000       .debug$S                   0000000180000000     ucrt:api-ms-win-crt-stdio-l1-1-0.dll
 0000:fffe0000       .debug$S                   0000000180000000     msvcprt:MSVCP140.dll
 0000:fffe0000       .debug$S                   0000000180000000     ucrt:api-ms-win-crt-stdio-l1-1-0.dll
 0000:fffe0000       .debug$S                   0000000180000000     msvcprt:MSVCP140.dll
 0000:fffe0000       .debug$S                   0000000180000000     ucrt:api-ms-win-crt-stdio-l1-1-0.dll
 0000:fffe0000       .debug$S                   0000000180000000     msvcprt:MSVCP140.dll
 0000:fffe0000       .debug$S                   0000000180000000     ucrt:api-ms-win-crt-stdio-l1-1-0.dll
 0000:fffe0000       .debug$S                   0000000180000000     msvcprt:MSVCP140.dll
 0000:fffe0000       .debug$S                   0000000180000000     ucrt:api-ms-win-crt-stdio-l1-1-0.dll
 0000:fffe0000       .debug$S                   0000000180000000     msvcprt:MSVCP140.dll
 0004:fffe5000       $pdata$?reserve@?$Vector@D@bento@@QEAAXI@Z 0000000180000000     bento_sdk:stream.obj
 0004:fffe5000       $pdata$??$?6U?$char_traits@D@std@@@std@@YAAEAV?$basic_ostream@DU?$char_traits@D@std@@@0@AEAV10@PEBD@Z 0000000180000000     bento_sdk:system_logger.obj
 0000:fffe0000       .debug$S                   0000000180000000     ucrt:api-ms-win-crt-string-l1-1-0.dll
 0002:fffed000       $unwind$??$?6U?$char_traits@D@std@@@std@@YAAEAV?$basic_ostream@DU?$char_traits@D@std@@@0@AEAV10@PEBD@Z 0000000180000000     bento_sdk:system_logger.obj
 0004:fffe5000       $pdata$??$pack_vector_bytes@D@bento@@YAXAEAV?$Vector@D@0@AEBV10@@Z 0000000180000000     bento_sdk:dynamic_string.obj
 0002:fffed000       $unwind$??$unpack_vector_bytes@D@bento@@YAXAEAPEBDAEAV?$Vector@D@0@@Z 0000000180000000     bento_sdk:dynamic_string.obj
 0000:fffe0000       .debug$S                   0000000180000000     vcruntime:VCRUNTIME140.dll
 0002:fffed000       $ip2state$??1DynamicString@bento@@QEAA@XZ 0000000180000000     bento_sdk:asset_database.obj
 0000:fffe0000       .debug$S                   0000000180000000     vcruntime:VCRUNTIME140.dll
 0002:fffed000       $stateUnwindMap$??1DynamicString@bento@@QEAA@XZ 0000000180000000     bento_sdk:asset_database.obj
 0000:fffe0000       .debug$S                   0000000180000000     vcruntime:VCRUNTIME140.dll
 0002:fffed000       $cppxdata$??1DynamicString@bento@@QEAA@XZ 0000000180000000     bento_sdk:asset_database.obj
 0000:fffe0000       .debug$S                   0000000180000000     vcruntime:VCRUNTIME140.dll
 0004:fffe5000       $pdata$??$unpack_vector_bytes@D@bento@@YAXAEAPEBDAEAV?$Vector@D@0@@Z 0000000180000000     bento_sdk:dynamic_string.obj
 0002:fffed000       __guard_fids__             0000000180000000     MSVCRT:std_type_info_static.obj
 0004:fffe5000       $pdata$??1DynamicString@bento@@QEAA@XZ 0000000180000000     bento_sdk:asset_database.obj
 0000:fffe0000       .debug$S                   0000000180000000     vcruntime:VCRUNTIME140.dll
 0002:fffed000       $unwind$??1DynamicString@bento@@QEAA@XZ 0000000180000000     bento_sdk:asset_database.obj
 0004:fffe5000       $pdata$?reserve@?$Vector@D@bento@@QEAAXI@Z 0000000180000000     bento_sdk:asset_database.obj
 0002:fffed000       $unwind$?reserve@?$Vector@D@bento@@QEAAXI@Z 0000000180000000     bento_sdk:asset_database.obj
 0004:fffe5000       $pdata$?free@?$Vector@D@bento@@QEAAXXZ 0000000180000000     bento_sdk:asset_database.obj
 0000:fffe0000       .debug$S                   0000000180000000     vcruntime:VCRUNTIME140.dll
 0002:fffed000       $unwind$?free@?$Vector@D@bento@@QEAAXXZ 0000000180000000     bento_sdk:asset_database.obj
 0000:fffe0000       .debug$S                   0000000180000000     vcruntime:VCRUNTIME140.dll
 0004:fffe5000       $pdata$?resize@?$Vector@D@bento@@QEAAXI@Z 0000000180000000     bento_sdk:asset_database.obj
 0000:fffe0000       .debug$S                   0000000180000000     vcruntime:VCRUNTIME140.dll
 0002:fffed000       $unwind$?resize@?$Vector@D@bento@@QEAAXI@Z 0000000180000000     bento_sdk:asset_database.obj
 0002:fffed000       $ip2state$??1?$Vector@D@bento@@QEAA@XZ 0000000180000000     bento_sdk:asset_database.obj
 0002:fffed000       $unwind$?resize@?$Vector@UVector4@bento@@@bento@@QEAAXI@Z 0000000180000000     noiseless_sdk:compute_scene.obj
 0004:fffe5000       $pdata$?resize@?$Vector@UVector4@bento@@@bento@@QEAAXI@Z 0000000180000000     noiseless_sdk:compute_scene.obj
 0002:fffed000       $cppxdata$??1?$Vector@D@bento@@QEAA@XZ 0000000180000000     bento_sdk:asset_database.obj
 0000:fffe0000       .debug$S                   0000000180000000     vcruntime:VCRUNTIME140.dll
 0002:fffed000       $unwind$?reserve@?$Vector@UVector4@bento@@@bento@@QEAAXI@Z 0000000180000000     noiseless_sdk:compute_scene.obj
 0004:fffe5000       $pdata$?reserve@?$Vector@UVector4@bento@@@bento@@QEAAXI@Z 0000000180000000     noiseless_sdk:compute_scene.obj
 0004:fffe5000       $pdata$??1?$Vector@D@bento@@QEAA@XZ 0000000180000000     bento_sdk:asset_database.obj
 0000:fffe0000       .debug$S                   0000000180000000     vcruntime:VCRUNTIME140.dll
 0002:fffed000       $unwind$??1?$Vector@D@bento@@QEAA@XZ 0000000180000000     bento_sdk:asset_database.obj
 0000:fffe0000       .debug$S                   0000000180000000     vcruntime:VCRUNTIME140.dll
 0004:fffe5000       $pdata$?free@?$Vector@D@bento@@QEAAXXZ 0000000180000000     noiseless_sdk:integrator.obj
 0002:fffed000       $unwind$?free@?$Vector@D@bento@@QEAAXXZ 0000000180000000     noiseless_sdk:integrator.obj
 0002:fffed000       $ip2state$??1?$Vector@D@bento@@QEAA@XZ 0000000180000000     noiseless_sdk:integrator.obj
 0000:fffe0000       .debug$S                   0000000180000000     vcruntime:VCRUNTIME140.dll
 0002:fffed000       $cppxdata$??1?$Vector@D@bento@@QEAA@XZ 0000000180000000     noiseless_sdk:integrator.obj
 0002:fffed000       __guard_fids__guard_icall_checks_enforced 0000000180000000     MSVCRT:guard_support.obj
 0004:fffe5000       $pdata$??1?$Vector@D@bento@@QEAA@XZ 0000000180000000     noiseless_sdk:integrator.obj
 0002:fffed000       $unwind$??1?$Vector@D@bento@@QEAA@XZ 0000000180000000     noiseless_sdk:integrator.obj
 0001:fffff000       ?dtor$2@?0???$?6U?$char_traits@D@std@@@std@@YAAEAV?$basic_ostream@DU?$char_traits@D@std@@@0@AEAV10@PEBD@Z@4HA 0000000180000000 f   bento_sdk:system_logger.obj
 0001:fffff00c       ?dtor$0@?0???$?6U?$char_traits@D@std@@@std@@YAAEAV?$basic_ostream@DU?$char_traits@D@std@@@0@AEAV10@PEBD@Z@4HA 000000018000000c f   bento_sdk:system_logger.obj
 0001:00000000       ??__E_base_allocator@@YAXXZ 0000000180001000 f   allocator_c_api.obj
 0001:00000020       ??__E__common_allocator@bento@@YAXXZ 0000000180001020 f   bento_sdk:common.obj
 0001:00000040       ??__E__default_system_logger@bento@@YAXXZ 0000000180001040 f   bento_sdk:log.obj
 0001:00004850       ??$_Reallocate_grow_by@V<lambda_f3a66ab6a0570788f31503db83886f49>@@_KPEBD_K@?$basic_string@DU?$char_traits@D@std@@V?$allocator@D@2@@std@@QEAAAEAV01@_KV<lambda_f3a66ab6a0570788f31503db83886f49>@@_KPEBD2@Z 0000000180005850 f   bento_sdk:asset_database.obj
 0001:00005750       $LN1335                    0000000180006750     bento_sdk:asset_database.obj
 0001:00005e48       $LN376                     0000000180006e48     bento_sdk:asset_database.obj
 0001:000061d0       ??1?$unique_ptr@V?$basic_string@DU?$char_traits@D@std@@V?$allocator@D@2@@std@@V<lambda_cf98b93bdbc3b868a88fa8eb27c16a69>@@@std@@QEAA@XZ 00000001800071d0 f   bento_sdk:asset_database.obj
 0001:000061f0       ??1?$unique_ptr@V?$basic_string@DU?$char_traits@D@std@@V?$allocator@D@2@@std@@V<lambda_dba2dfefec9bdf18d167cd7ba98562ad>@@@std@@QEAA@XZ 00000001800071f0 f   bento_sdk:asset_database.obj
 0001:00006210       ??1?$unique_ptr@V?$map@V?$basic_string@DU?$char_traits@D@std@@V?$allocator@D@2@@std@@V?$basic_json@Vmap@std@@Vvector@2@V?$basic_string@DU?$char_traits@D@std@@V?$allocator@D@2@@2@_N_J_KNVallocator@2@Uadl_serializer@nlohmann@@@nlohmann@@U?$less@V?$basic_string@DU?$char_traits@D@std@@V?$allocator@D@2@@std@@@2@V?$allocator@U?$pair@$$CBV?$basic_string@DU?$char_traits@D@std@@V?$allocator@D@2@@std@@V?$basic_json@Vmap@std@@Vvector@2@V?$basic_string@DU?$char_traits@D@std@@V?$allocator@D@2@@2@_N_J_KNVallocator@2@Uadl_serializer@nlohmann@@@nlohmann@@@std@@@2@@std@@V<lambda_1e4542c3baa2e38d57832dd62f03da01>@@@std@@QEAA@XZ 0000000180007210 f   bento_sdk:asset_database.obj
 0001:00006230       ??1?$unique_ptr@V?$map@V?$basic_string@DU?$char_traits@D@std@@V?$allocator@D@2@@std@@V?$basic_json@Vmap@std@@Vvector@2@V?$basic_string@DU?$char_traits@D@std@@V?$allocator@D@2@@2@_N_J_KNVallocator@2@Uadl_serializer@nlohmann@@@nlohmann@@U?$less@V?$basic_string@DU?$char_traits@D@std@@V?$allocator@D@2@@std@@@2@V?$allocator@U?$pair@$$CBV?$basic_string@DU?$char_traits@D@std@@V?$allocator@D@2@@std@@V?$basic_json@Vmap@std@@Vvector@2@V?$basic_string@DU?$char_traits@D@std@@V?$allocator@D@2@@2@_N_J_KNVallocator@2@Uadl_serializer@nlohmann@@@nlohmann@@@std@@@2@@std@@V<lambda_2eace259b7d13a125de19983fff91cb5>@@@std@@QEAA@XZ 0000000180007230 f   bento_sdk:asset_database.obj
 0001:00006250       ??1?$unique_ptr@V?$vector@V?$basic_json@Vmap@std@@Vvector@2@V?$basic_string@DU?$char_traits@D@std@@V?$allocator@D@2@@2@_N_J_KNVallocator@2@Uadl_serializer@nlohmann@@@nlohmann@@V?$allocator@V?$basic_json@Vmap@std@@Vvector@2@V?$basic_string@DU?$char_traits@D@std@@V?$allocator@D@2@@2@_N_J_KNVallocator@2@Uadl_serializer@nlohmann@@@nlohmann@@@std@@@std@@V<lambda_6c491cd8f4c682378542992818b9a23c>@@@std@@QEAA@XZ 0000000180007250 f   bento_sdk:asset_database.obj
 0001:00006270       ??1?$unique_ptr@V?$vector@V?$basic_json@Vmap@std@@Vvector@2@V?$basic_string@DU?$char_traits@D@std@@V?$allocator@D@2@@2@_N_J_KNVallocator@2@Uadl_serializer@nlohmann@@@nlohmann@@V?$allocator@V?$basic_json@Vmap@std@@Vvector@2@V?$basic_string@DU?$char_traits@D@std@@V?$allocator@D@2@@2@_N_J_KNVallocator@2@Uadl_serializer@nlohmann@@@nlohmann@@@std@@@std@@V<lambda_a982f39e461a7dae52fb4bd1a04d9e66>@@@std@@QEAA@XZ 0000000180007270 f   bento_sdk:asset_database.obj
 0001:00008134       $LN1056                    0000000180009134     bento_sdk:asset_database.obj
 0001:0000870c       $LN773                     000000018000970c     bento_sdk:asset_database.obj
 0001:0000872c       $LN772                     000000018000972c     bento_sdk:asset_database.obj
 0001:0000a854       $LN12                      000000018000b854     bento_sdk:asset_database.obj
 0001:0000b720       _wclosedir                 000000018000c720 f   bento_sdk:file_system.obj
 0001:0000b790       dirent_first               000000018000c790 f   bento_sdk:file_system.obj
 0001:0000b7e0       opendir                    000000018000c7e0 f   bento_sdk:file_system.obj
 0001:0000bb4c       $LN20                      000000018000cb4c     bento_sdk:hash.obj
 0001:0000dfd4       ??$_Reverse_tail@PEAE@@YAXPEAE0@Z 000000018000efd4 f   msvcprt:vector_algorithms.obj
 0001:0000dff4       ??$_Reverse_tail@PEAG@@YAXPEAG0@Z 000000018000eff4 f   msvcprt:vector_algorithms.obj
 0001:0000e018       ??$_Reverse_tail@PEAK@@YAXPEAK0@Z 000000018000f018 f   msvcprt:vector_algorithms.obj
 0001:0000e038       ??$_Reverse_tail@PEA_K@@YAXPEA_K0@Z 000000018000f038 f   msvcprt:vector_algorithms.obj
 0001:0000e05c       ?_Advance_bytes@@YAXAEAPEAX_J@Z 000000018000f05c f   msvcprt:vector_algorithms.obj
 0001:0000e060       ?_Byte_length@@YA_KPEAX0@Z 000000018000f060 f   msvcprt:vector_algorithms.obj
 0001:0000e490       ?find_pe_section@@YAPEAU_IMAGE_SECTION_HEADER@@QEAE_K@Z 000000018000f490 f   MSVCRT:utility.obj
 0001:0000e4e4       ?is_potentially_valid_image_base@@YA_NQEAX@Z 000000018000f4e4 f   MSVCRT:utility.obj
 0001:0000e9d0       $$000000                   000000018000f9d0     MSVCRT:_amdsecgs_.obj
 0001:0000ea04       ?dllmain_crt_dispatch@@YAHQEAUHINSTANCE__@@KQEAX@Z 000000018000fa04 f   MSVCRT:dll_dllmain.obj
 0001:0000ea54       ?dllmain_crt_process_attach@@YAHQEAUHINSTANCE__@@QEAX@Z 000000018000fa54 f   MSVCRT:dll_dllmain.obj
 0001:0000eb70       ?dllmain_crt_process_detach@@YAH_N@Z 000000018000fb70 f   MSVCRT:dll_dllmain.obj
 0001:0000ec00       ?dllmain_dispatch@@YAHQEAUHINSTANCE__@@KQEAX@Z 000000018000fc00 f   MSVCRT:dll_dllmain.obj
 0001:0000ed48       ?dllmain_raw@@YAHQEAUHINSTANCE__@@KQEAX@Z 000000018000fd48 f   MSVCRT:dll_dllmain.obj
 0001:0000ee9c       ?ArrayUnwindFilter@@YAHPEAU_EXCEPTION_POINTERS@@@Z 000000018000fe9c f   MSVCRT:ehvecdtr.obj
 0001:0000efe0       $$000000                   000000018000ffe0     MSVCRT:_svml_ssinf4_dispatch_.obj
 0001:0000f718       capture_current_context    0000000180010718 f   MSVCRT:gs_report.obj
 0001:0000f788       capture_previous_context   0000000180010788 f   MSVCRT:gs_report.obj
 0001:0000f7fc       __get_entropy              00000001800107fc f   MSVCRT:gs_support.obj
 0001:0000fcb0       $$000000                   0000000180010cb0     MSVCRT:_svml_ssinf4_sse2_.obj
 0001:00010780       $$000000                   0000000180011780     MSVCRT:_guard_dispatch_.obj
 0001:000107a0       $$000000                   00000001800117a0     MSVCRT:_rfgfailure_.obj
 0001:00010860       ?dtor$0@?0??compile@asset_compiler@noiseless@@YA_NAEBUTCompilerOptions@2@AEAVTAssetDatabase@bento@@@Z@4HA 0000000180011860 f   noiseless_sdk:compiler.obj
 0001:0001086c       ?dtor$1@?0??compile@asset_compiler@noiseless@@YA_NAEBUTCompilerOptions@2@AEAVTAssetDatabase@bento@@@Z@4HA 000000018001186c f   noiseless_sdk:compiler.obj
 0001:00010878       ?dtor$2@?0??compile@asset_compiler@noiseless@@YA_NAEBUTCompilerOptions@2@AEAVTAssetDatabase@bento@@@Z@4HA 0000000180011878 f   noiseless_sdk:compiler.obj
 0001:00010890       ?dtor$0@?0??write@asset_compiler@noiseless@@YAXAEBUTCompilerOptions@2@AEBVTAssetDatabase@bento@@@Z@4HA 0000000180011890 f   noiseless_sdk:compiler.obj
 0001:000108a0       ?dtor$0@?0??init_resources@TIntegrator@noiseless@@QEAAXAEBVTAssetDatabase@bento@@@Z@4HA 00000001800118a0 f   noiseless_sdk:integrator.obj
 0001:000108ac       ?dtor$1@?0??init_resources@TIntegrator@noiseless@@QEAAXAEBVTAssetDatabase@bento@@@Z@4HA 00000001800118ac f   noiseless_sdk:integrator.obj
 0001:000108c0       ?dtor$0@?0??read_database@noiseless@@YA_NPEBDAEAVTAssetDatabase@bento@@@Z@4HA 00000001800118c0 f   noiseless_sdk:asset_database_helpers.obj
 0001:000108cc       ?dtor$1@?0??read_database@noiseless@@YA_NPEBDAEAVTAssetDatabase@bento@@@Z@4HA 00000001800118cc f   noiseless_sdk:asset_database_helpers.obj
 0001:000108d8       ?dtor$2@?0??read_database@noiseless@@YA_NPEBDAEAVTAssetDatabase@bento@@@Z@4HA 00000001800118d8 f   noiseless_sdk:asset_database_helpers.obj
 0001:000108e4       ?dtor$3@?0??read_database@noiseless@@YA_NPEBDAEAVTAssetDatabase@bento@@@Z@4HA 00000001800118e4 f   noiseless_sdk:asset_database_helpers.obj
 0001:000108f0       ?dtor$0@?0??write_database@noiseless@@YA_NPEBDAEBVTAssetDatabase@bento@@@Z@4HA 00000001800118f0 f   noiseless_sdk:asset_database_helpers.obj
 0001:000108fc       ?dtor$1@?0??write_database@noiseless@@YA_NPEBDAEBVTAssetDatabase@bento@@@Z@4HA 00000001800118fc f   noiseless_sdk:asset_database_helpers.obj
 0001:00010908       ?dtor$2@?0??write_database@noiseless@@YA_NPEBDAEBVTAssetDatabase@bento@@@Z@4HA 0000000180011908 f   noiseless_sdk:asset_database_helpers.obj
 0001:00010914       ?dtor$3@?0??write_database@noiseless@@YA_NPEBDAEBVTAssetDatabase@bento@@@Z@4HA 0000000180011914 f   noiseless_sdk:asset_database_helpers.obj
 0001:00010920       ?dtor$0@?0??write_database_debug@noiseless@@YA_NPEBDAEBVTAssetDatabase@bento@@@Z@4HA 0000000180011920 f   noiseless_sdk:asset_database_helpers.obj
 0001:0001092c       ?dtor$1@?0??write_database_debug@noiseless@@YA_NPEBDAEBVTAssetDatabase@bento@@@Z@4HA 000000018001192c f   noiseless_sdk:asset_database_helpers.obj
 0001:00010938       ?dtor$2@?0??write_database_debug@noiseless@@YA_NPEBDAEBVTAssetDatabase@bento@@@Z@4HA 0000000180011938 f   noiseless_sdk:asset_database_helpers.obj
 0001:00010944       ?dtor$3@?0??write_database_debug@noiseless@@YA_NPEBDAEBVTAssetDatabase@bento@@@Z@4HA 0000000180011944 f   noiseless_sdk:asset_database_helpers.obj
 0001:00010950       ?dtor$0@?0??create_compute_context@noiseless@@YA_KXZ@4HA 0000000180011950 f   noiseless_sdk:compute_api.obj
 0001:00010960       ?dtor$0@?0??create_compute_scene@noiseless@@YAX_KAEBVTScene@1@AEAUTComputeScene@1@@Z@4HA 0000000180011960 f   noiseless_sdk:compute_scene.obj
 0001:0001096c       ?dtor$1@?0??create_compute_scene@noiseless@@YAX_KAEBVTScene@1@AEAUTComputeScene@1@@Z@4HA 000000018001196c f   noiseless_sdk:compute_scene.obj
 0001:00010980       ?dtor$0@?0???0DynamicString@bento@@QEAA@AEAVIAllocator@1@@Z@4HA 0000000180011980 f   bento_sdk:dynamic_string.obj
 0001:00010990       ?dtor$0@?0???0DynamicString@bento@@QEAA@AEAVIAllocator@1@I@Z@4HA 0000000180011990 f   bento_sdk:dynamic_string.obj
 0001:000109a0       ?dtor$0@?0???0DynamicString@bento@@QEAA@AEAVIAllocator@1@PEBD@Z@4HA 00000001800119a0 f   bento_sdk:dynamic_string.obj
 0001:000109b0       ?dtor$0@?0???0DynamicString@bento@@QEAA@AEBV01@@Z@4HA 00000001800119b0 f   bento_sdk:dynamic_string.obj
 0001:000109c0       ?dtor$1@?0??substr@string@bento@@YA?AVDynamicString@2@AEBV32@II@Z@4HA 00000001800119c0 f   bento_sdk:dynamic_string.obj
 0001:000109d0       ?dtor$0@?0???$?HDU?$char_traits@D@std@@V?$allocator@D@1@@std@@YA?AV?$basic_string@DU?$char_traits@D@std@@V?$allocator@D@2@@0@QEBDAEBV10@@Z@4HA 00000001800119d0 f   bento_sdk:asset_database.obj
 0001:00010a00       ?dtor$30@?0???$_Copy_nodes@U_Copy_tag@?$_Tree@V?$_Tmap_traits@V?$basic_string@DU?$char_traits@D@std@@V?$allocator@D@2@@std@@V?$basic_json@Vmap@std@@Vvector@2@V?$basic_string@DU?$char_traits@D@std@@V?$allocator@D@2@@2@_N_J_KNVallocator@2@Uadl_serializer@nlohmann@@@nlohmann@@U?$less@V?$basic_string@DU?$char_traits@D@std@@V?$allocator@D@2@@std@@@2@V?$allocator@U?$pair@$$CBV?$basic_string@DU?$char_traits@D@std@@V?$allocator@D@2@@std@@V?$basic_json@Vmap@std@@Vvector@2@V?$basic_string@DU?$char_traits@D@std@@V?$allocator@D@2@@2@_N_J_KNVallocator@2@Uadl_serializer@nlohmann@@@nlohmann@@@std@@@2@$0A@@std@@@std@@@?$_Tree@V?$_Tmap_traits@V?$basic_string@DU?$char_traits@D@std@@V?$allocator@D@2@@std@@V?$basic_json@Vmap@std@@Vvector@2@V?$basic_string@DU?$char_traits@D@std@@V?$allocator@D@2@@2@_N_J_KNVallocator@2@Uadl_serializer@nlohmann@@@nlohmann@@U?$less@V?$basic_string@DU?$char_traits@D@std@@V?$allocator@D@2@@std@@@2@V?$allocator@U?$pair@$$CBV?$basic_string@DU?$char_traits@D@std@@V?$allocator@D@2@@std@@V?$basic_json@Vmap@std@@Vvector@2@V?$basic_string@DU?$char_traits@D@std@@V?$allocator@D@2@@2@_N_J_KNVallocator@2@Uadl_serializer@nlohmann@@@nlohmann@@@std@@@2@$0A@@std@@@std@@IEAAPEAU?$_Tree_node@U?$pair@$$CBV?$basic_string@DU?$char_traits@D@std@@V?$allocator@D@2@@std@@V?$basic_json@Vmap@std@@Vvector@2@V?$basic_string@DU?$char_traits@D@std@@V?$allocator@D@2@@2@_N_J_KNVallocator@2@Uadl_serializer@nlohmann@@@nlohmann@@@std@@PEAX@1@PEAU21@0U_Copy_tag@01@@Z@4HA 0000000180011a00 f   bento_sdk:asset_database.obj
 0001:00010a1c       ?dtor$32@?0???$_Copy_nodes@U_Copy_tag@?$_Tree@V?$_Tmap_traits@V?$basic_string@DU?$char_traits@D@std@@V?$allocator@D@2@@std@@V?$basic_json@Vmap@std@@Vvector@2@V?$basic_string@DU?$char_traits@D@std@@V?$allocator@D@2@@2@_N_J_KNVallocator@2@Uadl_serializer@nlohmann@@@nlohmann@@U?$less@V?$basic_string@DU?$char_traits@D@std@@V?$allocator@D@2@@std@@@2@V?$allocator@U?$pair@$$CBV?$basic_string@DU?$char_traits@D@std@@V?$allocator@D@2@@std@@V?$basic_json@Vmap@std@@Vvector@2@V?$basic_string@DU?$char_traits@D@std@@V?$allocator@D@2@@2@_N_J_KNVallocator@2@Uadl_serializer@nlohmann@@@nlohmann@@@std@@@2@$0A@@std@@@std@@@?$_Tree@V?$_Tmap_traits@V?$basic_string@DU?$char_traits@D@std@@V?$allocator@D@2@@std@@V?$basic_json@Vmap@std@@Vvector@2@V?$basic_string@DU?$char_traits@D@std@@V?$allocator@D@2@@2@_N_J_KNVallocator@2@Uadl_serializer@nlohmann@@@nlohmann@@U?$less@V?$basic_string@DU?$char_traits@D@std@@V?$allocator@D@2@@std@@@2@V?$allocator@U?$pair@$$CBV?$basic_string@DU?$char_traits@D@std@@V?$allocator@D@2@@std@@V?$basic_json@Vmap@std@@Vvector@2@V?$basic_string@DU?$char_traits@D@std@@V?$allocator@D@2@@2@_N_J_KNVallocator@2@Uadl_serializer@nlohmann@@@nlohmann@@@std@@@2@$0A@@std@@@std@@IEAAPEAU?$_Tree_node@U?$pair@$$CBV?$basic_string@DU?$char_traits@D@std@@V?$allocator@D@2@@std@@V?$basic_json@Vmap@std@@Vvector@2@V?$basic_string@DU?$char_traits@D@std@@V?$allocator@D@2@@2@_N_J_KNVallocator@2@Uadl_serializer@nlohmann@@@nlohmann@@@std@@PEAX@1@PEAU21@0U_Copy_tag@01@@Z@4HA 0000000180011a1c f   bento_sdk:asset_database.obj
 0001:00010a30       ?dtor$0@?0???$create@V?$map@V?$basic_string@DU?$char_traits@D@std@@V?$allocator@D@2@@std@@V?$basic_json@Vmap@std@@Vvector@2@V?$basic_string@DU?$char_traits@D@std@@V?$allocator@D@2@@2@_N_J_KNVallocator@2@Uadl_serializer@nlohmann@@@nlohmann@@U?$less@V?$basic_string@DU?$char_traits@D@std@@V?$allocator@D@2@@std@@@2@V?$allocator@U?$pair@$$CBV?$basic_string@DU?$char_traits@D@std@@V?$allocator@D@2@@std@@V?$basic_json@Vmap@std@@Vvector@2@V?$basic_string@DU?$char_traits@D@std@@V?$allocator@D@2@@2@_N_J_KNVallocator@2@Uadl_serializer@nlohmann@@@nlohmann@@@std@@@2@@std@@$$V@?$basic_json@Vmap@std@@Vvector@2@V?$basic_string@DU?$char_traits@D@std@@V?$allocator@D@2@@2@_N_J_KNVallocator@2@Uadl_serializer@nlohmann@@@nlohmann@@CAPEAV?$map@V?$basic_string@DU?$char_traits@D@std@@V?$allocator@D@2@@std@@V?$basic_json@Vmap@std@@Vvector@2@V?$basic_string@DU?$char_traits@D@std@@V?$allocator@D@2@@2@_N_J_KNVallocator@2@Uadl_serializer@nlohmann@@@nlohmann@@U?$less@V?$basic_string@DU?$char_traits@D@std@@V?$allocator@D@2@@std@@@2@V?$allocator@U?$pair@$$CBV?$basic_string@DU?$char_traits@D@std@@V?$allocator@D@2@@std@@V?$basic_json@Vmap@std@@Vvector@2@V?$basic_string@DU?$char_traits@D@std@@V?$allocator@D@2@@2@_N_J_KNVallocator@2@Uadl_serializer@nlohmann@@@nlohmann@@@std@@@2@@std@@XZ@4HA 0000000180011a30 f   bento_sdk:asset_database.obj
 0001:00010a3c       ?dtor$9@?0???$create@V?$map@V?$basic_string@DU?$char_traits@D@std@@V?$allocator@D@2@@std@@V?$basic_json@Vmap@std@@Vvector@2@V?$basic_string@DU?$char_traits@D@std@@V?$allocator@D@2@@2@_N_J_KNVallocator@2@Uadl_serializer@nlohmann@@@nlohmann@@U?$less@V?$basic_string@DU?$char_traits@D@std@@V?$allocator@D@2@@std@@@2@V?$allocator@U?$pair@$$CBV?$basic_string@DU?$char_traits@D@std@@V?$allocator@D@2@@std@@V?$basic_json@Vmap@std@@Vvector@2@V?$basic_string@DU?$char_traits@D@std@@V?$allocator@D@2@@2@_N_J_KNVallocator@2@Uadl_serializer@nlohmann@@@nlohmann@@@std@@@2@@std@@$$V@?$basic_json@Vmap@std@@Vvector@2@V?$basic_string@DU?$char_traits@D@std@@V?$allocator@D@2@@2@_N_J_KNVallocator@2@Uadl_serializer@nlohmann@@@nlohmann@@CAPEAV?$map@V?$basic_string@DU?$char_traits@D@std@@V?$allocator@D@2@@std@@V?$basic_json@Vmap@std@@Vvector@2@V?$basic_string@DU?$char_traits@D@std@@V?$allocator@D@2@@2@_N_J_KNVallocator@2@Uadl_serializer@nlohmann@@@nlohmann@@U?$less@V?$basic_string@DU?$char_traits@D@std@@V?$allocator@D@2@@std@@@2@V?$allocator@U?$pair@$$CBV?$basic_string@DU?$char_traits@D@std@@V?$allocator@D@2@@std@@V?$basic_json@Vmap@std@@Vvector@2@V?$basic_string@DU?$char_traits@D@std@@V?$allocator@D@2@@2@_N_J_KNVallocator@2@Uadl_serializer@nlohmann@@@nlohmann@@@std@@@2@@std@@XZ@4HA 0000000180011a3c f   bento_sdk:asset_database.obj
 0001:00010a60       ?dtor$0@?0???$to_json@V?$basic_json@Vmap@std@@Vvector@2@V?$basic_string@DU?$char_traits@D@std@@V?$allocator@D@2@@2@_N_J_KNVallocator@2@Uadl_serializer@nlohmann@@@nlohmann@@$$BY04D$0A@@detail@nlohmann@@YAXAEAV?$basic_json@Vmap@std@@Vvector@2@V?$basic_string@DU?$char_traits@D@std@@V?$allocator@D@2@@2@_N_J_KNVallocator@2@Uadl_serializer@nlohmann@@@1@AEAY04$$CBD@Z@4HA 0000000180011a60 f   bento_sdk:asset_database.obj
 0001:00010a70       ?dtor$0@?0???$to_json@V?$basic_json@Vmap@std@@Vvector@2@V?$basic_string@DU?$char_traits@D@std@@V?$allocator@D@2@@2@_N_J_KNVallocator@2@Uadl_serializer@nlohmann@@@nlohmann@@PEBD$0A@@detail@nlohmann@@YAXAEAV?$basic_json@Vmap@std@@Vvector@2@V?$basic_string@DU?$char_traits@D@std@@V?$allocator@D@2@@2@_N_J_KNVallocator@2@Uadl_serializer@nlohmann@@@1@AEBQEBD@Z@4HA 0000000180011a70 f   bento_sdk:asset_database.obj
 0001:00010a80       ?dtor$1@?0???0?$basic_json@Vmap@std@@Vvector@2@V?$basic_string@DU?$char_traits@D@std@@V?$allocator@D@2@@2@_N_J_KNVallocator@2@Uadl_serializer@nlohmann@@@nlohmann@@QEAA@AEBV01@@Z@4HA 0000000180011a80 f   bento_sdk:asset_database.obj
 0001:00010a8c       ?dtor$11@?0???0?$basic_json@Vmap@std@@Vvector@2@V?$basic_string@DU?$char_traits@D@std@@V?$allocator@D@2@@2@_N_J_KNVallocator@2@Uadl_serializer@nlohmann@@@nlohmann@@QEAA@AEBV01@@Z@4HA 0000000180011a8c f   bento_sdk:asset_database.obj
 0001:00010aae       ?dtor$17@?0???0?$basic_json@Vmap@std@@Vvector@2@V?$basic_string@DU?$char_traits@D@std@@V?$allocator@D@2@@2@_N_J_KNVallocator@2@Uadl_serializer@nlohmann@@@nlohmann@@QEAA@AEBV01@@Z@4HA 0000000180011aae f   bento_sdk:asset_database.obj
 0001:00010aba       ?dtor$221@?0???0?$basic_json@Vmap@std@@Vvector@2@V?$basic_string@DU?$char_traits@D@std@@V?$allocator@D@2@@2@_N_J_KNVallocator@2@Uadl_serializer@nlohmann@@@nlohmann@@QEAA@AEBV01@@Z@4HA 0000000180011aba f   bento_sdk:asset_database.obj
 0001:00010ac6       ?dtor$231@?0???0?$basic_json@Vmap@std@@Vvector@2@V?$basic_string@DU?$char_traits@D@std@@V?$allocator@D@2@@2@_N_J_KNVallocator@2@Uadl_serializer@nlohmann@@@nlohmann@@QEAA@AEBV01@@Z@4HA 0000000180011ac6 f   bento_sdk:asset_database.obj
 0001:00010ae8       ?dtor$256@?0???0?$basic_json@Vmap@std@@Vvector@2@V?$basic_string@DU?$char_traits@D@std@@V?$allocator@D@2@@2@_N_J_KNVallocator@2@Uadl_serializer@nlohmann@@@nlohmann@@QEAA@AEBV01@@Z@4HA 0000000180011ae8 f   bento_sdk:asset_database.obj
 0001:00010b07       ?dtor$279@?0???0?$basic_json@Vmap@std@@Vvector@2@V?$basic_string@DU?$char_traits@D@std@@V?$allocator@D@2@@2@_N_J_KNVallocator@2@Uadl_serializer@nlohmann@@@nlohmann@@QEAA@AEBV01@@Z@4HA 0000000180011b07 f   bento_sdk:asset_database.obj
 0001:00010b13       ?dtor$289@?0???0?$basic_json@Vmap@std@@Vvector@2@V?$basic_string@DU?$char_traits@D@std@@V?$allocator@D@2@@2@_N_J_KNVallocator@2@Uadl_serializer@nlohmann@@@nlohmann@@QEAA@AEBV01@@Z@4HA 0000000180011b13 f   bento_sdk:asset_database.obj
 0001:00010b40       ?dtor$0@?0???0?$basic_json@Vmap@std@@Vvector@2@V?$basic_string@DU?$char_traits@D@std@@V?$allocator@D@2@@2@_N_J_KNVallocator@2@Uadl_serializer@nlohmann@@@nlohmann@@QEAA@V?$initializer_list@V?$json_ref@V?$basic_json@Vmap@std@@Vvector@2@V?$basic_string@DU?$char_traits@D@std@@V?$allocator@D@2@@2@_N_J_KNVallocator@2@Uadl_serializer@nlohmann@@@nlohmann@@@detail@nlohmann@@@std@@_NW4value_t@detail@1@@Z@4HA 0000000180011b40 f   bento_sdk:asset_database.obj
 0001:00010b4c       ?dtor$68@?0???0?$basic_json@Vmap@std@@Vvector@2@V?$basic_string@DU?$char_traits@D@std@@V?$allocator@D@2@@2@_N_J_KNVallocator@2@Uadl_serializer@nlohmann@@@nlohmann@@QEAA@V?$initializer_list@V?$json_ref@V?$basic_json@Vmap@std@@Vvector@2@V?$basic_string@DU?$char_traits@D@std@@V?$allocator@D@2@@2@_N_J_KNVallocator@2@Uadl_serializer@nlohmann@@@nlohmann@@@detail@nlohmann@@@std@@_NW4value_t@detail@1@@Z@4HA 0000000180011b4c f   bento_sdk:asset_database.obj
 0001:00010b58       ?dtor$88@?0???0?$basic_json@Vmap@std@@Vvector@2@V?$basic_string@DU?$char_traits@D@std@@V?$allocator@D@2@@2@_N_J_KNVallocator@2@Uadl_serializer@nlohmann@@@nlohmann@@QEAA@V?$initializer_list@V?$json_ref@V?$basic_json@Vmap@std@@Vvector@2@V?$basic_string@DU?$char_traits@D@std@@V?$allocator@D@2@@2@_N_J_KNVallocator@2@Uadl_serializer@nlohmann@@@nlohmann@@@detail@nlohmann@@@std@@_NW4value_t@detail@1@@Z@4HA 0000000180011b58 f   bento_sdk:asset_database.obj
 0001:00010b64       ?dtor$99@?0???0?$basic_json@Vmap@std@@Vvector@2@V?$basic_string@DU?$char_traits@D@std@@V?$allocator@D@2@@2@_N_J_KNVallocator@2@Uadl_serializer@nlohmann@@@nlohmann@@QEAA@V?$initializer_list@V?$json_ref@V?$basic_json@Vmap@std@@Vvector@2@V?$basic_string@DU?$char_traits@D@std@@V?$allocator@D@2@@2@_N_J_KNVallocator@2@Uadl_serializer@nlohmann@@@nlohmann@@@detail@nlohmann@@@std@@_NW4value_t@detail@1@@Z@4HA 0000000180011b64 f   bento_sdk:asset_database.obj
 0001:00010b80       ?dtor$143@?0???0?$basic_json@Vmap@std@@Vvector@2@V?$basic_string@DU?$char_traits@D@std@@V?$allocator@D@2@@2@_N_J_KNVallocator@2@Uadl_serializer@nlohmann@@@nlohmann@@QEAA@V?$initializer_list@V?$json_ref@V?$basic_json@Vmap@std@@Vvector@2@V?$basic_string@DU?$char_traits@D@std@@V?$allocator@D@2@@2@_N_J_KNVallocator@2@Uadl_serializer@nlohmann@@@nlohmann@@@detail@nlohmann@@@std@@_NW4value_t@detail@1@@Z@4HA 0000000180011b80 f   bento_sdk:asset_database.obj
 0001:00010ba0       ?dtor$27@?0???0json_value@?$basic_json@Vmap@std@@Vvector@2@V?$basic_string@DU?$char_traits@D@std@@V?$allocator@D@2@@2@_N_J_KNVallocator@2@Uadl_serializer@nlohmann@@@nlohmann@@QEAA@W4value_t@detail@2@@Z@4HA 0000000180011ba0 f   bento_sdk:asset_database.obj
 0001:00010bac       ?dtor$37@?0???0json_value@?$basic_json@Vmap@std@@Vvector@2@V?$basic_string@DU?$char_traits@D@std@@V?$allocator@D@2@@2@_N_J_KNVallocator@2@Uadl_serializer@nlohmann@@@nlohmann@@QEAA@W4value_t@detail@2@@Z@4HA 0000000180011bac f   bento_sdk:asset_database.obj
 0001:00010bc8       ?dtor$0@?0???0json_value@?$basic_json@Vmap@std@@Vvector@2@V?$basic_string@DU?$char_traits@D@std@@V?$allocator@D@2@@2@_N_J_KNVallocator@2@Uadl_serializer@nlohmann@@@nlohmann@@QEAA@W4value_t@detail@2@@Z@4HA 0000000180011bc8 f   bento_sdk:asset_database.obj
 0001:00010be0       ?dtor$73@?0???A?$basic_json@Vmap@std@@Vvector@2@V?$basic_string@DU?$char_traits@D@std@@V?$allocator@D@2@@2@_N_J_KNVallocator@2@Uadl_serializer@nlohmann@@@nlohmann@@QEAAAEAV01@AEBV?$basic_string@DU?$char_traits@D@std@@V?$allocator@D@2@@std@@@Z@4HA 0000000180011be0 f   bento_sdk:asset_database.obj
 0001:00010bfc       ?dtor$0@?0???A?$basic_json@Vmap@std@@Vvector@2@V?$basic_string@DU?$char_traits@D@std@@V?$allocator@D@2@@2@_N_J_KNVallocator@2@Uadl_serializer@nlohmann@@@nlohmann@@QEAAAEAV01@AEBV?$basic_string@DU?$char_traits@D@std@@V?$allocator@D@2@@std@@@Z@4HA 0000000180011bfc f   bento_sdk:asset_database.obj
 0001:00010c08       ?dtor$1@?0???A?$basic_json@Vmap@std@@Vvector@2@V?$basic_string@DU?$char_traits@D@std@@V?$allocator@D@2@@2@_N_J_KNVallocator@2@Uadl_serializer@nlohmann@@@nlohmann@@QEAAAEAV01@AEBV?$basic_string@DU?$char_traits@D@std@@V?$allocator@D@2@@std@@@Z@4HA 0000000180011c08 f   bento_sdk:asset_database.obj
 0001:00010c20       ?dtor$0@?0??create@other_error@detail@nlohmann@@SA?AV123@HAEBV?$basic_string@DU?$char_traits@D@std@@V?$allocator@D@2@@std@@@Z@4HA 0000000180011c20 f   bento_sdk:asset_database.obj
 0001:00010c2c       ?dtor$1@?0??create@other_error@detail@nlohmann@@SA?AV123@HAEBV?$basic_string@DU?$char_traits@D@std@@V?$allocator@D@2@@std@@@Z@4HA 0000000180011c2c f   bento_sdk:asset_database.obj
 0001:00010c40       ?dtor$0@?0??create@type_error@detail@nlohmann@@SA?AV123@HAEBV?$basic_string@DU?$char_traits@D@std@@V?$allocator@D@2@@std@@@Z@4HA 0000000180011c40 f   bento_sdk:asset_database.obj
 0001:00010c4c       ?dtor$1@?0??create@type_error@detail@nlohmann@@SA?AV123@HAEBV?$basic_string@DU?$char_traits@D@std@@V?$allocator@D@2@@std@@@Z@4HA 0000000180011c4c f   bento_sdk:asset_database.obj
 0001:00010c60       ?dtor$0@?0??dump@?$basic_json@Vmap@std@@Vvector@2@V?$basic_string@DU?$char_traits@D@std@@V?$allocator@D@2@@2@_N_J_KNVallocator@2@Uadl_serializer@nlohmann@@@nlohmann@@QEBA?AV?$basic_string@DU?$char_traits@D@std@@V?$allocator@D@2@@std@@HD_N@Z@4HA 0000000180011c60 f   bento_sdk:asset_database.obj
 0001:00010c86       ?dtor$1@?0??dump@?$basic_json@Vmap@std@@Vvector@2@V?$basic_string@DU?$char_traits@D@std@@V?$allocator@D@2@@2@_N_J_KNVallocator@2@Uadl_serializer@nlohmann@@@nlohmann@@QEBA?AV?$basic_string@DU?$char_traits@D@std@@V?$allocator@D@2@@std@@HD_N@Z@4HA 0000000180011c86 f   bento_sdk:asset_database.obj
 0001:00010c92       ?dtor$24@?0??dump@?$basic_json@Vmap@std@@Vvector@2@V?$basic_string@DU?$char_traits@D@std@@V?$allocator@D@2@@2@_N_J_KNVallocator@2@Uadl_serializer@nlohmann@@@nlohmann@@QEBA?AV?$basic_string@DU?$char_traits@D@std@@V?$allocator@D@2@@std@@HD_N@Z@4HA 0000000180011c92 f   bento_sdk:asset_database.obj
 0001:00010c9e       ?dtor$25@?0??dump@?$basic_json@Vmap@std@@Vvector@2@V?$basic_string@DU?$char_traits@D@std@@V?$allocator@D@2@@2@_N_J_KNVallocator@2@Uadl_serializer@nlohmann@@@nlohmann@@QEBA?AV?$basic_string@DU?$char_traits@D@std@@V?$allocator@D@2@@std@@HD_N@Z@4HA 0000000180011c9e f   bento_sdk:asset_database.obj
 0001:00010caa       ?dtor$3@?0??dump@?$basic_json@Vmap@std@@Vvector@2@V?$basic_string@DU?$char_traits@D@std@@V?$allocator@D@2@@2@_N_J_KNVallocator@2@Uadl_serializer@nlohmann@@@nlohmann@@QEBA?AV?$basic_string@DU?$char_traits@D@std@@V?$allocator@D@2@@std@@HD_N@Z@4HA 0000000180011caa f   bento_sdk:asset_database.obj
 0001:00010cc0       ?dtor$23@?0??dump_escaped@?$serializer@V?$basic_json@Vmap@std@@Vvector@2@V?$basic_string@DU?$char_traits@D@std@@V?$allocator@D@2@@2@_N_J_KNVallocator@2@Uadl_serializer@nlohmann@@@nlohmann@@@detail@nlohmann@@AEAAXAEBV?$basic_string@DU?$char_traits@D@std@@V?$allocator@D@2@@std@@_N@Z@4HA 0000000180011cc0 f   bento_sdk:asset_database.obj
 0001:00010cee       ?dtor$24@?0??dump_escaped@?$serializer@V?$basic_json@Vmap@std@@Vvector@2@V?$basic_string@DU?$char_traits@D@std@@V?$allocator@D@2@@2@_N_J_KNVallocator@2@Uadl_serializer@nlohmann@@@nlohmann@@@detail@nlohmann@@AEAAXAEBV?$basic_string@DU?$char_traits@D@std@@V?$allocator@D@2@@std@@_N@Z@4HA 0000000180011cee f   bento_sdk:asset_database.obj
 0001:00010d00       ?dtor$26@?0??dump_escaped@?$serializer@V?$basic_json@Vmap@std@@Vvector@2@V?$basic_string@DU?$char_traits@D@std@@V?$allocator@D@2@@2@_N_J_KNVallocator@2@Uadl_serializer@nlohmann@@@nlohmann@@@detail@nlohmann@@AEAAXAEBV?$basic_string@DU?$char_traits@D@std@@V?$allocator@D@2@@std@@_N@Z@4HA 0000000180011d00 f   bento_sdk:asset_database.obj
 0001:00010d0e       ?dtor$0@?0??dump_escaped@?$serializer@V?$basic_json@Vmap@std@@Vvector@2@V?$basic_string@DU?$char_traits@D@std@@V?$allocator@D@2@@2@_N_J_KNVallocator@2@Uadl_serializer@nlohmann@@@nlohmann@@@detail@nlohmann@@AEAAXAEBV?$basic_string@DU?$char_traits@D@std@@V?$allocator@D@2@@std@@_N@Z@4HA 0000000180011d0e f   bento_sdk:asset_database.obj
 0001:00010d1a       ?dtor$1@?0??dump_escaped@?$serializer@V?$basic_json@Vmap@std@@Vvector@2@V?$basic_string@DU?$char_traits@D@std@@V?$allocator@D@2@@2@_N_J_KNVallocator@2@Uadl_serializer@nlohmann@@@nlohmann@@@detail@nlohmann@@AEAAXAEBV?$basic_string@DU?$char_traits@D@std@@V?$allocator@D@2@@std@@_N@Z@4HA 0000000180011d1a f   bento_sdk:asset_database.obj
 0001:00010d26       ?dtor$2@?0??dump_escaped@?$serializer@V?$basic_json@Vmap@std@@Vvector@2@V?$basic_string@DU?$char_traits@D@std@@V?$allocator@D@2@@2@_N_J_KNVallocator@2@Uadl_serializer@nlohmann@@@nlohmann@@@detail@nlohmann@@AEAAXAEBV?$basic_string@DU?$char_traits@D@std@@V?$allocator@D@2@@std@@_N@Z@4HA 0000000180011d26 f   bento_sdk:asset_database.obj
 0001:00010d32       ?dtor$3@?0??dump_escaped@?$serializer@V?$basic_json@Vmap@std@@Vvector@2@V?$basic_string@DU?$char_traits@D@std@@V?$allocator@D@2@@2@_N_J_KNVallocator@2@Uadl_serializer@nlohmann@@@nlohmann@@@detail@nlohmann@@AEAAXAEBV?$basic_string@DU?$char_traits@D@std@@V?$allocator@D@2@@std@@_N@Z@4HA 0000000180011d32 f   bento_sdk:asset_database.obj
 0001:00010d3e       ?dtor$4@?0??dump_escaped@?$serializer@V?$basic_json@Vmap@std@@Vvector@2@V?$basic_string@DU?$char_traits@D@std@@V?$allocator@D@2@@2@_N_J_KNVallocator@2@Uadl_serializer@nlohmann@@@nlohmann@@@detail@nlohmann@@AEAAXAEBV?$basic_string@DU?$char_traits@D@std@@V?$allocator@D@2@@std@@_N@Z@4HA 0000000180011d3e f   bento_sdk:asset_database.obj
 0001:00010d4a       ?dtor$5@?0??dump_escaped@?$serializer@V?$basic_json@Vmap@std@@Vvector@2@V?$basic_string@DU?$char_traits@D@std@@V?$allocator@D@2@@2@_N_J_KNVallocator@2@Uadl_serializer@nlohmann@@@nlohmann@@@detail@nlohmann@@AEAAXAEBV?$basic_string@DU?$char_traits@D@std@@V?$allocator@D@2@@std@@_N@Z@4HA 0000000180011d4a f   bento_sdk:asset_database.obj
 0001:00010d56       ?dtor$106@?0??dump_escaped@?$serializer@V?$basic_json@Vmap@std@@Vvector@2@V?$basic_string@DU?$char_traits@D@std@@V?$allocator@D@2@@2@_N_J_KNVallocator@2@Uadl_serializer@nlohmann@@@nlohmann@@@detail@nlohmann@@AEAAXAEBV?$basic_string@DU?$char_traits@D@std@@V?$allocator@D@2@@std@@_N@Z@4HA 0000000180011d56 f   bento_sdk:asset_database.obj
 0001:00010d87       ?dtor$107@?0??dump_escaped@?$serializer@V?$basic_json@Vmap@std@@Vvector@2@V?$basic_string@DU?$char_traits@D@std@@V?$allocator@D@2@@2@_N_J_KNVallocator@2@Uadl_serializer@nlohmann@@@nlohmann@@@detail@nlohmann@@AEAAXAEBV?$basic_string@DU?$char_traits@D@std@@V?$allocator@D@2@@std@@_N@Z@4HA 0000000180011d87 f   bento_sdk:asset_database.obj
 0001:00010d99       ?dtor$109@?0??dump_escaped@?$serializer@V?$basic_json@Vmap@std@@Vvector@2@V?$basic_string@DU?$char_traits@D@std@@V?$allocator@D@2@@2@_N_J_KNVallocator@2@Uadl_serializer@nlohmann@@@nlohmann@@@detail@nlohmann@@AEAAXAEBV?$basic_string@DU?$char_traits@D@std@@V?$allocator@D@2@@std@@_N@Z@4HA 0000000180011d99 f   bento_sdk:asset_database.obj
 0001:00010da7       ?dtor$6@?0??dump_escaped@?$serializer@V?$basic_json@Vmap@std@@Vvector@2@V?$basic_string@DU?$char_traits@D@std@@V?$allocator@D@2@@2@_N_J_KNVallocator@2@Uadl_serializer@nlohmann@@@nlohmann@@@detail@nlohmann@@AEAAXAEBV?$basic_string@DU?$char_traits@D@std@@V?$allocator@D@2@@std@@_N@Z@4HA 0000000180011da7 f   bento_sdk:asset_database.obj
 0001:00010db3       ?dtor$7@?0??dump_escaped@?$serializer@V?$basic_json@Vmap@std@@Vvector@2@V?$basic_string@DU?$char_traits@D@std@@V?$allocator@D@2@@2@_N_J_KNVallocator@2@Uadl_serializer@nlohmann@@@nlohmann@@@detail@nlohmann@@AEAAXAEBV?$basic_string@DU?$char_traits@D@std@@V?$allocator@D@2@@std@@_N@Z@4HA 0000000180011db3 f   bento_sdk:asset_database.obj
 0001:00010dbf       ?dtor$8@?0??dump_escaped@?$serializer@V?$basic_json@Vmap@std@@Vvector@2@V?$basic_string@DU?$char_traits@D@std@@V?$allocator@D@2@@2@_N_J_KNVallocator@2@Uadl_serializer@nlohmann@@@nlohmann@@@detail@nlohmann@@AEAAXAEBV?$basic_string@DU?$char_traits@D@std@@V?$allocator@D@2@@std@@_N@Z@4HA 0000000180011dbf f   bento_sdk:asset_database.obj
 0001:00010dd0       ?dtor$0@?0??name@exception@detail@nlohmann@@KA?AV?$basic_string@DU?$char_traits@D@std@@V?$allocator@D@2@@std@@AEBV45@H@Z@4HA 0000000180011dd0 f   bento_sdk:asset_database.obj
 0001:00010ddc       ?dtor$1@?0??name@exception@detail@nlohmann@@KA?AV?$basic_string@DU?$char_traits@D@std@@V?$allocator@D@2@@std@@AEBV45@H@Z@4HA 0000000180011ddc f   bento_sdk:asset_database.obj
 0001:00010de8       ?dtor$2@?0??name@exception@detail@nlohmann@@KA?AV?$basic_string@DU?$char_traits@D@std@@V?$allocator@D@2@@std@@AEBV45@H@Z@4HA 0000000180011de8 f   bento_sdk:asset_database.obj
 0001:00010df4       ?dtor$3@?0??name@exception@detail@nlohmann@@KA?AV?$basic_string@DU?$char_traits@D@std@@V?$allocator@D@2@@std@@AEBV45@H@Z@4HA 0000000180011df4 f   bento_sdk:asset_database.obj
 0001:00010e00       ?dtor$12@?0??resize@?$Vector@UTAsset@bento@@@bento@@QEAAXI@Z@4HA 0000000180011e00 f   bento_sdk:asset_database.obj
 0001:00010e1c       ?dtor$13@?0??resize@?$Vector@UTAsset@bento@@@bento@@QEAAXI@Z@4HA 0000000180011e1c f   bento_sdk:asset_database.obj
 0001:00010e2c       ?dtor$17@?0??resize@?$Vector@UTAsset@bento@@@bento@@QEAAXI@Z@4HA 0000000180011e2c f   bento_sdk:asset_database.obj
 0001:00010e48       ?dtor$18@?0??resize@?$Vector@UTAsset@bento@@@bento@@QEAAXI@Z@4HA 0000000180011e48 f   bento_sdk:asset_database.obj
 0001:00010e60       ?dtor$0@?0??to_string@bento@@YAXAEAVDynamicString@1@AEBVTAssetDatabase@1@@Z@4HA 0000000180011e60 f   bento_sdk:asset_database.obj
 0001:00010e6c       ?dtor$31@?0??to_string@bento@@YAXAEAVDynamicString@1@AEBVTAssetDatabase@1@@Z@4HA 0000000180011e6c f   bento_sdk:asset_database.obj
 0001:00010e78       ?dtor$1@?0??to_string@bento@@YAXAEAVDynamicString@1@AEBVTAssetDatabase@1@@Z@4HA 0000000180011e78 f   bento_sdk:asset_database.obj
 0001:00010e84       ?dtor$103@?0??to_string@bento@@YAXAEAVDynamicString@1@AEBVTAssetDatabase@1@@Z@4HA 0000000180011e84 f   bento_sdk:asset_database.obj
 0001:00010e90       ?dtor$3@?0??to_string@bento@@YAXAEAVDynamicString@1@AEBVTAssetDatabase@1@@Z@4HA 0000000180011e90 f   bento_sdk:asset_database.obj
 0001:00010eba       ?dtor$4@?0??to_string@bento@@YAXAEAVDynamicString@1@AEBVTAssetDatabase@1@@Z@4HA 0000000180011eba f   bento_sdk:asset_database.obj
 0001:00010ec6       ?dtor$177@?0??to_string@bento@@YAXAEAVDynamicString@1@AEBVTAssetDatabase@1@@Z@4HA 0000000180011ec6 f   bento_sdk:asset_database.obj
 0001:00010ed2       ?dtor$5@?0??to_string@bento@@YAXAEAVDynamicString@1@AEBVTAssetDatabase@1@@Z@4HA 0000000180011ed2 f   bento_sdk:asset_database.obj
 0001:00010ede       ?dtor$240@?0??to_string@bento@@YAXAEAVDynamicString@1@AEBVTAssetDatabase@1@@Z@4HA 0000000180011ede f   bento_sdk:asset_database.obj
 0001:00010eea       ?dtor$7@?0??to_string@bento@@YAXAEAVDynamicString@1@AEBVTAssetDatabase@1@@Z@4HA 0000000180011eea f   bento_sdk:asset_database.obj
 0001:00010f17       ?dtor$8@?0??to_string@bento@@YAXAEAVDynamicString@1@AEBVTAssetDatabase@1@@Z@4HA 0000000180011f17 f   bento_sdk:asset_database.obj
 0001:00010f23       ?dtor$260@?0??to_string@bento@@YAXAEAVDynamicString@1@AEBVTAssetDatabase@1@@Z@4HA 0000000180011f23 f   bento_sdk:asset_database.obj
 0001:00010f2f       ?dtor$9@?0??to_string@bento@@YAXAEAVDynamicString@1@AEBVTAssetDatabase@1@@Z@4HA 0000000180011f2f f   bento_sdk:asset_database.obj
 0001:00010f3b       ?dtor$10@?0??to_string@bento@@YAXAEAVDynamicString@1@AEBVTAssetDatabase@1@@Z@4HA 0000000180011f3b f   bento_sdk:asset_database.obj
 0001:00010f47       ?dtor$12@?0??to_string@bento@@YAXAEAVDynamicString@1@AEBVTAssetDatabase@1@@Z@4HA 0000000180011f47 f   bento_sdk:asset_database.obj
 0001:00010f74       ?dtor$13@?0??to_string@bento@@YAXAEAVDynamicString@1@AEBVTAssetDatabase@1@@Z@4HA 0000000180011f74 f   bento_sdk:asset_database.obj
 0001:00010f80       ?dtor$302@?0??to_string@bento@@YAXAEAVDynamicString@1@AEBVTAssetDatabase@1@@Z@4HA 0000000180011f80 f   bento_sdk:asset_database.obj
 0001:00010f8c       ?dtor$16@?0??to_string@bento@@YAXAEAVDynamicString@1@AEBVTAssetDatabase@1@@Z@4HA 0000000180011f8c f   bento_sdk:asset_database.obj
 0001:00010fb9       ?dtor$17@?0??to_string@bento@@YAXAEAVDynamicString@1@AEBVTAssetDatabase@1@@Z@4HA 0000000180011fb9 f   bento_sdk:asset_database.obj
 0001:00010fc5       ?dtor$18@?0??to_string@bento@@YAXAEAVDynamicString@1@AEBVTAssetDatabase@1@@Z@4HA 0000000180011fc5 f   bento_sdk:asset_database.obj
 0001:00010ff2       ?dtor$19@?0??to_string@bento@@YAXAEAVDynamicString@1@AEBVTAssetDatabase@1@@Z@4HA 0000000180011ff2 f   bento_sdk:asset_database.obj
 0001:00010ffe       ?dtor$20@?0??to_string@bento@@YAXAEAVDynamicString@1@AEBVTAssetDatabase@1@@Z@4HA 0000000180011ffe f   bento_sdk:asset_database.obj
 0001:0001100a       ?dtor$21@?0??to_string@bento@@YAXAEAVDynamicString@1@AEBVTAssetDatabase@1@@Z@4HA 000000018001200a f   bento_sdk:asset_database.obj
 0001:00011020       ?dtor$0@?0??collect_files_with_extension@file_system@bento@@YAXPEBD0AEAV?$Vector@VDynamicString@bento@@@2@@Z@4HA 0000000180012020 f   bento_sdk:file_system.obj
 0001:0001102c       ?dtor$1@?0??collect_files_with_extension@file_system@bento@@YAXPEBD0AEAV?$Vector@VDynamicString@bento@@@2@@Z@4HA 000000018001202c f   bento_sdk:file_system.obj
 0001:00011038       ?dtor$2@?0??collect_files_with_extension@file_system@bento@@YAXPEBD0AEAV?$Vector@VDynamicString@bento@@@2@@Z@4HA 0000000180012038 f   bento_sdk:file_system.obj
 0001:00011044       ?dtor$17@?0??collect_files_with_extension@file_system@bento@@YAXPEBD0AEAV?$Vector@VDynamicString@bento@@@2@@Z@4HA 0000000180012044 f   bento_sdk:file_system.obj
 0001:00011070       ?dtor$1@?0??push_back@?$Vector@VDynamicString@bento@@@bento@@QEAAXAEBVDynamicString@2@@Z@4HA 0000000180012070 f   bento_sdk:file_system.obj
 0001:00011090       ?dtor$0@?0??internal_read_buffer@DiskSerializer@bento@@AEAA_NAEAV?$Vector@D@2@PEBD1@Z@4HA 0000000180012090 f   bento_sdk:disk_serializer.obj
 0001:0001109c       ?dtor$1@?0??internal_read_buffer@DiskSerializer@bento@@AEAA_NAEAV?$Vector@D@2@PEBD1@Z@4HA 000000018001209c f   bento_sdk:disk_serializer.obj
 0001:000110b0       ?dtor$0@?0??internal_read_string@DiskSerializer@bento@@AEAA_NAEAVDynamicString@2@PEBD1@Z@4HA 00000001800120b0 f   bento_sdk:disk_serializer.obj
 0001:000110bc       ?dtor$1@?0??internal_read_string@DiskSerializer@bento@@AEAA_NAEAVDynamicString@2@PEBD1@Z@4HA 00000001800120bc f   bento_sdk:disk_serializer.obj
 0001:000110c8       ?dtor$2@?0??internal_read_string@DiskSerializer@bento@@AEAA_NAEAVDynamicString@2@PEBD1@Z@4HA 00000001800120c8 f   bento_sdk:disk_serializer.obj
 0001:000110e0       ?dtor$0@?0??internal_write_buffer@DiskSerializer@bento@@AEAA_NAEBV?$Vector@D@2@PEBD1@Z@4HA 00000001800120e0 f   bento_sdk:disk_serializer.obj
 0001:000110ec       ?dtor$1@?0??internal_write_buffer@DiskSerializer@bento@@AEAA_NAEBV?$Vector@D@2@PEBD1@Z@4HA 00000001800120ec f   bento_sdk:disk_serializer.obj
 0001:00011100       ?dtor$0@?0??internal_write_string@DiskSerializer@bento@@AEAA_NAEBVDynamicString@2@PEBD1@Z@4HA 0000000180012100 f   bento_sdk:disk_serializer.obj
 0001:0001110c       ?dtor$1@?0??internal_write_string@DiskSerializer@bento@@AEAA_NAEBVDynamicString@2@PEBD1@Z@4HA 000000018001210c f   bento_sdk:disk_serializer.obj
 0001:00011120       ?dtor$2@?0???$?6U?$char_traits@D@std@@@std@@YAAEAV?$basic_ostream@DU?$char_traits@D@std@@@0@AEAV10@PEBD@Z@4HA 0000000180012120 f   bento_sdk:matrix4.obj
 0001:0001112c       ?dtor$0@?0???$?6U?$char_traits@D@std@@@std@@YAAEAV?$basic_ostream@DU?$char_traits@D@std@@@0@AEAV10@PEBD@Z@4HA 000000018001212c f   bento_sdk:matrix4.obj
 0001:00011138       __scrt_is_nonwritable_in_current_image$filt$0 0000000180012138 f   MSVCRT:utility.obj
 0001:00011150       ?fin$0@?0??dllmain_crt_process_attach@@YAHQEAUHINSTANCE__@@QEAX@Z@4HA 0000000180012150 f   MSVCRT:dll_dllmain.obj
 0001:00011167       ?fin$0@?0??dllmain_crt_process_detach@@YAH_N@Z@4HA 0000000180012167 f   MSVCRT:dll_dllmain.obj
 0001:00011183       ?filt$0@?0??dllmain_dispatch@@YAHQEAUHINSTANCE__@@KQEAX@Z@4HA 0000000180012183 f   MSVCRT:dll_dllmain.obj
 0001:000111bc       ?fin$0@?0???_M@YAXPEAX_K1P6AX0@Z@Z@4HA 00000001800121bc f   MSVCRT:ehvecdtr.obj
 0001:000111e8       ?filt$0@?0??__ArrayUnwind@@YAXPEAX_K1P6AX0@Z@Z@4HA 00000001800121e8 f   MSVCRT:ehvecdtr.obj
 0001:00011230       ??__F_base_allocator@@YAXXZ 0000000180012230 f   allocator_c_api.obj
 0001:00011240       ??__F__common_allocator@bento@@YAXXZ 0000000180012240 f   bento_sdk:common.obj
 0001:00011250       ??__F__default_system_logger@bento@@YAXXZ 0000000180012250 f   bento_sdk:log.obj
 0002:00000468       ?_base_allocator$initializer$@@3P6AXXZEA 0000000180013468     allocator_c_api.obj
 0002:00000470       ?__common_allocator$initializer$@bento@@3P6AXXZEA 0000000180013470     bento_sdk:common.obj
 0002:00000478       ?__default_system_logger$initializer$@bento@@3P6AXXZEA 0000000180013478     bento_sdk:log.obj
 0002:000004c0       $cppxdata$nl_adb_build     00000001800134c0     asset_database_c_api.obj
 0002:000004e8       $cppxdata$??1?$Vector@D@bento@@QEAA@XZ 00000001800134e8     asset_database_c_api.obj
 0002:00000510       $cppxdata$??1DynamicString@bento@@QEAA@XZ 0000000180013510     noiseless_sdk:compiler.obj
 0002:00000538       $cppxdata$?compile@asset_compiler@noiseless@@YA_NAEBUTCompilerOptions@2@AEAVTAssetDatabase@bento@@@Z 0000000180013538     noiseless_sdk:compiler.obj
 0002:00000560       $cppxdata$?write@asset_compiler@noiseless@@YAXAEBUTCompilerOptions@2@AEBVTAssetDatabase@bento@@@Z 0000000180013560     noiseless_sdk:compiler.obj
 0002:00000588       $cppxdata$??1TKernelSource@noiseless@@QEAA@XZ 0000000180013588     noiseless_sdk:compiler.obj
 0002:000005b0       $cppxdata$??1?$Vector@VDynamicString@bento@@@bento@@QEAA@XZ 00000001800135b0     noiseless_sdk:compiler.obj
 0002:000005d8       $cppxdata$?free@?$Vector@VDynamicString@bento@@@bento@@QEAAXXZ 00000001800135d8     noiseless_sdk:compiler.obj
 0002:00000600       $cppxdata$?clear@?$Vector@VDynamicString@bento@@@bento@@QEAAXXZ 0000000180013600     noiseless_sdk:compiler.obj
 0002:00000670       $cppxdata$?init_resources@TIntegrator@noiseless@@QEAAXAEBVTAssetDatabase@bento@@@Z 0000000180013670     noiseless_sdk:integrator.obj
 0002:000006f8       $cppxdata$??1?$Vector@UVector3@bento@@@bento@@QEAA@XZ 00000001800136f8     noiseless_sdk:scene.obj
 0002:00000720       $cppxdata$??1?$Vector@UIVector3@bento@@@bento@@QEAA@XZ 0000000180013720     noiseless_sdk:scene.obj
 0002:00000748       $cppxdata$??1?$Vector@UTMesh@noiseless@@@bento@@QEAA@XZ 0000000180013748     noiseless_sdk:scene.obj
 0002:00000770       $cppxdata$?resize@?$Vector@UTMesh@noiseless@@@bento@@QEAAXI@Z 0000000180013770     noiseless_sdk:scene.obj
 0002:00000798       $cppxdata$?clear@?$Vector@UTMesh@noiseless@@@bento@@QEAAXXZ 0000000180013798     noiseless_sdk:scene.obj
 0002:000007c0       ?KERNEL_SOURCE_VERSION@bento@@3IB 00000001800137c0     noiseless_sdk:kernel_source.obj
 0002:000007d0       $cppxdata$?write_database@noiseless@@YA_NPEBDAEBVTAssetDatabase@bento@@@Z 00000001800137d0     noiseless_sdk:asset_database_helpers.obj
 0002:000007f8       $cppxdata$?read_database@noiseless@@YA_NPEBDAEAVTAssetDatabase@bento@@@Z 00000001800137f8     noiseless_sdk:asset_database_helpers.obj
 0002:00000820       $cppxdata$?write_database_debug@noiseless@@YA_NPEBDAEBVTAssetDatabase@bento@@@Z 0000000180013820     noiseless_sdk:asset_database_helpers.obj
 0002:00000848       $cppxdata$??1DiskSerializer@bento@@QEAA@XZ 0000000180013848     noiseless_sdk:asset_database_helpers.obj
 0002:00000890       $cppxdata$?create_compute_context@noiseless@@YA_KXZ 0000000180013890     noiseless_sdk:compute_api.obj
 0002:00000a30       $cppxdata$?create_compute_scene@noiseless@@YAX_KAEBVTScene@1@AEAUTComputeScene@1@@Z 0000000180013a30     noiseless_sdk:compute_scene.obj
 0002:00000a58       $cppxdata$??1?$Vector@UVector4@bento@@@bento@@QEAA@XZ 0000000180013a58     noiseless_sdk:compute_scene.obj
 0002:00000a80       $cppxdata$??1?$Vector@UIVector4@bento@@@bento@@QEAA@XZ 0000000180013a80     noiseless_sdk:compute_scene.obj
 0002:00000ae0       $cppxdata$??0DynamicString@bento@@QEAA@AEAVIAllocator@1@@Z 0000000180013ae0     bento_sdk:dynamic_string.obj
 0002:00000b08       $cppxdata$??0DynamicString@bento@@QEAA@AEAVIAllocator@1@PEBD@Z 0000000180013b08     bento_sdk:dynamic_string.obj
 0002:00000b30       $cppxdata$??0DynamicString@bento@@QEAA@AEAVIAllocator@1@I@Z 0000000180013b30     bento_sdk:dynamic_string.obj
 0002:00000b58       $cppxdata$??0DynamicString@bento@@QEAA@AEBV01@@Z 0000000180013b58     bento_sdk:dynamic_string.obj
 0002:00000b80       $cppxdata$?substr@string@bento@@YA?AVDynamicString@2@AEBV32@II@Z 0000000180013b80     bento_sdk:dynamic_string.obj
 0002:00000ba8       ?piecewise_construct@std@@3Upiecewise_construct_t@1@B 0000000180013ba8     bento_sdk:asset_database.obj
 0002:00000bac       ?DATABASE_VERSION@bento@@3IB 0000000180013bac     bento_sdk:asset_database.obj
 0002:00000bb0       $cppxdata$??1TAssetDatabase@bento@@QEAA@XZ 0000000180013bb0     bento_sdk:asset_database.obj
 0002:00000bd8       $cppxdata$??1?$Vector@UTAsset@bento@@@bento@@QEAA@XZ 0000000180013bd8     bento_sdk:asset_database.obj
 0002:00000c00       $cppxdata$?resize@?$Vector@UTAsset@bento@@@bento@@QEAAXI@Z 0000000180013c00     bento_sdk:asset_database.obj
 0002:00000c28       $cppxdata$?clear@?$Vector@UTAsset@bento@@@bento@@QEAAXXZ 0000000180013c28     bento_sdk:asset_database.obj
 0002:00000c50       $cppxdata$?to_string@bento@@YAXAEAVDynamicString@1@AEBVTAssetDatabase@1@@Z 0000000180013c50     bento_sdk:asset_database.obj
 0002:00000c78       $cppxdata$?name@exception@detail@nlohmann@@KA?AV?$basic_string@DU?$char_traits@D@std@@V?$allocator@D@2@@std@@AEBV45@H@Z 0000000180013c78     bento_sdk:asset_database.obj
 0002:00000ca0       $cppxdata$??$?HDU?$char_traits@D@std@@V?$allocator@D@1@@std@@YA?AV?$basic_string@DU?$char_traits@D@std@@V?$allocator@D@2@@0@QEBDAEBV10@@Z 0000000180013ca0     bento_sdk:asset_database.obj
 0002:00000cc8       $cppxdata$?create@type_error@detail@nlohmann@@SA?AV123@HAEBV?$basic_string@DU?$char_traits@D@std@@V?$allocator@D@2@@std@@@Z 0000000180013cc8     bento_sdk:asset_database.obj
 0002:00000cf0       $cppxdata$?create@other_error@detail@nlohmann@@SA?AV123@HAEBV?$basic_string@DU?$char_traits@D@std@@V?$allocator@D@2@@std@@@Z 0000000180013cf0     bento_sdk:asset_database.obj
 0002:00000d18       $cppxdata$??0?$basic_json@Vmap@std@@Vvector@2@V?$basic_string@DU?$char_traits@D@std@@V?$allocator@D@2@@2@_N_J_KNVallocator@2@Uadl_serializer@nlohmann@@@nlohmann@@QEAA@V?$initializer_list@V?$json_ref@V?$basic_json@Vmap@std@@Vvector@2@V?$basic_string@DU?$char_traits@D@std@@V?$allocator@D@2@@2@_N_J_KNVallocator@2@Uadl_serializer@nlohmann@@@nlohmann@@@detail@nlohmann@@@std@@_NW4value_t@detail@1@@Z 0000000180013d18     bento_sdk:asset_database.obj
 0002:00000d40       $cppxdata$??0?$basic_json@Vmap@std@@Vvector@2@V?$basic_string@DU?$char_traits@D@std@@V?$allocator@D@2@@2@_N_J_KNVallocator@2@Uadl_serializer@nlohmann@@@nlohmann@@QEAA@AEBV01@@Z 0000000180013d40     bento_sdk:asset_database.obj
 0002:00000d68       $cppxdata$?dump@?$basic_json@Vmap@std@@Vvector@2@V?$basic_string@DU?$char_traits@D@std@@V?$allocator@D@2@@2@_N_J_KNVallocator@2@Uadl_serializer@nlohmann@@@nlohmann@@QEBA?AV?$basic_string@DU?$char_traits@D@std@@V?$allocator@D@2@@std@@HD_N@Z 0000000180013d68     bento_sdk:asset_database.obj
 0002:00000d90       $cppxdata$??A?$basic_json@Vmap@std@@Vvector@2@V?$basic_string@DU?$char_traits@D@std@@V?$allocator@D@2@@2@_N_J_KNVallocator@2@Uadl_serializer@nlohmann@@@nlohmann@@QEAAAEAV01@AEBV?$basic_string@DU?$char_traits@D@std@@V?$allocator@D@2@@std@@@Z 0000000180013d90     bento_sdk:asset_database.obj
 0002:00000db8       $cppxdata$??0json_value@?$basic_json@Vmap@std@@Vvector@2@V?$basic_string@DU?$char_traits@D@std@@V?$allocator@D@2@@2@_N_J_KNVallocator@2@Uadl_serializer@nlohmann@@@nlohmann@@QEAA@W4value_t@detail@2@@Z 0000000180013db8     bento_sdk:asset_database.obj
 0002:00000de0       $cppxdata$?destroy@json_value@?$basic_json@Vmap@std@@Vvector@2@V?$basic_string@DU?$char_traits@D@std@@V?$allocator@D@2@@2@_N_J_KNVallocator@2@Uadl_serializer@nlohmann@@@nlohmann@@QEAAXW4value_t@detail@3@@Z 0000000180013de0     bento_sdk:asset_database.obj
 0002:00000e08       $cppxdata$??$create@V?$map@V?$basic_string@DU?$char_traits@D@std@@V?$allocator@D@2@@std@@V?$basic_json@Vmap@std@@Vvector@2@V?$basic_string@DU?$char_traits@D@std@@V?$allocator@D@2@@2@_N_J_KNVallocator@2@Uadl_serializer@nlohmann@@@nlohmann@@U?$less@V?$basic_string@DU?$char_traits@D@std@@V?$allocator@D@2@@std@@@2@V?$allocator@U?$pair@$$CBV?$basic_string@DU?$char_traits@D@std@@V?$allocator@D@2@@std@@V?$basic_json@Vmap@std@@Vvector@2@V?$basic_string@DU?$char_traits@D@std@@V?$allocator@D@2@@2@_N_J_KNVallocator@2@Uadl_serializer@nlohmann@@@nlohmann@@@std@@@2@@std@@$$V@?$basic_json@Vmap@std@@Vvector@2@V?$basic_string@DU?$char_traits@D@std@@V?$allocator@D@2@@2@_N_J_KNVallocator@2@Uadl_serializer@nlohmann@@@nlohmann@@CAPEAV?$map@V?$basic_string@DU?$char_traits@D@std@@V?$allocator@D@2@@std@@V?$basic_json@Vmap@std@@Vvector@2@V?$basic_string@DU?$char_traits@D@std@@V?$allocator@D@2@@2@_N_J_KNVallocator@2@Uadl_serializer@nlohmann@@@nlohmann@@U?$less@V?$basic_string@DU?$char_traits@D@std@@V?$allocator@D@2@@std@@@2@V?$allocator@U?$pair@$$CBV?$basic_string@DU?$char_traits@D@std@@V?$allocator@D@2@@std@@V?$basic_json@Vmap@std@@Vvector@2@V?$basic_string@DU?$char_traits@D@std@@V?$allocator@D@2@@2@_N_J_KNVallocator@2@Uadl_serializer@nlohmann@@@nlohmann@@@std@@@2@@std@@XZ 0000000180013e08     bento_sdk:asset_database.obj
 0002:00000e30       $cppxdata$?dump_escaped@?$serializer@V?$basic_json@Vmap@std@@Vvector@2@V?$basic_string@DU?$char_traits@D@std@@V?$allocator@D@2@@2@_N_J_KNVallocator@2@Uadl_serializer@nlohmann@@@nlohmann@@@detail@nlohmann@@AEAAXAEBV?$basic_string@DU?$char_traits@D@std@@V?$allocator@D@2@@std@@_N@Z 0000000180013e30     bento_sdk:asset_database.obj
 0002:00000e58       $cppxdata$??$to_json@V?$basic_json@Vmap@std@@Vvector@2@V?$basic_string@DU?$char_traits@D@std@@V?$allocator@D@2@@2@_N_J_KNVallocator@2@Uadl_serializer@nlohmann@@@nlohmann@@$$BY04D$0A@@detail@nlohmann@@YAXAEAV?$basic_json@Vmap@std@@Vvector@2@V?$basic_string@DU?$char_traits@D@std@@V?$allocator@D@2@@2@_N_J_KNVallocator@2@Uadl_serializer@nlohmann@@@1@AEAY04$$CBD@Z 0000000180013e58     bento_sdk:asset_database.obj
 0002:00000e80       $cppxdata$??$to_json@V?$basic_json@Vmap@std@@Vvector@2@V?$basic_string@DU?$char_traits@D@std@@V?$allocator@D@2@@2@_N_J_KNVallocator@2@Uadl_serializer@nlohmann@@@nlohmann@@PEBD$0A@@detail@nlohmann@@YAXAEAV?$basic_json@Vmap@std@@Vvector@2@V?$basic_string@DU?$char_traits@D@std@@V?$allocator@D@2@@2@_N_J_KNVallocator@2@Uadl_serializer@nlohmann@@@1@AEBQEBD@Z 0000000180013e80     bento_sdk:asset_database.obj
 0002:00000ea8       $cppxdata$??$_Copy_nodes@U_Copy_tag@?$_Tree@V?$_Tmap_traits@V?$basic_string@DU?$char_traits@D@std@@V?$allocator@D@2@@std@@V?$basic_json@Vmap@std@@Vvector@2@V?$basic_string@DU?$char_traits@D@std@@V?$allocator@D@2@@2@_N_J_KNVallocator@2@Uadl_serializer@nlohmann@@@nlohmann@@U?$less@V?$basic_string@DU?$char_traits@D@std@@V?$allocator@D@2@@std@@@2@V?$allocator@U?$pair@$$CBV?$basic_string@DU?$char_traits@D@std@@V?$allocator@D@2@@std@@V?$basic_json@Vmap@std@@Vvector@2@V?$basic_string@DU?$char_traits@D@std@@V?$allocator@D@2@@2@_N_J_KNVallocator@2@Uadl_serializer@nlohmann@@@nlohmann@@@std@@@2@$0A@@std@@@std@@@?$_Tree@V?$_Tmap_traits@V?$basic_string@DU?$char_traits@D@std@@V?$allocator@D@2@@std@@V?$basic_json@Vmap@std@@Vvector@2@V?$basic_string@DU?$char_traits@D@std@@V?$allocator@D@2@@2@_N_J_KNVallocator@2@Uadl_serializer@nlohmann@@@nlohmann@@U?$less@V?$basic_string@DU?$char_traits@D@std@@V?$allocator@D@2@@std@@@2@V?$allocator@U?$pair@$$CBV?$basic_string@DU?$char_traits@D@std@@V?$allocator@D@2@@std@@V?$basic_json@Vmap@std@@Vvector@2@V?$basic_string@DU?$char_traits@D@std@@V?$allocator@D@2@@2@_N_J_KNVallocator@2@Uadl_serializer@nlohmann@@@nlohmann@@@std@@@2@$0A@@std@@@std@@IEAAPEAU?$_Tree_node@U?$pair@$$CBV?$basic_string@DU?$char_traits@D@std@@V?$allocator@D@2@@std@@V?$basic_json@Vmap@std@@Vvector@2@V?$basic_string@DU?$char_traits@D@std@@V?$allocator@D@2@@2@_N_J_KNVallocator@2@Uadl_serializer@nlohmann@@@nlohmann@@@std@@PEAX@1@PEAU21@0U_Copy_tag@01@@Z 0000000180013ea8     bento_sdk:asset_database.obj
 0002:00001920       $cppxdata$?collect_files_with_extension@file_system@bento@@YAXPEBD0AEAV?$Vector@VDynamicString@bento@@@2@@Z 0000000180014920     bento_sdk:file_system.obj
 0002:00001948       $cppxdata$?push_back@?$Vector@VDynamicString@bento@@@bento@@QEAAXAEBVDynamicString@2@@Z 0000000180014948     bento_sdk:file_system.obj
 0002:000019d0       $cppxdata$?internal_write_buffer@DiskSerializer@bento@@AEAA_NAEBV?$Vector@D@2@PEBD1@Z 00000001800149d0     bento_sdk:disk_serializer.obj
 0002:000019f8       $cppxdata$?internal_read_buffer@DiskSerializer@bento@@AEAA_NAEAV?$Vector@D@2@PEBD1@Z 00000001800149f8     bento_sdk:disk_serializer.obj
 0002:00001a20       $cppxdata$?internal_write_string@DiskSerializer@bento@@AEAA_NAEBVDynamicString@2@PEBD1@Z 0000000180014a20     bento_sdk:disk_serializer.obj
 0002:00001a48       $cppxdata$?internal_read_string@DiskSerializer@bento@@AEAA_NAEAVDynamicString@2@PEBD1@Z 0000000180014a48     bento_sdk:disk_serializer.obj
 0002:00001a78       $cppxdata$??$?6U?$char_traits@D@std@@@std@@YAAEAV?$basic_ostream@DU?$char_traits@D@std@@@0@AEAV10@PEBD@Z 0000000180014a78     bento_sdk:matrix4.obj
 0002:00001aa0       $cppxdata$??1_Sentry_base@?$basic_ostream@DU?$char_traits@D@std@@@std@@QEAA@XZ 0000000180014aa0     bento_sdk:matrix4.obj
 0002:00001ac8       $cppxdata$??1sentry@?$basic_ostream@DU?$char_traits@D@std@@@std@@QEAA@XZ 0000000180014ac8     bento_sdk:matrix4.obj
 0002:00001c60       L_abs_mask                 0000000180014c60     MSVCRT:_svml_ssinf4_dispatch_.obj
 0002:00001c70       L_real_one                 0000000180014c70     MSVCRT:_svml_ssinf4_dispatch_.obj
 0002:00001c80       L_one_half                 0000000180014c80     MSVCRT:_svml_ssinf4_dispatch_.obj
 0002:00001c90       L_two_to_neg_13            0000000180014c90     MSVCRT:_svml_ssinf4_dispatch_.obj
 0002:00001ca0       L_pi_over_two              0000000180014ca0     MSVCRT:_svml_ssinf4_dispatch_.obj
 0002:00001cb0       L_pi_over_two2             0000000180014cb0     MSVCRT:_svml_ssinf4_dispatch_.obj
 0002:00001cc0       GS_ExceptionPointers       0000000180014cc0     MSVCRT:gs_report.obj
 0002:00002410       $unwind$nl_create_allocator 0000000180015410     allocator_c_api.obj
 0002:00002418       $unwind$??__E_base_allocator@@YAXXZ 0000000180015418     allocator_c_api.obj
 0002:00002420       $unwind$nl_create_adb      0000000180015420     asset_database_c_api.obj
 0002:00002428       $unwind$nl_adb_build       0000000180015428     asset_database_c_api.obj
 0002:00002440       $stateUnwindMap$nl_adb_build 0000000180015440     asset_database_c_api.obj
 0002:00002448       $ip2state$nl_adb_build     0000000180015448     asset_database_c_api.obj
 0002:00002460       $unwind$??1?$Vector@D@bento@@QEAA@XZ 0000000180015460     asset_database_c_api.obj
 0002:00002470       $ip2state$??1?$Vector@D@bento@@QEAA@XZ 0000000180015470     asset_database_c_api.obj
 0002:00002478       $unwind$?free@?$Vector@D@bento@@QEAAXXZ 0000000180015478     asset_database_c_api.obj
 0002:00002480       $unwind$nl_create_integrator 0000000180015480     integrator_c_api.obj
 0002:00002488       $unwind$nl_integrator_render 0000000180015488     integrator_c_api.obj
 0002:00002498       $unwind$nl_create_scene    0000000180015498     scene_c_api.obj
 0002:000024a0       $unwind$nl_scene_set_mesh_data 00000001800154a0     scene_c_api.obj
 0002:000024b8       $unwind$?resize@?$Vector@UVector3@bento@@@bento@@QEAAXI@Z 00000001800154b8     scene_c_api.obj
 0002:000024c8       $unwind$?reserve@?$Vector@UVector3@bento@@@bento@@QEAAXI@Z 00000001800154c8     scene_c_api.obj
 0002:000024d8       $unwind$?resize@?$Vector@UIVector3@bento@@@bento@@QEAAXI@Z 00000001800154d8     scene_c_api.obj
 0002:000024e8       $unwind$?reserve@?$Vector@UIVector3@bento@@@bento@@QEAAXI@Z 00000001800154e8     scene_c_api.obj
 0002:000024f8       $unwind$??1DynamicString@bento@@QEAA@XZ 00000001800154f8     noiseless_sdk:compiler.obj
 0002:00002508       $stateUnwindMap$??1DynamicString@bento@@QEAA@XZ 0000000180015508     noiseless_sdk:compiler.obj
 0002:00002510       $ip2state$??1DynamicString@bento@@QEAA@XZ 0000000180015510     noiseless_sdk:compiler.obj
 0002:00002528       $unwind$?compile@asset_compiler@noiseless@@YA_NAEBUTCompilerOptions@2@AEAVTAssetDatabase@bento@@@Z 0000000180015528     noiseless_sdk:compiler.obj
 0002:0000254c       $stateUnwindMap$?compile@asset_compiler@noiseless@@YA_NAEBUTCompilerOptions@2@AEAVTAssetDatabase@bento@@@Z 000000018001554c     noiseless_sdk:compiler.obj
 0002:00002590       $ip2state$?compile@asset_compiler@noiseless@@YA_NAEBUTCompilerOptions@2@AEAVTAssetDatabase@bento@@@Z 0000000180015590     noiseless_sdk:compiler.obj
 0002:000025f0       $unwind$?write@asset_compiler@noiseless@@YAXAEBUTCompilerOptions@2@AEBVTAssetDatabase@bento@@@Z 00000001800155f0     noiseless_sdk:compiler.obj
 0002:00002604       $stateUnwindMap$?write@asset_compiler@noiseless@@YAXAEBUTCompilerOptions@2@AEBVTAssetDatabase@bento@@@Z 0000000180015604     noiseless_sdk:compiler.obj
 0002:00002618       $ip2state$?write@asset_compiler@noiseless@@YAXAEBUTCompilerOptions@2@AEBVTAssetDatabase@bento@@@Z 0000000180015618     noiseless_sdk:compiler.obj
 0002:00002638       $unwind$??1TKernelSource@noiseless@@QEAA@XZ 0000000180015638     noiseless_sdk:compiler.obj
 0002:00002648       $stateUnwindMap$??1TKernelSource@noiseless@@QEAA@XZ 0000000180015648     noiseless_sdk:compiler.obj
 0002:00002650       $ip2state$??1TKernelSource@noiseless@@QEAA@XZ 0000000180015650     noiseless_sdk:compiler.obj
 0002:00002668       $unwind$??1?$Vector@VDynamicString@bento@@@bento@@QEAA@XZ 0000000180015668     noiseless_sdk:compiler.obj
 0002:00002684       $stateUnwindMap$??1?$Vector@VDynamicString@bento@@@bento@@QEAA@XZ 0000000180015684     noiseless_sdk:compiler.obj
 0002:00002690       $ip2state$??1?$Vector@VDynamicString@bento@@@bento@@QEAA@XZ 0000000180015690     noiseless_sdk:compiler.obj
 0002:000026a8       $unwind$?free@?$Vector@VDynamicString@bento@@@bento@@QEAAXXZ 00000001800156a8     noiseless_sdk:compiler.obj
 0002:000026c4       $stateUnwindMap$?free@?$Vector@VDynamicString@bento@@@bento@@QEAAXXZ 00000001800156c4     noiseless_sdk:compiler.obj
 0002:000026d0       $ip2state$?free@?$Vector@VDynamicString@bento@@@bento@@QEAAXXZ 00000001800156d0     noiseless_sdk:compiler.obj
 0002:000026e8       $unwind$?clear@?$Vector@VDynamicString@bento@@@bento@@QEAAXXZ 00000001800156e8     noiseless_sdk:compiler.obj
 0002:00002704       $stateUnwindMap$?clear@?$Vector@VDynamicString@bento@@@bento@@QEAAXXZ 0000000180015704     noiseless_sdk:compiler.obj
 0002:00002710       $ip2state$?clear@?$Vector@VDynamicString@bento@@@bento@@QEAAXXZ 0000000180015710     noiseless_sdk:compiler.obj
 0002:00002728       $unwind$?init_resources@TIntegrator@noiseless@@QEAAXAEBVTAssetDatabase@bento@@@Z 0000000180015728     noiseless_sdk:integrator.obj
 0002:00002744       $stateUnwindMap$?init_resources@TIntegrator@noiseless@@QEAAXAEBVTAssetDatabase@bento@@@Z 0000000180015744     noiseless_sdk:integrator.obj
 0002:00002768       $ip2state$?init_resources@TIntegrator@noiseless@@QEAAXAEBVTAssetDatabase@bento@@@Z 0000000180015768     noiseless_sdk:integrator.obj
 0002:00002798       $unwind$?release_resources@TIntegrator@noiseless@@QEAAXXZ 0000000180015798     noiseless_sdk:integrator.obj
 0002:000027a0       $unwind$?set_resolution@TIntegrator@noiseless@@QEAAXII@Z 00000001800157a0     noiseless_sdk:integrator.obj
 0002:000027b0       $unwind$?render@TIntegrator@noiseless@@QEAAXAEBUTCamera@2@@Z 00000001800157b0     noiseless_sdk:integrator.obj
 0002:000027c4       $unwind$?read_color_buffer@TIntegrator@noiseless@@QEBAXAEAV?$Vector@UVector4@bento@@@bento@@@Z 00000001800157c4     noiseless_sdk:integrator.obj
 0002:000027d4       $chain$0$?read_color_buffer@TIntegrator@noiseless@@QEBAXAEAV?$Vector@UVector4@bento@@@bento@@@Z 00000001800157d4     noiseless_sdk:integrator.obj
 0002:000027e8       $chain$1$?read_color_buffer@TIntegrator@noiseless@@QEBAXAEAV?$Vector@UVector4@bento@@@bento@@@Z 00000001800157e8     noiseless_sdk:integrator.obj
 0002:000027f8       $unwind$?resize@?$Vector@UVector4@bento@@@bento@@QEAAXI@Z 00000001800157f8     noiseless_sdk:integrator.obj
 0002:00002808       $unwind$?reserve@?$Vector@UVector4@bento@@@bento@@QEAAXI@Z 0000000180015808     noiseless_sdk:integrator.obj
 0002:00002818       $unwind$??1?$Vector@UVector3@bento@@@bento@@QEAA@XZ 0000000180015818     noiseless_sdk:scene.obj
 0002:00002828       $ip2state$??1?$Vector@UVector3@bento@@@bento@@QEAA@XZ 0000000180015828     noiseless_sdk:scene.obj
 0002:00002830       $unwind$?free@?$Vector@UVector3@bento@@@bento@@QEAAXXZ 0000000180015830     noiseless_sdk:scene.obj
 0002:00002838       $unwind$??1?$Vector@UIVector3@bento@@@bento@@QEAA@XZ 0000000180015838     noiseless_sdk:scene.obj
 0002:00002848       $ip2state$??1?$Vector@UIVector3@bento@@@bento@@QEAA@XZ 0000000180015848     noiseless_sdk:scene.obj
 0002:00002850       $unwind$?free@?$Vector@UIVector3@bento@@@bento@@QEAAXXZ 0000000180015850     noiseless_sdk:scene.obj
 0002:00002858       $unwind$??1?$Vector@UTMesh@noiseless@@@bento@@QEAA@XZ 0000000180015858     noiseless_sdk:scene.obj
 0002:00002868       $ip2state$??1?$Vector@UTMesh@noiseless@@@bento@@QEAA@XZ 0000000180015868     noiseless_sdk:scene.obj
 0002:00002870       $unwind$?resize@?$Vector@UTMesh@noiseless@@@bento@@QEAAXI@Z 0000000180015870     noiseless_sdk:scene.obj
 0002:00002890       $stateUnwindMap$?resize@?$Vector@UTMesh@noiseless@@@bento@@QEAAXI@Z 0000000180015890     noiseless_sdk:scene.obj
 0002:00002898       $ip2state$?resize@?$Vector@UTMesh@noiseless@@@bento@@QEAAXI@Z 0000000180015898     noiseless_sdk:scene.obj
 0002:000028b0       $unwind$?free@?$Vector@UTMesh@noiseless@@@bento@@QEAAXXZ 00000001800158b0     noiseless_sdk:scene.obj
 0002:000028b8       $unwind$?clear@?$Vector@UTMesh@noiseless@@@bento@@QEAAXXZ 00000001800158b8     noiseless_sdk:scene.obj
 0002:000028d4       $stateUnwindMap$?clear@?$Vector@UTMesh@noiseless@@@bento@@QEAAXXZ 00000001800158d4     noiseless_sdk:scene.obj
 0002:000028e0       $ip2state$?clear@?$Vector@UTMesh@noiseless@@@bento@@QEAAXXZ 00000001800158e0     noiseless_sdk:scene.obj
 0002:000028f8       $unwind$?reserve@?$Vector@UTMesh@noiseless@@@bento@@QEAAXI@Z 00000001800158f8     noiseless_sdk:scene.obj
 0002:00002908       $unwind$?resize@?$Vector@D@bento@@QEAAXI@Z 0000000180015908     noiseless_sdk:kernel_source.obj
 0002:00002918       $unwind$?reserve@?$Vector@D@bento@@QEAAXI@Z 0000000180015918     noiseless_sdk:kernel_source.obj
 0002:00002928       $unwind$?pack_type@bento@@YAXAEAV?$Vector@D@1@AEBUTKernelSource@noiseless@@@Z 0000000180015928     noiseless_sdk:kernel_source.obj
 0002:00002934       $unwind$?unpack_type@bento@@YA_NAEAPEBDAEAUTKernelSource@noiseless@@@Z 0000000180015934     noiseless_sdk:kernel_source.obj
 0002:00002944       $chain$1$?unpack_type@bento@@YA_NAEAPEBDAEAUTKernelSource@noiseless@@@Z 0000000180015944     noiseless_sdk:kernel_source.obj
 0002:00002958       $chain$2$?unpack_type@bento@@YA_NAEAPEBDAEAUTKernelSource@noiseless@@@Z 0000000180015958     noiseless_sdk:kernel_source.obj
 0002:00002968       $unwind$??$pack_vector_bytes@D@bento@@YAXAEAV?$Vector@D@0@AEBV10@@Z 0000000180015968     noiseless_sdk:kernel_source.obj
 0002:00002974       $unwind$??$unpack_vector_bytes@D@bento@@YAXAEAPEBDAEAV?$Vector@D@0@@Z 0000000180015974     noiseless_sdk:kernel_source.obj
 0002:00002984       $chain$0$??$unpack_vector_bytes@D@bento@@YAXAEAPEBDAEAV?$Vector@D@0@@Z 0000000180015984     noiseless_sdk:kernel_source.obj
 0002:00002998       $chain$1$??$unpack_vector_bytes@D@bento@@YAXAEAPEBDAEAV?$Vector@D@0@@Z 0000000180015998     noiseless_sdk:kernel_source.obj
 0002:000029a8       $unwind$?write_database@noiseless@@YA_NPEBDAEBVTAssetDatabase@bento@@@Z 00000001800159a8     noiseless_sdk:asset_database_helpers.obj
 0002:000029cc       $stateUnwindMap$?write_database@noiseless@@YA_NPEBDAEBVTAssetDatabase@bento@@@Z 00000001800159cc     noiseless_sdk:asset_database_helpers.obj
 0002:00002a10       $ip2state$?write_database@noiseless@@YA_NPEBDAEBVTAssetDatabase@bento@@@Z 0000000180015a10     noiseless_sdk:asset_database_helpers.obj
 0002:00002a60       $unwind$?read_database@noiseless@@YA_NPEBDAEAVTAssetDatabase@bento@@@Z 0000000180015a60     noiseless_sdk:asset_database_helpers.obj
 0002:00002a80       $stateUnwindMap$?read_database@noiseless@@YA_NPEBDAEAVTAssetDatabase@bento@@@Z 0000000180015a80     noiseless_sdk:asset_database_helpers.obj
 0002:00002ad0       $ip2state$?read_database@noiseless@@YA_NPEBDAEAVTAssetDatabase@bento@@@Z 0000000180015ad0     noiseless_sdk:asset_database_helpers.obj
 0002:00002b38       $unwind$?write_database_debug@noiseless@@YA_NPEBDAEBVTAssetDatabase@bento@@@Z 0000000180015b38     noiseless_sdk:asset_database_helpers.obj
 0002:00002b58       $stateUnwindMap$?write_database_debug@noiseless@@YA_NPEBDAEBVTAssetDatabase@bento@@@Z 0000000180015b58     noiseless_sdk:asset_database_helpers.obj
 0002:00002ba0       $ip2state$?write_database_debug@noiseless@@YA_NPEBDAEBVTAssetDatabase@bento@@@Z 0000000180015ba0     noiseless_sdk:asset_database_helpers.obj
 0002:00002bf0       $unwind$??1DiskSerializer@bento@@QEAA@XZ 0000000180015bf0     noiseless_sdk:asset_database_helpers.obj
 0002:00002c00       $stateUnwindMap$??1DiskSerializer@bento@@QEAA@XZ 0000000180015c00     noiseless_sdk:asset_database_helpers.obj
 0002:00002c08       $ip2state$??1DiskSerializer@bento@@QEAA@XZ 0000000180015c08     noiseless_sdk:asset_database_helpers.obj
 0002:00002c20       $unwind$?_Maklocwcs@std@@YAPEA_WPEB_W@Z 0000000180015c20     noiseless_sdk:asset_database_helpers.obj
 0002:00002c30       $unwind$??$_Getvals@_W@?$time_get@DV?$istreambuf_iterator@DU?$char_traits@D@std@@@std@@@std@@IEAAX_WAEBV_Locinfo@1@@Z 0000000180015c30     noiseless_sdk:asset_database_helpers.obj
 0002:00002c44       $unwind$??$_Getvals@_W@?$time_get@_WV?$istreambuf_iterator@_WU?$char_traits@_W@std@@@std@@@std@@IEAAX_WAEBV_Locinfo@1@@Z 0000000180015c44     noiseless_sdk:asset_database_helpers.obj
 0002:00002c58       $unwind$?create_compute_context@noiseless@@YA_KXZ 0000000180015c58     noiseless_sdk:compute_api.obj
 0002:00002c78       $stateUnwindMap$?create_compute_context@noiseless@@YA_KXZ 0000000180015c78     noiseless_sdk:compute_api.obj
 0002:00002c80       $ip2state$?create_compute_context@noiseless@@YA_KXZ 0000000180015c80     noiseless_sdk:compute_api.obj
 0002:00002c98       $unwind$?destroy_compute_context@noiseless@@YAX_K@Z 0000000180015c98     noiseless_sdk:compute_api.obj
 0002:00002ca0       $unwind$?create_program_source@noiseless@@YA_K_KPEBD@Z 0000000180015ca0     noiseless_sdk:compute_api.obj
 0002:00002cb8       $unwind$?create_kernel@noiseless@@YA_K_KPEBD@Z 0000000180015cb8     noiseless_sdk:compute_api.obj
 0002:00002cc0       $unwind$?launch_kernel_1D@noiseless@@YA_N_K00@Z 0000000180015cc0     noiseless_sdk:compute_api.obj
 0002:00002cc8       $unwind$?launch_kernel_2D@noiseless@@YA_N_K000@Z 0000000180015cc8     noiseless_sdk:compute_api.obj
 0002:00002cd0       $unwind$?create_buffer@noiseless@@YA_K_K0W4Type@ComputeBufferType@1@@Z 0000000180015cd0     noiseless_sdk:compute_api.obj
 0002:00002ce4       $unwind$?read_buffer@noiseless@@YA_N_K0PEAE@Z 0000000180015ce4     noiseless_sdk:compute_api.obj
 0002:00002cec       $unwind$?write_buffer@noiseless@@YA_N_K0PEAE@Z 0000000180015cec     noiseless_sdk:compute_api.obj
 0002:00002cf4       $unwind$?destroy_buffer@noiseless@@YAX_K@Z 0000000180015cf4     noiseless_sdk:compute_api.obj
 0002:00002cfc       $unwind$?kernel_argument@noiseless@@YA_N_KH0@Z 0000000180015cfc     noiseless_sdk:compute_api.obj
 0002:00002d04       $unwind$?kernel_argument@noiseless@@YA_N_KHIPEAE@Z 0000000180015d04     noiseless_sdk:compute_api.obj
 0002:00002d0c       $unwind$?evaluate_platforms@noiseless@@YA_KAEAV?$vector@PEAU_cl_platform_id@@V?$allocator@PEAU_cl_platform_id@@@std@@@std@@@Z 0000000180015d0c     noiseless_sdk:compute_api.obj
 0002:00002d20       $chain$0$?evaluate_platforms@noiseless@@YA_KAEAV?$vector@PEAU_cl_platform_id@@V?$allocator@PEAU_cl_platform_id@@@std@@@std@@@Z 0000000180015d20     noiseless_sdk:compute_api.obj
 0002:00002d34       $chain$1$?evaluate_platforms@noiseless@@YA_KAEAV?$vector@PEAU_cl_platform_id@@V?$allocator@PEAU_cl_platform_id@@@std@@@std@@@Z 0000000180015d34     noiseless_sdk:compute_api.obj
 0002:00002d44       $unwind$?_Tidy@?$vector@PEAU_cl_platform_id@@V?$allocator@PEAU_cl_platform_id@@@std@@@std@@AEAAXXZ 0000000180015d44     noiseless_sdk:compute_api.obj
 0002:00002d4c       $unwind$??$_Allocate@U?$_Default_allocate_traits@$00@std@@@std@@YAPEAX_K0_K@Z 0000000180015d4c     noiseless_sdk:compute_api.obj
 0002:00002d54       $unwind$?_Fail@?$_Default_allocate_traits@$00@std@@SAXXZ 0000000180015d54     noiseless_sdk:compute_api.obj
 0002:00002d5c       $unwind$?create_compute_scene@noiseless@@YAX_KAEBVTScene@1@AEAUTComputeScene@1@@Z 0000000180015d5c     noiseless_sdk:compute_scene.obj
 0002:00002d7c       $stateUnwindMap$?create_compute_scene@noiseless@@YAX_KAEBVTScene@1@AEAUTComputeScene@1@@Z 0000000180015d7c     noiseless_sdk:compute_scene.obj
 0002:00002da0       $ip2state$?create_compute_scene@noiseless@@YAX_KAEBVTScene@1@AEAUTComputeScene@1@@Z 0000000180015da0     noiseless_sdk:compute_scene.obj
 0002:00002dd0       $unwind$?destroy_compute_scene@noiseless@@YAXAEAUTComputeScene@1@@Z 0000000180015dd0     noiseless_sdk:compute_scene.obj
 0002:00002dd8       $unwind$??0?$Vector@UVector4@bento@@@bento@@QEAA@AEAVIAllocator@1@I@Z 0000000180015dd8     noiseless_sdk:compute_scene.obj
 0002:00002de8       $unwind$??1?$Vector@UVector4@bento@@@bento@@QEAA@XZ 0000000180015de8     noiseless_sdk:compute_scene.obj
 0002:00002df8       $ip2state$??1?$Vector@UVector4@bento@@@bento@@QEAA@XZ 0000000180015df8     noiseless_sdk:compute_scene.obj
 0002:00002e00       $unwind$?free@?$Vector@UVector4@bento@@@bento@@QEAAXXZ 0000000180015e00     noiseless_sdk:compute_scene.obj
 0002:00002e08       $unwind$??0?$Vector@UIVector4@bento@@@bento@@QEAA@AEAVIAllocator@1@I@Z 0000000180015e08     noiseless_sdk:compute_scene.obj
 0002:00002e18       $unwind$??1?$Vector@UIVector4@bento@@@bento@@QEAA@XZ 0000000180015e18     noiseless_sdk:compute_scene.obj
 0002:00002e28       $ip2state$??1?$Vector@UIVector4@bento@@@bento@@QEAA@XZ 0000000180015e28     noiseless_sdk:compute_scene.obj
 0002:00002e30       $unwind$?resize@?$Vector@UIVector4@bento@@@bento@@QEAAXI@Z 0000000180015e30     noiseless_sdk:compute_scene.obj
 0002:00002e40       $unwind$?free@?$Vector@UIVector4@bento@@@bento@@QEAAXXZ 0000000180015e40     noiseless_sdk:compute_scene.obj
 0002:00002e48       $unwind$?reserve@?$Vector@UIVector4@bento@@@bento@@QEAAXI@Z 0000000180015e48     noiseless_sdk:compute_scene.obj
 0002:00002e58       $unwind$?build_ray_generation_data@noiseless@@YAXAEBUTCamera@1@IIAEAUTCameraRaySettings@1@@Z 0000000180015e58     noiseless_sdk:camera_ray_generation.obj
 0002:00002e98       $unwind$??0SystemAllocator@bento@@QEAA@XZ 0000000180015e98     bento_sdk:system_allocator.obj
 0002:00002ea0       $unwind$?reallocate@SystemAllocator@bento@@UEAAPEAXPEAX_K11@Z 0000000180015ea0     bento_sdk:system_allocator.obj
 0002:00002eb8       $unwind$??_GSystemAllocator@bento@@UEAAPEAXI@Z 0000000180015eb8     bento_sdk:system_allocator.obj
 0002:00002ec4       $unwind$??__E__common_allocator@bento@@YAXXZ 0000000180015ec4     bento_sdk:common.obj
 0002:00002ecc       $unwind$??0DynamicString@bento@@QEAA@AEAVIAllocator@1@@Z 0000000180015ecc     bento_sdk:dynamic_string.obj
 0002:00002ee0       $stateUnwindMap$??0DynamicString@bento@@QEAA@AEAVIAllocator@1@@Z 0000000180015ee0     bento_sdk:dynamic_string.obj
 0002:00002ee8       $ip2state$??0DynamicString@bento@@QEAA@AEAVIAllocator@1@@Z 0000000180015ee8     bento_sdk:dynamic_string.obj
 0002:00002f00       $unwind$??0DynamicString@bento@@QEAA@AEAVIAllocator@1@PEBD@Z 0000000180015f00     bento_sdk:dynamic_string.obj
 0002:00002f18       $stateUnwindMap$??0DynamicString@bento@@QEAA@AEAVIAllocator@1@PEBD@Z 0000000180015f18     bento_sdk:dynamic_string.obj
 0002:00002f20       $ip2state$??0DynamicString@bento@@QEAA@AEAVIAllocator@1@PEBD@Z 0000000180015f20     bento_sdk:dynamic_string.obj
 0002:00002f38       $unwind$??0DynamicString@bento@@QEAA@AEAVIAllocator@1@I@Z 0000000180015f38     bento_sdk:dynamic_string.obj
 0002:00002f4c       $stateUnwindMap$??0DynamicString@bento@@QEAA@AEAVIAllocator@1@I@Z 0000000180015f4c     bento_sdk:dynamic_string.obj
 0002:00002f58       $ip2state$??0DynamicString@bento@@QEAA@AEAVIAllocator@1@I@Z 0000000180015f58     bento_sdk:dynamic_string.obj
 0002:00002f70       $unwind$??0DynamicString@bento@@QEAA@AEBV01@@Z 0000000180015f70     bento_sdk:dynamic_string.obj
 0002:00002f88       $stateUnwindMap$??0DynamicString@bento@@QEAA@AEBV01@@Z 0000000180015f88     bento_sdk:dynamic_string.obj
 0002:00002f90       $ip2state$??0DynamicString@bento@@QEAA@AEBV01@@Z 0000000180015f90     bento_sdk:dynamic_string.obj
 0002:00002fa8       $unwind$?resize@DynamicString@bento@@QEAAXI@Z 0000000180015fa8     bento_sdk:dynamic_string.obj
 0002:00002fb4       $unwind$??4DynamicString@bento@@QEAAAEAV01@AEBV01@@Z 0000000180015fb4     bento_sdk:dynamic_string.obj
 0002:00002fc4       $unwind$??4DynamicString@bento@@QEAAAEAV01@PEBD@Z 0000000180015fc4     bento_sdk:dynamic_string.obj
 0002:00002fd4       $unwind$??YDynamicString@bento@@QEAAAEAV01@PEBD@Z 0000000180015fd4     bento_sdk:dynamic_string.obj
 0002:00002fe8       $unwind$??YDynamicString@bento@@QEAAAEAV01@AEBV01@@Z 0000000180015fe8     bento_sdk:dynamic_string.obj
 0002:00002ffc       $unwind$?to_lower_case@string@bento@@YAXAEAVDynamicString@2@@Z 0000000180015ffc     bento_sdk:dynamic_string.obj
 0002:00003004       $chain$0$?to_lower_case@string@bento@@YAXAEAVDynamicString@2@@Z 0000000180016004     bento_sdk:dynamic_string.obj
 0002:00003018       $chain$1$?to_lower_case@string@bento@@YAXAEAVDynamicString@2@@Z 0000000180016018     bento_sdk:dynamic_string.obj
 0002:00003028       $unwind$?substr@string@bento@@YA?AVDynamicString@2@AEBV32@II@Z 0000000180016028     bento_sdk:dynamic_string.obj
 0002:00003044       $stateUnwindMap$?substr@string@bento@@YA?AVDynamicString@2@AEBV32@II@Z 0000000180016044     bento_sdk:dynamic_string.obj
 0002:00003050       $ip2state$?substr@string@bento@@YA?AVDynamicString@2@AEBV32@II@Z 0000000180016050     bento_sdk:dynamic_string.obj
 0002:00003068       $unwind$?pack_type@bento@@YAXAEAV?$Vector@D@1@AEBVDynamicString@1@@Z 0000000180016068     bento_sdk:dynamic_string.obj
 0002:00003074       $unwind$?unpack_type@bento@@YAXAEAPEBDAEAVDynamicString@1@@Z 0000000180016074     bento_sdk:dynamic_string.obj
 0002:00003080       $unwind$??_Gexception@stdext@@UEAAPEAXI@Z 0000000180016080     bento_sdk:asset_database.obj
 0002:00003088       $unwind$??4?$Vector@D@bento@@QEAAXAEBV01@@Z 0000000180016088     bento_sdk:asset_database.obj
 0002:00003098       $unwind$??1TAssetDatabase@bento@@QEAA@XZ 0000000180016098     bento_sdk:asset_database.obj
 0002:000030a8       $stateUnwindMap$??1TAssetDatabase@bento@@QEAA@XZ 00000001800160a8     bento_sdk:asset_database.obj
 0002:000030b0       $ip2state$??1TAssetDatabase@bento@@QEAA@XZ 00000001800160b0     bento_sdk:asset_database.obj
 0002:000030c8       $unwind$?insert_asset@TAssetDatabase@bento@@QEAAXPEBD0IAEAV?$Vector@D@2@@Z 00000001800160c8     bento_sdk:asset_database.obj
 0002:000030e0       $unwind$?request_asset@TAssetDatabase@bento@@QEBAPEBUTAsset@2@PEBD@Z 00000001800160e0     bento_sdk:asset_database.obj
 0002:000030ec       $unwind$??1?$Vector@UTAsset@bento@@@bento@@QEAA@XZ 00000001800160ec     bento_sdk:asset_database.obj
 0002:00003100       $ip2state$??1?$Vector@UTAsset@bento@@@bento@@QEAA@XZ 0000000180016100     bento_sdk:asset_database.obj
 0002:00003108       $unwind$?resize@?$Vector@UTAsset@bento@@@bento@@QEAAXI@Z 0000000180016108     bento_sdk:asset_database.obj
 0002:00003128       $stateUnwindMap$?resize@?$Vector@UTAsset@bento@@@bento@@QEAAXI@Z 0000000180016128     bento_sdk:asset_database.obj
 0002:00003150       $ip2state$?resize@?$Vector@UTAsset@bento@@@bento@@QEAAXI@Z 0000000180016150     bento_sdk:asset_database.obj
 0002:00003198       $unwind$?dtor$12@?0??resize@?$Vector@UTAsset@bento@@@bento@@QEAAXI@Z@4HA 0000000180016198     bento_sdk:asset_database.obj
 0002:000031a0       $unwind$?dtor$17@?0??resize@?$Vector@UTAsset@bento@@@bento@@QEAAXI@Z@4HA 00000001800161a0     bento_sdk:asset_database.obj
 0002:000031a8       $unwind$?free@?$Vector@UTAsset@bento@@@bento@@QEAAXXZ 00000001800161a8     bento_sdk:asset_database.obj
 0002:000031b0       $unwind$?clear@?$Vector@UTAsset@bento@@@bento@@QEAAXXZ 00000001800161b0     bento_sdk:asset_database.obj
 0002:000031cc       $stateUnwindMap$?clear@?$Vector@UTAsset@bento@@@bento@@QEAAXXZ 00000001800161cc     bento_sdk:asset_database.obj
 0002:000031d8       $ip2state$?clear@?$Vector@UTAsset@bento@@@bento@@QEAAXXZ 00000001800161d8     bento_sdk:asset_database.obj
 0002:000031f0       $unwind$?reserve@?$Vector@UTAsset@bento@@@bento@@QEAAXI@Z 00000001800161f0     bento_sdk:asset_database.obj
 0002:00003200       $unwind$?pack_type@bento@@YAXAEAV?$Vector@D@1@AEBVTAssetDatabase@1@@Z 0000000180016200     bento_sdk:asset_database.obj
 0002:0000320c       $chain$0$?pack_type@bento@@YAXAEAV?$Vector@D@1@AEBVTAssetDatabase@1@@Z 000000018001620c     bento_sdk:asset_database.obj
 0002:00003220       $chain$1$?pack_type@bento@@YAXAEAV?$Vector@D@1@AEBVTAssetDatabase@1@@Z 0000000180016220     bento_sdk:asset_database.obj
 0002:00003234       $chain$2$?pack_type@bento@@YAXAEAV?$Vector@D@1@AEBVTAssetDatabase@1@@Z 0000000180016234     bento_sdk:asset_database.obj
 0002:00003244       $chain$3$?pack_type@bento@@YAXAEAV?$Vector@D@1@AEBVTAssetDatabase@1@@Z 0000000180016244     bento_sdk:asset_database.obj
 0002:00003254       $unwind$?unpack_type@bento@@YA_NAEAPEBDAEAVTAssetDatabase@1@@Z 0000000180016254     bento_sdk:asset_database.obj
 0002:00003260       $chain$0$?unpack_type@bento@@YA_NAEAPEBDAEAVTAssetDatabase@1@@Z 0000000180016260     bento_sdk:asset_database.obj
 0002:00003274       $chain$1$?unpack_type@bento@@YA_NAEAPEBDAEAVTAssetDatabase@1@@Z 0000000180016274     bento_sdk:asset_database.obj
 0002:00003288       $chain$2$?unpack_type@bento@@YA_NAEAPEBDAEAVTAssetDatabase@1@@Z 0000000180016288     bento_sdk:asset_database.obj
 0002:00003298       $chain$3$?unpack_type@bento@@YA_NAEAPEBDAEAVTAssetDatabase@1@@Z 0000000180016298     bento_sdk:asset_database.obj
 0002:000032a8       $unwind$?to_string@bento@@YAXAEAVDynamicString@1@AEBVTAssetDatabase@1@@Z 00000001800162a8     bento_sdk:asset_database.obj
 0002:000032d0       $stateUnwindMap$?to_string@bento@@YAXAEAVDynamicString@1@AEBVTAssetDatabase@1@@Z 00000001800162d0     bento_sdk:asset_database.obj
 0002:000033c0       $ip2state$?to_string@bento@@YAXAEAVDynamicString@1@AEBVTAssetDatabase@1@@Z 00000001800163c0     bento_sdk:asset_database.obj
 0002:000034f8       $unwind$?dtor$3@?0??to_string@bento@@YAXAEAVDynamicString@1@AEBVTAssetDatabase@1@@Z@4HA 00000001800164f8     bento_sdk:asset_database.obj
 0002:00003500       $unwind$?dtor$7@?0??to_string@bento@@YAXAEAVDynamicString@1@AEBVTAssetDatabase@1@@Z@4HA 0000000180016500     bento_sdk:asset_database.obj
 0002:00003508       $unwind$?dtor$12@?0??to_string@bento@@YAXAEAVDynamicString@1@AEBVTAssetDatabase@1@@Z@4HA 0000000180016508     bento_sdk:asset_database.obj
 0002:00003510       $unwind$?dtor$16@?0??to_string@bento@@YAXAEAVDynamicString@1@AEBVTAssetDatabase@1@@Z@4HA 0000000180016510     bento_sdk:asset_database.obj
 0002:00003518       $unwind$?dtor$18@?0??to_string@bento@@YAXAEAVDynamicString@1@AEBVTAssetDatabase@1@@Z@4HA 0000000180016518     bento_sdk:asset_database.obj
 0002:00003520       $unwind$snprintf           0000000180016520     bento_sdk:asset_database.obj
 0002:00003530       $unwind$?_Xran@?$_String_val@U?$_Simple_types@D@std@@@std@@SAXXZ 0000000180016530     bento_sdk:asset_database.obj
 0002:00003538       $unwind$??0?$basic_string@DU?$char_traits@D@std@@V?$allocator@D@2@@std@@QEAA@AEBV01@@Z 0000000180016538     bento_sdk:asset_database.obj
 0002:0000354c       $unwind$??0?$basic_string@DU?$char_traits@D@std@@V?$allocator@D@2@@std@@QEAA@QEBD@Z 000000018001654c     bento_sdk:asset_database.obj
 0002:00003554       $unwind$??0?$basic_string@DU?$char_traits@D@std@@V?$allocator@D@2@@std@@QEAA@_KD@Z 0000000180016554     bento_sdk:asset_database.obj
 0002:0000356c       $unwind$?append@?$basic_string@DU?$char_traits@D@std@@V?$allocator@D@2@@std@@QEAAAEAV12@QEBD_K@Z 000000018001656c     bento_sdk:asset_database.obj
 0002:00003580       $chain$1$?append@?$basic_string@DU?$char_traits@D@std@@V?$allocator@D@2@@std@@QEAAAEAV12@QEBD_K@Z 0000000180016580     bento_sdk:asset_database.obj
 0002:00003598       $chain$2$?append@?$basic_string@DU?$char_traits@D@std@@V?$allocator@D@2@@std@@QEAAAEAV12@QEBD_K@Z 0000000180016598     bento_sdk:asset_database.obj
 0002:000035a8       $unwind$?append@?$basic_string@DU?$char_traits@D@std@@V?$allocator@D@2@@std@@QEAAAEAV12@_KD@Z 00000001800165a8     bento_sdk:asset_database.obj
 0002:000035bc       $chain$1$?append@?$basic_string@DU?$char_traits@D@std@@V?$allocator@D@2@@std@@QEAAAEAV12@_KD@Z 00000001800165bc     bento_sdk:asset_database.obj
 0002:000035d4       $chain$2$?append@?$basic_string@DU?$char_traits@D@std@@V?$allocator@D@2@@std@@QEAAAEAV12@_KD@Z 00000001800165d4     bento_sdk:asset_database.obj
 0002:000035e4       $unwind$?assign@?$basic_string@DU?$char_traits@D@std@@V?$allocator@D@2@@std@@QEAAAEAV12@QEBD_K@Z 00000001800165e4     bento_sdk:asset_database.obj
 0002:000035f8       $chain$0$?assign@?$basic_string@DU?$char_traits@D@std@@V?$allocator@D@2@@std@@QEAAAEAV12@QEBD_K@Z 00000001800165f8     bento_sdk:asset_database.obj
 0002:0000360c       $chain$1$?assign@?$basic_string@DU?$char_traits@D@std@@V?$allocator@D@2@@std@@QEAAAEAV12@QEBD_K@Z 000000018001660c     bento_sdk:asset_database.obj
 0002:0000361c       $chain$2$?assign@?$basic_string@DU?$char_traits@D@std@@V?$allocator@D@2@@std@@QEAAAEAV12@QEBD_K@Z 000000018001661c     bento_sdk:asset_database.obj
 0002:00003630       $chain$3$?assign@?$basic_string@DU?$char_traits@D@std@@V?$allocator@D@2@@std@@QEAAAEAV12@QEBD_K@Z 0000000180016630     bento_sdk:asset_database.obj
 0002:00003640       $unwind$?insert@?$basic_string@DU?$char_traits@D@std@@V?$allocator@D@2@@std@@QEAAAEAV12@_KQEBD0@Z 0000000180016640     bento_sdk:asset_database.obj
 0002:00003650       $chain$1$?insert@?$basic_string@DU?$char_traits@D@std@@V?$allocator@D@2@@std@@QEAAAEAV12@_KQEBD0@Z 0000000180016650     bento_sdk:asset_database.obj
 0002:00003668       $chain$2$?insert@?$basic_string@DU?$char_traits@D@std@@V?$allocator@D@2@@std@@QEAAAEAV12@_KQEBD0@Z 0000000180016668     bento_sdk:asset_database.obj
 0002:00003678       $unwind$?push_back@?$basic_string@DU?$char_traits@D@std@@V?$allocator@D@2@@std@@QEAAXD@Z 0000000180016678     bento_sdk:asset_database.obj
 0002:00003688       $chain$0$?push_back@?$basic_string@DU?$char_traits@D@std@@V?$allocator@D@2@@std@@QEAAXD@Z 0000000180016688     bento_sdk:asset_database.obj
 0002:0000369c       $chain$2$?push_back@?$basic_string@DU?$char_traits@D@std@@V?$allocator@D@2@@std@@QEAAXD@Z 000000018001669c     bento_sdk:asset_database.obj
 0002:000036b4       $chain$3$?push_back@?$basic_string@DU?$char_traits@D@std@@V?$allocator@D@2@@std@@QEAAXD@Z 00000001800166b4     bento_sdk:asset_database.obj
 0002:000036c8       $chain$5$?push_back@?$basic_string@DU?$char_traits@D@std@@V?$allocator@D@2@@std@@QEAAXD@Z 00000001800166c8     bento_sdk:asset_database.obj
 0002:000036dc       $unwind$?compare@?$basic_string@DU?$char_traits@D@std@@V?$allocator@D@2@@std@@QEBAHAEBV12@@Z 00000001800166dc     bento_sdk:asset_database.obj
 0002:000036e8       $unwind$?_Become_small@?$basic_string@DU?$char_traits@D@std@@V?$allocator@D@2@@std@@QEAAXXZ 00000001800166e8     bento_sdk:asset_database.obj
 0002:000036f4       $unwind$?_Tidy_deallocate@?$basic_string@DU?$char_traits@D@std@@V?$allocator@D@2@@std@@QEAAXXZ 00000001800166f4     bento_sdk:asset_database.obj
 0002:000036fc       $unwind$?_Xlen@?$basic_string@DU?$char_traits@D@std@@V?$allocator@D@2@@std@@SAXXZ 00000001800166fc     bento_sdk:asset_database.obj
 0002:00003704       $unwind$?_Doraise@runtime_error@std@@MEBAXXZ 0000000180016704     bento_sdk:asset_database.obj
 0002:0000370c       $unwind$??_Gruntime_error@std@@UEAAPEAXI@Z 000000018001670c     bento_sdk:asset_database.obj
 0002:00003714       $unwind$?to_string@std@@YA?AV?$basic_string@DU?$char_traits@D@std@@V?$allocator@D@2@@1@_K@Z 0000000180016714     bento_sdk:asset_database.obj
 0002:00003724       $unwind$??_G_Ref_count_base@std@@UEAAPEAXI@Z 0000000180016724     bento_sdk:asset_database.obj
 0002:0000372c       $unwind$?name@exception@detail@nlohmann@@KA?AV?$basic_string@DU?$char_traits@D@std@@V?$allocator@D@2@@std@@AEBV45@H@Z 000000018001672c     bento_sdk:asset_database.obj
 0002:0000374c       $stateUnwindMap$?name@exception@detail@nlohmann@@KA?AV?$basic_string@DU?$char_traits@D@std@@V?$allocator@D@2@@std@@AEBV45@H@Z 000000018001674c     bento_sdk:asset_database.obj
 0002:00003770       $ip2state$?name@exception@detail@nlohmann@@KA?AV?$basic_string@DU?$char_traits@D@std@@V?$allocator@D@2@@std@@AEBV45@H@Z 0000000180016770     bento_sdk:asset_database.obj
 0002:000037b8       $unwind$??_Gexception@detail@nlohmann@@UEAAPEAXI@Z 00000001800167b8     bento_sdk:asset_database.obj
 0002:000037c0       $unwind$??$?HDU?$char_traits@D@std@@V?$allocator@D@1@@std@@YA?AV?$basic_string@DU?$char_traits@D@std@@V?$allocator@D@2@@0@QEBDAEBV10@@Z 00000001800167c0     bento_sdk:asset_database.obj
 0002:000037e0       $stateUnwindMap$??$?HDU?$char_traits@D@std@@V?$allocator@D@1@@std@@YA?AV?$basic_string@DU?$char_traits@D@std@@V?$allocator@D@2@@0@QEBDAEBV10@@Z 00000001800167e0     bento_sdk:asset_database.obj
 0002:000037e8       $ip2state$??$?HDU?$char_traits@D@std@@V?$allocator@D@1@@std@@YA?AV?$basic_string@DU?$char_traits@D@std@@V?$allocator@D@2@@0@QEBDAEBV10@@Z 00000001800167e8     bento_sdk:asset_database.obj
 0002:000037f8       $unwind$?dtor$0@?0???$?HDU?$char_traits@D@std@@V?$allocator@D@1@@std@@YA?AV?$basic_string@DU?$char_traits@D@std@@V?$allocator@D@2@@0@QEBDAEBV10@@Z@4HA 00000001800167f8     bento_sdk:asset_database.obj
 0002:00003800       $unwind$??$?HDU?$char_traits@D@std@@V?$allocator@D@1@@std@@YA?AV?$basic_string@DU?$char_traits@D@std@@V?$allocator@D@2@@0@QEBD$$QEAV10@@Z 0000000180016800     bento_sdk:asset_database.obj
 0002:00003808       $unwind$??$?HDU?$char_traits@D@std@@V?$allocator@D@1@@std@@YA?AV?$basic_string@DU?$char_traits@D@std@@V?$allocator@D@2@@0@$$QEAV10@QEBD@Z 0000000180016808     bento_sdk:asset_database.obj
 0002:00003810       $unwind$??$?HDU?$char_traits@D@std@@V?$allocator@D@1@@std@@YA?AV?$basic_string@DU?$char_traits@D@std@@V?$allocator@D@2@@0@$$QEAV10@0@Z 0000000180016810     bento_sdk:asset_database.obj
 0002:00003818       $unwind$?create@type_error@detail@nlohmann@@SA?AV123@HAEBV?$basic_string@DU?$char_traits@D@std@@V?$allocator@D@2@@std@@@Z 0000000180016818     bento_sdk:asset_database.obj
 0002:00003834       $stateUnwindMap$?create@type_error@detail@nlohmann@@SA?AV123@HAEBV?$basic_string@DU?$char_traits@D@std@@V?$allocator@D@2@@std@@@Z 0000000180016834     bento_sdk:asset_database.obj
 0002:00003848       $ip2state$?create@type_error@detail@nlohmann@@SA?AV123@HAEBV?$basic_string@DU?$char_traits@D@std@@V?$allocator@D@2@@std@@@Z 0000000180016848     bento_sdk:asset_database.obj
 0002:00003870       $unwind$??_Gtype_error@detail@nlohmann@@UEAAPEAXI@Z 0000000180016870     bento_sdk:asset_database.obj
 0002:00003878       $unwind$?create@other_error@detail@nlohmann@@SA?AV123@HAEBV?$basic_string@DU?$char_traits@D@std@@V?$allocator@D@2@@std@@@Z 0000000180016878     bento_sdk:asset_database.obj
 0002:00003894       $stateUnwindMap$?create@other_error@detail@nlohmann@@SA?AV123@HAEBV?$basic_string@DU?$char_traits@D@std@@V?$allocator@D@2@@std@@@Z 0000000180016894     bento_sdk:asset_database.obj
 0002:000038a8       $ip2state$?create@other_error@detail@nlohmann@@SA?AV123@HAEBV?$basic_string@DU?$char_traits@D@std@@V?$allocator@D@2@@std@@@Z 00000001800168a8     bento_sdk:asset_database.obj
 0002:000038d0       $unwind$??_Gother_error@detail@nlohmann@@UEAAPEAXI@Z 00000001800168d0     bento_sdk:asset_database.obj
 0002:000038d8       $unwind$?grisu2_digit_gen@dtoa_impl@detail@nlohmann@@YAXPEADAEAH1Udiyfp@123@22@Z 00000001800168d8     bento_sdk:asset_database.obj
 0002:000038f4       $unwind$?grisu2@dtoa_impl@detail@nlohmann@@YAXPEADAEAH1Udiyfp@123@22@Z 00000001800168f4     bento_sdk:asset_database.obj
 0002:0000390c       $unwind$?format_buffer@dtoa_impl@detail@nlohmann@@YAPEADPEADHHHH@Z 000000018001690c     bento_sdk:asset_database.obj
 0002:00003920       $unwind$??1?$shared_ptr@U?$output_adapter_protocol@D@detail@nlohmann@@@std@@QEAA@XZ 0000000180016920     bento_sdk:asset_database.obj
 0002:00003928       $chain$0$??1?$shared_ptr@U?$output_adapter_protocol@D@detail@nlohmann@@@std@@QEAA@XZ 0000000180016928     bento_sdk:asset_database.obj
 0002:0000393c       $chain$1$??1?$shared_ptr@U?$output_adapter_protocol@D@detail@nlohmann@@@std@@QEAA@XZ 000000018001693c     bento_sdk:asset_database.obj
 0002:0000394c       $unwind$??0?$basic_json@Vmap@std@@Vvector@2@V?$basic_string@DU?$char_traits@D@std@@V?$allocator@D@2@@2@_N_J_KNVallocator@2@Uadl_serializer@nlohmann@@@nlohmann@@QEAA@V?$initializer_list@V?$json_ref@V?$basic_json@Vmap@std@@Vvector@2@V?$basic_string@DU?$char_traits@D@std@@V?$allocator@D@2@@2@_N_J_KNVallocator@2@Uadl_serializer@nlohmann@@@nlohmann@@@detail@nlohmann@@@std@@_NW4value_t@detail@1@@Z 000000018001694c     bento_sdk:asset_database.obj
 0002:00003970       $stateUnwindMap$??0?$basic_json@Vmap@std@@Vvector@2@V?$basic_string@DU?$char_traits@D@std@@V?$allocator@D@2@@2@_N_J_KNVallocator@2@Uadl_serializer@nlohmann@@@nlohmann@@QEAA@V?$initializer_list@V?$json_ref@V?$basic_json@Vmap@std@@Vvector@2@V?$basic_string@DU?$char_traits@D@std@@V?$allocator@D@2@@2@_N_J_KNVallocator@2@Uadl_serializer@nlohmann@@@nlohmann@@@detail@nlohmann@@@std@@_NW4value_t@detail@1@@Z 0000000180016970     bento_sdk:asset_database.obj
 0002:000039b0       $ip2state$??0?$basic_json@Vmap@std@@Vvector@2@V?$basic_string@DU?$char_traits@D@std@@V?$allocator@D@2@@2@_N_J_KNVallocator@2@Uadl_serializer@nlohmann@@@nlohmann@@QEAA@V?$initializer_list@V?$json_ref@V?$basic_json@Vmap@std@@Vvector@2@V?$basic_string@DU?$char_traits@D@std@@V?$allocator@D@2@@2@_N_J_KNVallocator@2@Uadl_serializer@nlohmann@@@nlohmann@@@detail@nlohmann@@@std@@_NW4value_t@detail@1@@Z 00000001800169b0     bento_sdk:asset_database.obj
 0002:00003a00       $unwind$?dtor$99@?0???0?$basic_json@Vmap@std@@Vvector@2@V?$basic_string@DU?$char_traits@D@std@@V?$allocator@D@2@@2@_N_J_KNVallocator@2@Uadl_serializer@nlohmann@@@nlohmann@@QEAA@V?$initializer_list@V?$json_ref@V?$basic_json@Vmap@std@@Vvector@2@V?$basic_string@DU?$char_traits@D@std@@V?$allocator@D@2@@2@_N_J_KNVallocator@2@Uadl_serializer@nlohmann@@@nlohmann@@@detail@nlohmann@@@std@@_NW4value_t@detail@1@@Z@4HA 0000000180016a00     bento_sdk:asset_database.obj
 0002:00003a08       $unwind$?dtor$143@?0???0?$basic_json@Vmap@std@@Vvector@2@V?$basic_string@DU?$char_traits@D@std@@V?$allocator@D@2@@2@_N_J_KNVallocator@2@Uadl_serializer@nlohmann@@@nlohmann@@QEAA@V?$initializer_list@V?$json_ref@V?$basic_json@Vmap@std@@Vvector@2@V?$basic_string@DU?$char_traits@D@std@@V?$allocator@D@2@@2@_N_J_KNVallocator@2@Uadl_serializer@nlohmann@@@nlohmann@@@detail@nlohmann@@@std@@_NW4value_t@detail@1@@Z@4HA 0000000180016a08     bento_sdk:asset_database.obj
 0002:00003a10       $unwind$??0?$basic_json@Vmap@std@@Vvector@2@V?$basic_string@DU?$char_traits@D@std@@V?$allocator@D@2@@2@_N_J_KNVallocator@2@Uadl_serializer@nlohmann@@@nlohmann@@QEAA@AEBV01@@Z 0000000180016a10     bento_sdk:asset_database.obj
 0002:00003a28       $stateUnwindMap$??0?$basic_json@Vmap@std@@Vvector@2@V?$basic_string@DU?$char_traits@D@std@@V?$allocator@D@2@@2@_N_J_KNVallocator@2@Uadl_serializer@nlohmann@@@nlohmann@@QEAA@AEBV01@@Z 0000000180016a28     bento_sdk:asset_database.obj
 0002:00003a70       $ip2state$??0?$basic_json@Vmap@std@@Vvector@2@V?$basic_string@DU?$char_traits@D@std@@V?$allocator@D@2@@2@_N_J_KNVallocator@2@Uadl_serializer@nlohmann@@@nlohmann@@QEAA@AEBV01@@Z 0000000180016a70     bento_sdk:asset_database.obj
 0002:00003af0       $unwind$?dtor$11@?0???0?$basic_json@Vmap@std@@Vvector@2@V?$basic_string@DU?$char_traits@D@std@@V?$allocator@D@2@@2@_N_J_KNVallocator@2@Uadl_serializer@nlohmann@@@nlohmann@@QEAA@AEBV01@@Z@4HA 0000000180016af0     bento_sdk:asset_database.obj
 0002:00003af8       $unwind$?dtor$231@?0???0?$basic_json@Vmap@std@@Vvector@2@V?$basic_string@DU?$char_traits@D@std@@V?$allocator@D@2@@2@_N_J_KNVallocator@2@Uadl_serializer@nlohmann@@@nlohmann@@QEAA@AEBV01@@Z@4HA 0000000180016af8     bento_sdk:asset_database.obj
 0002:00003b00       $unwind$?dtor$256@?0???0?$basic_json@Vmap@std@@Vvector@2@V?$basic_string@DU?$char_traits@D@std@@V?$allocator@D@2@@2@_N_J_KNVallocator@2@Uadl_serializer@nlohmann@@@nlohmann@@QEAA@AEBV01@@Z@4HA 0000000180016b00     bento_sdk:asset_database.obj
 0002:00003b08       $unwind$?dtor$289@?0???0?$basic_json@Vmap@std@@Vvector@2@V?$basic_string@DU?$char_traits@D@std@@V?$allocator@D@2@@2@_N_J_KNVallocator@2@Uadl_serializer@nlohmann@@@nlohmann@@QEAA@AEBV01@@Z@4HA 0000000180016b08     bento_sdk:asset_database.obj
 0002:00003b10       $unwind$?dump@?$basic_json@Vmap@std@@Vvector@2@V?$basic_string@DU?$char_traits@D@std@@V?$allocator@D@2@@2@_N_J_KNVallocator@2@Uadl_serializer@nlohmann@@@nlohmann@@QEBA?AV?$basic_string@DU?$char_traits@D@std@@V?$allocator@D@2@@std@@HD_N@Z 0000000180016b10     bento_sdk:asset_database.obj
 0002:00003b38       $stateUnwindMap$?dump@?$basic_json@Vmap@std@@Vvector@2@V?$basic_string@DU?$char_traits@D@std@@V?$allocator@D@2@@2@_N_J_KNVallocator@2@Uadl_serializer@nlohmann@@@nlohmann@@QEBA?AV?$basic_string@DU?$char_traits@D@std@@V?$allocator@D@2@@std@@HD_N@Z 0000000180016b38     bento_sdk:asset_database.obj
 0002:00003b70       $ip2state$?dump@?$basic_json@Vmap@std@@Vvector@2@V?$basic_string@DU?$char_traits@D@std@@V?$allocator@D@2@@2@_N_J_KNVallocator@2@Uadl_serializer@nlohmann@@@nlohmann@@QEBA?AV?$basic_string@DU?$char_traits@D@std@@V?$allocator@D@2@@std@@HD_N@Z 0000000180016b70     bento_sdk:asset_database.obj
 0002:00003bb0       $unwind$?dtor$0@?0??dump@?$basic_json@Vmap@std@@Vvector@2@V?$basic_string@DU?$char_traits@D@std@@V?$allocator@D@2@@2@_N_J_KNVallocator@2@Uadl_serializer@nlohmann@@@nlohmann@@QEBA?AV?$basic_string@DU?$char_traits@D@std@@V?$allocator@D@2@@std@@HD_N@Z@4HA 0000000180016bb0     bento_sdk:asset_database.obj
 0002:00003bb8       $unwind$?_Destroy_if_node@?$_Tree@V?$_Tmap_traits@V?$basic_string@DU?$char_traits@D@std@@V?$allocator@D@2@@std@@V?$basic_json@Vmap@std@@Vvector@2@V?$basic_string@DU?$char_traits@D@std@@V?$allocator@D@2@@2@_N_J_KNVallocator@2@Uadl_serializer@nlohmann@@@nlohmann@@U?$less@V?$basic_string@DU?$char_traits@D@std@@V?$allocator@D@2@@std@@@2@V?$allocator@U?$pair@$$CBV?$basic_string@DU?$char_traits@D@std@@V?$allocator@D@2@@std@@V?$basic_json@Vmap@std@@Vvector@2@V?$basic_string@DU?$char_traits@D@std@@V?$allocator@D@2@@2@_N_J_KNVallocator@2@Uadl_serializer@nlohmann@@@nlohmann@@@std@@@2@$0A@@std@@@std@@IEAAXPEAU?$_Tree_node@U?$pair@$$CBV?$basic_string@DU?$char_traits@D@std@@V?$allocator@D@2@@std@@V?$basic_json@Vmap@std@@Vvector@2@V?$basic_string@DU?$char_traits@D@std@@V?$allocator@D@2@@2@_N_J_KNVallocator@2@Uadl_serializer@nlohmann@@@nlohmann@@@std@@PEAX@2@@Z 0000000180016bb8     bento_sdk:asset_database.obj
 0002:00003bc4       $unwind$?_Erase@?$_Tree@V?$_Tmap_traits@V?$basic_string@DU?$char_traits@D@std@@V?$allocator@D@2@@std@@V?$basic_json@Vmap@std@@Vvector@2@V?$basic_string@DU?$char_traits@D@std@@V?$allocator@D@2@@2@_N_J_KNVallocator@2@Uadl_serializer@nlohmann@@@nlohmann@@U?$less@V?$basic_string@DU?$char_traits@D@std@@V?$allocator@D@2@@std@@@2@V?$allocator@U?$pair@$$CBV?$basic_string@DU?$char_traits@D@std@@V?$allocator@D@2@@std@@V?$basic_json@Vmap@std@@Vvector@2@V?$basic_string@DU?$char_traits@D@std@@V?$allocator@D@2@@2@_N_J_KNVallocator@2@Uadl_serializer@nlohmann@@@nlohmann@@@std@@@2@$0A@@std@@@std@@IEAAXPEAU?$_Tree_node@U?$pair@$$CBV?$basic_string@DU?$char_traits@D@std@@V?$allocator@D@2@@std@@V?$basic_json@Vmap@std@@Vvector@2@V?$basic_string@DU?$char_traits@D@std@@V?$allocator@D@2@@2@_N_J_KNVallocator@2@Uadl_serializer@nlohmann@@@nlohmann@@@std@@PEAX@2@@Z 0000000180016bc4     bento_sdk:asset_database.obj
 0002:00003bd4       $chain$0$?_Erase@?$_Tree@V?$_Tmap_traits@V?$basic_string@DU?$char_traits@D@std@@V?$allocator@D@2@@std@@V?$basic_json@Vmap@std@@Vvector@2@V?$basic_string@DU?$char_traits@D@std@@V?$allocator@D@2@@2@_N_J_KNVallocator@2@Uadl_serializer@nlohmann@@@nlohmann@@U?$less@V?$basic_string@DU?$char_traits@D@std@@V?$allocator@D@2@@std@@@2@V?$allocator@U?$pair@$$CBV?$basic_string@DU?$char_traits@D@std@@V?$allocator@D@2@@std@@V?$basic_json@Vmap@std@@Vvector@2@V?$basic_string@DU?$char_traits@D@std@@V?$allocator@D@2@@2@_N_J_KNVallocator@2@Uadl_serializer@nlohmann@@@nlohmann@@@std@@@2@$0A@@std@@@std@@IEAAXPEAU?$_Tree_node@U?$pair@$$CBV?$basic_string@DU?$char_traits@D@std@@V?$allocator@D@2@@std@@V?$basic_json@Vmap@std@@Vvector@2@V?$basic_string@DU?$char_traits@D@std@@V?$allocator@D@2@@2@_N_J_KNVallocator@2@Uadl_serializer@nlohmann@@@nlohmann@@@std@@PEAX@2@@Z 0000000180016bd4     bento_sdk:asset_database.obj
 0002:00003be8       $chain$1$?_Erase@?$_Tree@V?$_Tmap_traits@V?$basic_string@DU?$char_traits@D@std@@V?$allocator@D@2@@std@@V?$basic_json@Vmap@std@@Vvector@2@V?$basic_string@DU?$char_traits@D@std@@V?$allocator@D@2@@2@_N_J_KNVallocator@2@Uadl_serializer@nlohmann@@@nlohmann@@U?$less@V?$basic_string@DU?$char_traits@D@std@@V?$allocator@D@2@@std@@@2@V?$allocator@U?$pair@$$CBV?$basic_string@DU?$char_traits@D@std@@V?$allocator@D@2@@std@@V?$basic_json@Vmap@std@@Vvector@2@V?$basic_string@DU?$char_traits@D@std@@V?$allocator@D@2@@2@_N_J_KNVallocator@2@Uadl_serializer@nlohmann@@@nlohmann@@@std@@@2@$0A@@std@@@std@@IEAAXPEAU?$_Tree_node@U?$pair@$$CBV?$basic_string@DU?$char_traits@D@std@@V?$allocator@D@2@@std@@V?$basic_json@Vmap@std@@Vvector@2@V?$basic_string@DU?$char_traits@D@std@@V?$allocator@D@2@@2@_N_J_KNVallocator@2@Uadl_serializer@nlohmann@@@nlohmann@@@std@@PEAX@2@@Z 0000000180016be8     bento_sdk:asset_database.obj
 0002:00003bf8       $unwind$??A?$basic_json@Vmap@std@@Vvector@2@V?$basic_string@DU?$char_traits@D@std@@V?$allocator@D@2@@2@_N_J_KNVallocator@2@Uadl_serializer@nlohmann@@@nlohmann@@QEAAAEAV01@AEBV?$basic_string@DU?$char_traits@D@std@@V?$allocator@D@2@@std@@@Z 0000000180016bf8     bento_sdk:asset_database.obj
 0002:00003c20       $stateUnwindMap$??A?$basic_json@Vmap@std@@Vvector@2@V?$basic_string@DU?$char_traits@D@std@@V?$allocator@D@2@@2@_N_J_KNVallocator@2@Uadl_serializer@nlohmann@@@nlohmann@@QEAAAEAV01@AEBV?$basic_string@DU?$char_traits@D@std@@V?$allocator@D@2@@std@@@Z 0000000180016c20     bento_sdk:asset_database.obj
 0002:00003c40       $ip2state$??A?$basic_json@Vmap@std@@Vvector@2@V?$basic_string@DU?$char_traits@D@std@@V?$allocator@D@2@@2@_N_J_KNVallocator@2@Uadl_serializer@nlohmann@@@nlohmann@@QEAAAEAV01@AEBV?$basic_string@DU?$char_traits@D@std@@V?$allocator@D@2@@std@@@Z 0000000180016c40     bento_sdk:asset_database.obj
 0002:00003c70       $unwind$?dtor$73@?0???A?$basic_json@Vmap@std@@Vvector@2@V?$basic_string@DU?$char_traits@D@std@@V?$allocator@D@2@@2@_N_J_KNVallocator@2@Uadl_serializer@nlohmann@@@nlohmann@@QEAAAEAV01@AEBV?$basic_string@DU?$char_traits@D@std@@V?$allocator@D@2@@std@@@Z@4HA 0000000180016c70     bento_sdk:asset_database.obj
 0002:00003c78       $unwind$??0json_value@?$basic_json@Vmap@std@@Vvector@2@V?$basic_string@DU?$char_traits@D@std@@V?$allocator@D@2@@2@_N_J_KNVallocator@2@Uadl_serializer@nlohmann@@@nlohmann@@QEAA@W4value_t@detail@2@@Z 0000000180016c78     bento_sdk:asset_database.obj
 0002:00003c94       $stateUnwindMap$??0json_value@?$basic_json@Vmap@std@@Vvector@2@V?$basic_string@DU?$char_traits@D@std@@V?$allocator@D@2@@2@_N_J_KNVallocator@2@Uadl_serializer@nlohmann@@@nlohmann@@QEAA@W4value_t@detail@2@@Z 0000000180016c94     bento_sdk:asset_database.obj
 0002:00003cb0       $ip2state$??0json_value@?$basic_json@Vmap@std@@Vvector@2@V?$basic_string@DU?$char_traits@D@std@@V?$allocator@D@2@@2@_N_J_KNVallocator@2@Uadl_serializer@nlohmann@@@nlohmann@@QEAA@W4value_t@detail@2@@Z 0000000180016cb0     bento_sdk:asset_database.obj
 0002:00003cf0       $unwind$?dtor$37@?0???0json_value@?$basic_json@Vmap@std@@Vvector@2@V?$basic_string@DU?$char_traits@D@std@@V?$allocator@D@2@@2@_N_J_KNVallocator@2@Uadl_serializer@nlohmann@@@nlohmann@@QEAA@W4value_t@detail@2@@Z@4HA 0000000180016cf0     bento_sdk:asset_database.obj
 0002:00003cf8       $unwind$?destroy@json_value@?$basic_json@Vmap@std@@Vvector@2@V?$basic_string@DU?$char_traits@D@std@@V?$allocator@D@2@@2@_N_J_KNVallocator@2@Uadl_serializer@nlohmann@@@nlohmann@@QEAAXW4value_t@detail@3@@Z 0000000180016cf8     bento_sdk:asset_database.obj
 0002:00003d0c       $stateUnwindMap$?destroy@json_value@?$basic_json@Vmap@std@@Vvector@2@V?$basic_string@DU?$char_traits@D@std@@V?$allocator@D@2@@2@_N_J_KNVallocator@2@Uadl_serializer@nlohmann@@@nlohmann@@QEAAXW4value_t@detail@3@@Z 0000000180016d0c     bento_sdk:asset_database.obj
 0002:00003d18       $ip2state$?destroy@json_value@?$basic_json@Vmap@std@@Vvector@2@V?$basic_string@DU?$char_traits@D@std@@V?$allocator@D@2@@2@_N_J_KNVallocator@2@Uadl_serializer@nlohmann@@@nlohmann@@QEAAXW4value_t@detail@3@@Z 0000000180016d18     bento_sdk:asset_database.obj
 0002:00003d30       $unwind$?pack_type@bento@@YAXAEAV?$Vector@D@1@AEBUTAsset@1@@Z 0000000180016d30     bento_sdk:asset_database.obj
 0002:00003d3c       $unwind$?unpack_type@bento@@YAXAEAPEBDAEAUTAsset@1@@Z 0000000180016d3c     bento_sdk:asset_database.obj
 0002:00003d48       $unwind$??$pack_vector_types@UTAsset@bento@@@bento@@YAXAEAV?$Vector@D@0@AEBV?$Vector@UTAsset@bento@@@0@@Z 0000000180016d48     bento_sdk:asset_database.obj
 0002:00003d54       $chain$0$??$pack_vector_types@UTAsset@bento@@@bento@@YAXAEAV?$Vector@D@0@AEBV?$Vector@UTAsset@bento@@@0@@Z 0000000180016d54     bento_sdk:asset_database.obj
 0002:00003d68       $chain$1$??$pack_vector_types@UTAsset@bento@@@bento@@YAXAEAV?$Vector@D@0@AEBV?$Vector@UTAsset@bento@@@0@@Z 0000000180016d68     bento_sdk:asset_database.obj
 0002:00003d7c       $chain$2$??$pack_vector_types@UTAsset@bento@@@bento@@YAXAEAV?$Vector@D@0@AEBV?$Vector@UTAsset@bento@@@0@@Z 0000000180016d7c     bento_sdk:asset_database.obj
 0002:00003d8c       $chain$3$??$pack_vector_types@UTAsset@bento@@@bento@@YAXAEAV?$Vector@D@0@AEBV?$Vector@UTAsset@bento@@@0@@Z 0000000180016d8c     bento_sdk:asset_database.obj
 0002:00003d9c       $unwind$??$unpack_vector_types@UTAsset@bento@@@bento@@YAXAEAPEBDAEAV?$Vector@UTAsset@bento@@@0@@Z 0000000180016d9c     bento_sdk:asset_database.obj
 0002:00003da8       $chain$0$??$unpack_vector_types@UTAsset@bento@@@bento@@YAXAEAPEBDAEAV?$Vector@UTAsset@bento@@@0@@Z 0000000180016da8     bento_sdk:asset_database.obj
 0002:00003dbc       $chain$1$??$unpack_vector_types@UTAsset@bento@@@bento@@YAXAEAPEBDAEAV?$Vector@UTAsset@bento@@@0@@Z 0000000180016dbc     bento_sdk:asset_database.obj
 0002:00003dd0       $chain$2$??$unpack_vector_types@UTAsset@bento@@@bento@@YAXAEAPEBDAEAV?$Vector@UTAsset@bento@@@0@@Z 0000000180016dd0     bento_sdk:asset_database.obj
 0002:00003de0       $chain$3$??$unpack_vector_types@UTAsset@bento@@@bento@@YAXAEAPEBDAEAV?$Vector@UTAsset@bento@@@0@@Z 0000000180016de0     bento_sdk:asset_database.obj
 0002:00003df0       $unwind$??$to_json@V?$basic_json@Vmap@std@@Vvector@2@V?$basic_string@DU?$char_traits@D@std@@V?$allocator@D@2@@2@_N_J_KNVallocator@2@Uadl_serializer@nlohmann@@@nlohmann@@@detail@nlohmann@@YAXAEAV?$basic_json@Vmap@std@@Vvector@2@V?$basic_string@DU?$char_traits@D@std@@V?$allocator@D@2@@2@_N_J_KNVallocator@2@Uadl_serializer@nlohmann@@@1@$$QEAV?$basic_string@DU?$char_traits@D@std@@V?$allocator@D@2@@std@@@Z 0000000180016df0     bento_sdk:asset_database.obj
 0002:00003dfc       $unwind$?_Buy@?$vector@V?$basic_json@Vmap@std@@Vvector@2@V?$basic_string@DU?$char_traits@D@std@@V?$allocator@D@2@@2@_N_J_KNVallocator@2@Uadl_serializer@nlohmann@@@nlohmann@@V?$allocator@V?$basic_json@Vmap@std@@Vvector@2@V?$basic_string@DU?$char_traits@D@std@@V?$allocator@D@2@@2@_N_J_KNVallocator@2@Uadl_serializer@nlohmann@@@nlohmann@@@std@@@std@@AEAA_N_K@Z 0000000180016dfc     bento_sdk:asset_database.obj
 0002:00003e08       $unwind$?_Tidy@?$vector@V?$basic_json@Vmap@std@@Vvector@2@V?$basic_string@DU?$char_traits@D@std@@V?$allocator@D@2@@2@_N_J_KNVallocator@2@Uadl_serializer@nlohmann@@@nlohmann@@V?$allocator@V?$basic_json@Vmap@std@@Vvector@2@V?$basic_string@DU?$char_traits@D@std@@V?$allocator@D@2@@2@_N_J_KNVallocator@2@Uadl_serializer@nlohmann@@@nlohmann@@@std@@@std@@AEAAXXZ 0000000180016e08     bento_sdk:asset_database.obj
 0002:00003e14       $chain$0$?_Tidy@?$vector@V?$basic_json@Vmap@std@@Vvector@2@V?$basic_string@DU?$char_traits@D@std@@V?$allocator@D@2@@2@_N_J_KNVallocator@2@Uadl_serializer@nlohmann@@@nlohmann@@V?$allocator@V?$basic_json@Vmap@std@@Vvector@2@V?$basic_string@DU?$char_traits@D@std@@V?$allocator@D@2@@2@_N_J_KNVallocator@2@Uadl_serializer@nlohmann@@@nlohmann@@@std@@@std@@AEAAXXZ 0000000180016e14     bento_sdk:asset_database.obj
 0002:00003e28       $chain$1$?_Tidy@?$vector@V?$basic_json@Vmap@std@@Vvector@2@V?$basic_string@DU?$char_traits@D@std@@V?$allocator@D@2@@2@_N_J_KNVallocator@2@Uadl_serializer@nlohmann@@@nlohmann@@V?$allocator@V?$basic_json@Vmap@std@@Vvector@2@V?$basic_string@DU?$char_traits@D@std@@V?$allocator@D@2@@2@_N_J_KNVallocator@2@Uadl_serializer@nlohmann@@@nlohmann@@@std@@@std@@AEAAXXZ 0000000180016e28     bento_sdk:asset_database.obj
 0002:00003e38       $unwind$?_Xlength@?$vector@V?$basic_json@Vmap@std@@Vvector@2@V?$basic_string@DU?$char_traits@D@std@@V?$allocator@D@2@@2@_N_J_KNVallocator@2@Uadl_serializer@nlohmann@@@nlohmann@@V?$allocator@V?$basic_json@Vmap@std@@Vvector@2@V?$basic_string@DU?$char_traits@D@std@@V?$allocator@D@2@@2@_N_J_KNVallocator@2@Uadl_serializer@nlohmann@@@nlohmann@@@std@@@std@@CAXXZ 0000000180016e38     bento_sdk:asset_database.obj
 0002:00003e40       $unwind$??$create@V?$map@V?$basic_string@DU?$char_traits@D@std@@V?$allocator@D@2@@std@@V?$basic_json@Vmap@std@@Vvector@2@V?$basic_string@DU?$char_traits@D@std@@V?$allocator@D@2@@2@_N_J_KNVallocator@2@Uadl_serializer@nlohmann@@@nlohmann@@U?$less@V?$basic_string@DU?$char_traits@D@std@@V?$allocator@D@2@@std@@@2@V?$allocator@U?$pair@$$CBV?$basic_string@DU?$char_traits@D@std@@V?$allocator@D@2@@std@@V?$basic_json@Vmap@std@@Vvector@2@V?$basic_string@DU?$char_traits@D@std@@V?$allocator@D@2@@2@_N_J_KNVallocator@2@Uadl_serializer@nlohmann@@@nlohmann@@@std@@@2@@std@@$$V@?$basic_json@Vmap@std@@Vvector@2@V?$basic_string@DU?$char_traits@D@std@@V?$allocator@D@2@@2@_N_J_KNVallocator@2@Uadl_serializer@nlohmann@@@nlohmann@@CAPEAV?$map@V?$basic_string@DU?$char_traits@D@std@@V?$allocator@D@2@@std@@V?$basic_json@Vmap@std@@Vvector@2@V?$basic_string@DU?$char_traits@D@std@@V?$allocator@D@2@@2@_N_J_KNVallocator@2@Uadl_serializer@nlohmann@@@nlohmann@@U?$less@V?$basic_string@DU?$char_traits@D@std@@V?$allocator@D@2@@std@@@2@V?$allocator@U?$pair@$$CBV?$basic_string@DU?$char_traits@D@std@@V?$allocator@D@2@@std@@V?$basic_json@Vmap@std@@Vvector@2@V?$basic_string@DU?$char_traits@D@std@@V?$allocator@D@2@@2@_N_J_KNVallocator@2@Uadl_serializer@nlohmann@@@nlohmann@@@std@@@2@@std@@XZ 0000000180016e40     bento_sdk:asset_database.obj
 0002:00003e50       $stateUnwindMap$??$create@V?$map@V?$basic_string@DU?$char_traits@D@std@@V?$allocator@D@2@@std@@V?$basic_json@Vmap@std@@Vvector@2@V?$basic_string@DU?$char_traits@D@std@@V?$allocator@D@2@@2@_N_J_KNVallocator@2@Uadl_serializer@nlohmann@@@nlohmann@@U?$less@V?$basic_string@DU?$char_traits@D@std@@V?$allocator@D@2@@std@@@2@V?$allocator@U?$pair@$$CBV?$basic_string@DU?$char_traits@D@std@@V?$allocator@D@2@@std@@V?$basic_json@Vmap@std@@Vvector@2@V?$basic_string@DU?$char_traits@D@std@@V?$allocator@D@2@@2@_N_J_KNVallocator@2@Uadl_serializer@nlohmann@@@nlohmann@@@std@@@2@@std@@$$V@?$basic_json@Vmap@std@@Vvector@2@V?$basic_string@DU?$char_traits@D@std@@V?$allocator@D@2@@2@_N_J_KNVallocator@2@Uadl_serializer@nlohmann@@@nlohmann@@CAPEAV?$map@V?$basic_string@DU?$char_traits@D@std@@V?$allocator@D@2@@std@@V?$basic_json@Vmap@std@@Vvector@2@V?$basic_string@DU?$char_traits@D@std@@V?$allocator@D@2@@2@_N_J_KNVallocator@2@Uadl_serializer@nlohmann@@@nlohmann@@U?$less@V?$basic_string@DU?$char_traits@D@std@@V?$allocator@D@2@@std@@@2@V?$allocator@U?$pair@$$CBV?$basic_string@DU?$char_traits@D@std@@V?$allocator@D@2@@std@@V?$basic_json@Vmap@std@@Vvector@2@V?$basic_string@DU?$char_traits@D@std@@V?$allocator@D@2@@2@_N_J_KNVallocator@2@Uadl_serializer@nlohmann@@@nlohmann@@@std@@@2@@std@@XZ 0000000180016e50     bento_sdk:asset_database.obj
 0002:00003e60       $ip2state$??$create@V?$map@V?$basic_string@DU?$char_traits@D@std@@V?$allocator@D@2@@std@@V?$basic_json@Vmap@std@@Vvector@2@V?$basic_string@DU?$char_traits@D@std@@V?$allocator@D@2@@2@_N_J_KNVallocator@2@Uadl_serializer@nlohmann@@@nlohmann@@U?$less@V?$basic_string@DU?$char_traits@D@std@@V?$allocator@D@2@@std@@@2@V?$allocator@U?$pair@$$CBV?$basic_string@DU?$char_traits@D@std@@V?$allocator@D@2@@std@@V?$basic_json@Vmap@std@@Vvector@2@V?$basic_string@DU?$char_traits@D@std@@V?$allocator@D@2@@2@_N_J_KNVallocator@2@Uadl_serializer@nlohmann@@@nlohmann@@@std@@@2@@std@@$$V@?$basic_json@Vmap@std@@Vvector@2@V?$basic_string@DU?$char_traits@D@std@@V?$allocator@D@2@@2@_N_J_KNVallocator@2@Uadl_serializer@nlohmann@@@nlohmann@@CAPEAV?$map@V?$basic_string@DU?$char_traits@D@std@@V?$allocator@D@2@@std@@V?$basic_json@Vmap@std@@Vvector@2@V?$basic_string@DU?$char_traits@D@std@@V?$allocator@D@2@@2@_N_J_KNVallocator@2@Uadl_serializer@nlohmann@@@nlohmann@@U?$less@V?$basic_string@DU?$char_traits@D@std@@V?$allocator@D@2@@std@@@2@V?$allocator@U?$pair@$$CBV?$basic_string@DU?$char_traits@D@std@@V?$allocator@D@2@@std@@V?$basic_json@Vmap@std@@Vvector@2@V?$basic_string@DU?$char_traits@D@std@@V?$allocator@D@2@@2@_N_J_KNVallocator@2@Uadl_serializer@nlohmann@@@nlohmann@@@std@@@2@@std@@XZ 0000000180016e60     bento_sdk:asset_database.obj
 0002:00003e80       $unwind$?dtor$9@?0???$create@V?$map@V?$basic_string@DU?$char_traits@D@std@@V?$allocator@D@2@@std@@V?$basic_json@Vmap@std@@Vvector@2@V?$basic_string@DU?$char_traits@D@std@@V?$allocator@D@2@@2@_N_J_KNVallocator@2@Uadl_serializer@nlohmann@@@nlohmann@@U?$less@V?$basic_string@DU?$char_traits@D@std@@V?$allocator@D@2@@std@@@2@V?$allocator@U?$pair@$$CBV?$basic_string@DU?$char_traits@D@std@@V?$allocator@D@2@@std@@V?$basic_json@Vmap@std@@Vvector@2@V?$basic_string@DU?$char_traits@D@std@@V?$allocator@D@2@@2@_N_J_KNVallocator@2@Uadl_serializer@nlohmann@@@nlohmann@@@std@@@2@@std@@$$V@?$basic_json@Vmap@std@@Vvector@2@V?$basic_string@DU?$char_traits@D@std@@V?$allocator@D@2@@2@_N_J_KNVallocator@2@Uadl_serializer@nlohmann@@@nlohmann@@CAPEAV?$map@V?$basic_string@DU?$char_traits@D@std@@V?$allocator@D@2@@std@@V?$basic_json@Vmap@std@@Vvector@2@V?$basic_string@DU?$char_traits@D@std@@V?$allocator@D@2@@2@_N_J_KNVallocator@2@Uadl_serializer@nlohmann@@@nlohmann@@U?$less@V?$basic_string@DU?$char_traits@D@std@@V?$allocator@D@2@@std@@@2@V?$allocator@U?$pair@$$CBV?$basic_string@DU?$char_traits@D@std@@V?$allocator@D@2@@std@@V?$basic_json@Vmap@std@@Vvector@2@V?$basic_string@DU?$char_traits@D@std@@V?$allocator@D@2@@2@_N_J_KNVallocator@2@Uadl_serializer@nlohmann@@@nlohmann@@@std@@@2@@std@@XZ@4HA 0000000180016e80     bento_sdk:asset_database.obj
 0002:00003e88       $unwind$??1?$output_adapter@DV?$basic_string@DU?$char_traits@D@std@@V?$allocator@D@2@@std@@@detail@nlohmann@@QEAA@XZ 0000000180016e88     bento_sdk:asset_database.obj
 0002:00003e90       $chain$0$??1?$output_adapter@DV?$basic_string@DU?$char_traits@D@std@@V?$allocator@D@2@@std@@@detail@nlohmann@@QEAA@XZ 0000000180016e90     bento_sdk:asset_database.obj
 0002:00003ea4       $chain$1$??1?$output_adapter@DV?$basic_string@DU?$char_traits@D@std@@V?$allocator@D@2@@std@@@detail@nlohmann@@QEAA@XZ 0000000180016ea4     bento_sdk:asset_database.obj
 0002:00003eb4       $unwind$?dump@?$serializer@V?$basic_json@Vmap@std@@Vvector@2@V?$basic_string@DU?$char_traits@D@std@@V?$allocator@D@2@@2@_N_J_KNVallocator@2@Uadl_serializer@nlohmann@@@nlohmann@@@detail@nlohmann@@QEAAXAEBV?$basic_json@Vmap@std@@Vvector@2@V?$basic_string@DU?$char_traits@D@std@@V?$allocator@D@2@@2@_N_J_KNVallocator@2@Uadl_serializer@nlohmann@@@3@_N1II@Z 0000000180016eb4     bento_sdk:asset_database.obj
 0002:00003ec0       $chain$4$?dump@?$serializer@V?$basic_json@Vmap@std@@Vvector@2@V?$basic_string@DU?$char_traits@D@std@@V?$allocator@D@2@@2@_N_J_KNVallocator@2@Uadl_serializer@nlohmann@@@nlohmann@@@detail@nlohmann@@QEAAXAEBV?$basic_json@Vmap@std@@Vvector@2@V?$basic_string@DU?$char_traits@D@std@@V?$allocator@D@2@@2@_N_J_KNVallocator@2@Uadl_serializer@nlohmann@@@3@_N1II@Z 0000000180016ec0     bento_sdk:asset_database.obj
 0002:00003ee4       $chain$5$?dump@?$serializer@V?$basic_json@Vmap@std@@Vvector@2@V?$basic_string@DU?$char_traits@D@std@@V?$allocator@D@2@@2@_N_J_KNVallocator@2@Uadl_serializer@nlohmann@@@nlohmann@@@detail@nlohmann@@QEAAXAEBV?$basic_json@Vmap@std@@Vvector@2@V?$basic_string@DU?$char_traits@D@std@@V?$allocator@D@2@@2@_N_J_KNVallocator@2@Uadl_serializer@nlohmann@@@3@_N1II@Z 0000000180016ee4     bento_sdk:asset_database.obj
 0002:00003ef8       $chain$6$?dump@?$serializer@V?$basic_json@Vmap@std@@Vvector@2@V?$basic_string@DU?$char_traits@D@std@@V?$allocator@D@2@@2@_N_J_KNVallocator@2@Uadl_serializer@nlohmann@@@nlohmann@@@detail@nlohmann@@QEAAXAEBV?$basic_json@Vmap@std@@Vvector@2@V?$basic_string@DU?$char_traits@D@std@@V?$allocator@D@2@@2@_N_J_KNVallocator@2@Uadl_serializer@nlohmann@@@3@_N1II@Z 0000000180016ef8     bento_sdk:asset_database.obj
 0002:00003f08       $chain$7$?dump@?$serializer@V?$basic_json@Vmap@std@@Vvector@2@V?$basic_string@DU?$char_traits@D@std@@V?$allocator@D@2@@2@_N_J_KNVallocator@2@Uadl_serializer@nlohmann@@@nlohmann@@@detail@nlohmann@@QEAAXAEBV?$basic_json@Vmap@std@@Vvector@2@V?$basic_string@DU?$char_traits@D@std@@V?$allocator@D@2@@2@_N_J_KNVallocator@2@Uadl_serializer@nlohmann@@@3@_N1II@Z 0000000180016f08     bento_sdk:asset_database.obj
 0002:00003f18       $chain$8$?dump@?$serializer@V?$basic_json@Vmap@std@@Vvector@2@V?$basic_string@DU?$char_traits@D@std@@V?$allocator@D@2@@2@_N_J_KNVallocator@2@Uadl_serializer@nlohmann@@@nlohmann@@@detail@nlohmann@@QEAAXAEBV?$basic_json@Vmap@std@@Vvector@2@V?$basic_string@DU?$char_traits@D@std@@V?$allocator@D@2@@2@_N_J_KNVallocator@2@Uadl_serializer@nlohmann@@@3@_N1II@Z 0000000180016f18     bento_sdk:asset_database.obj
 0002:00003f40       $chain$9$?dump@?$serializer@V?$basic_json@Vmap@std@@Vvector@2@V?$basic_string@DU?$char_traits@D@std@@V?$allocator@D@2@@2@_N_J_KNVallocator@2@Uadl_serializer@nlohmann@@@nlohmann@@@detail@nlohmann@@QEAAXAEBV?$basic_json@Vmap@std@@Vvector@2@V?$basic_string@DU?$char_traits@D@std@@V?$allocator@D@2@@2@_N_J_KNVallocator@2@Uadl_serializer@nlohmann@@@3@_N1II@Z 0000000180016f40     bento_sdk:asset_database.obj
 0002:00003f64       $unwind$?dump_escaped@?$serializer@V?$basic_json@Vmap@std@@Vvector@2@V?$basic_string@DU?$char_traits@D@std@@V?$allocator@D@2@@2@_N_J_KNVallocator@2@Uadl_serializer@nlohmann@@@nlohmann@@@detail@nlohmann@@AEAAXAEBV?$basic_string@DU?$char_traits@D@std@@V?$allocator@D@2@@std@@_N@Z 0000000180016f64     bento_sdk:asset_database.obj
 0002:00003f8c       $stateUnwindMap$?dump_escaped@?$serializer@V?$basic_json@Vmap@std@@Vvector@2@V?$basic_string@DU?$char_traits@D@std@@V?$allocator@D@2@@2@_N_J_KNVallocator@2@Uadl_serializer@nlohmann@@@nlohmann@@@detail@nlohmann@@AEAAXAEBV?$basic_string@DU?$char_traits@D@std@@V?$allocator@D@2@@std@@_N@Z 0000000180016f8c     bento_sdk:asset_database.obj
 0002:00004010       $ip2state$?dump_escaped@?$serializer@V?$basic_json@Vmap@std@@Vvector@2@V?$basic_string@DU?$char_traits@D@std@@V?$allocator@D@2@@2@_N_J_KNVallocator@2@Uadl_serializer@nlohmann@@@nlohmann@@@detail@nlohmann@@AEAAXAEBV?$basic_string@DU?$char_traits@D@std@@V?$allocator@D@2@@std@@_N@Z 0000000180017010     bento_sdk:asset_database.obj
 0002:000040b0       $unwind$?dtor$23@?0??dump_escaped@?$serializer@V?$basic_json@Vmap@std@@Vvector@2@V?$basic_string@DU?$char_traits@D@std@@V?$allocator@D@2@@2@_N_J_KNVallocator@2@Uadl_serializer@nlohmann@@@nlohmann@@@detail@nlohmann@@AEAAXAEBV?$basic_string@DU?$char_traits@D@std@@V?$allocator@D@2@@std@@_N@Z@4HA 00000001800170b0     bento_sdk:asset_database.obj
 0002:000040b8       $unwind$?dtor$106@?0??dump_escaped@?$serializer@V?$basic_json@Vmap@std@@Vvector@2@V?$basic_string@DU?$char_traits@D@std@@V?$allocator@D@2@@2@_N_J_KNVallocator@2@Uadl_serializer@nlohmann@@@nlohmann@@@detail@nlohmann@@AEAAXAEBV?$basic_string@DU?$char_traits@D@std@@V?$allocator@D@2@@std@@_N@Z@4HA 00000001800170b8     bento_sdk:asset_database.obj
 0002:000040c0       $unwind$??1?$serializer@V?$basic_json@Vmap@std@@Vvector@2@V?$basic_string@DU?$char_traits@D@std@@V?$allocator@D@2@@2@_N_J_KNVallocator@2@Uadl_serializer@nlohmann@@@nlohmann@@@detail@nlohmann@@QEAA@XZ 00000001800170c0     bento_sdk:asset_database.obj
 0002:000040c8       $chain$0$??1?$serializer@V?$basic_json@Vmap@std@@Vvector@2@V?$basic_string@DU?$char_traits@D@std@@V?$allocator@D@2@@2@_N_J_KNVallocator@2@Uadl_serializer@nlohmann@@@nlohmann@@@detail@nlohmann@@QEAA@XZ 00000001800170c8     bento_sdk:asset_database.obj
 0002:000040dc       $chain$1$??1?$serializer@V?$basic_json@Vmap@std@@Vvector@2@V?$basic_string@DU?$char_traits@D@std@@V?$allocator@D@2@@2@_N_J_KNVallocator@2@Uadl_serializer@nlohmann@@@nlohmann@@@detail@nlohmann@@QEAA@XZ 00000001800170dc     bento_sdk:asset_database.obj
 0002:000040ec       $unwind$??$emplace@V?$basic_string@DU?$char_traits@D@std@@V?$allocator@D@2@@std@@V?$basic_json@Vmap@std@@Vvector@2@V?$basic_string@DU?$char_traits@D@std@@V?$allocator@D@2@@2@_N_J_KNVallocator@2@Uadl_serializer@nlohmann@@@nlohmann@@@?$_Tree@V?$_Tmap_traits@V?$basic_string@DU?$char_traits@D@std@@V?$allocator@D@2@@std@@V?$basic_json@Vmap@std@@Vvector@2@V?$basic_string@DU?$char_traits@D@std@@V?$allocator@D@2@@2@_N_J_KNVallocator@2@Uadl_serializer@nlohmann@@@nlohmann@@U?$less@V?$basic_string@DU?$char_traits@D@std@@V?$allocator@D@2@@std@@@2@V?$allocator@U?$pair@$$CBV?$basic_string@DU?$char_traits@D@std@@V?$allocator@D@2@@std@@V?$basic_json@Vmap@std@@Vvector@2@V?$basic_string@DU?$char_traits@D@std@@V?$allocator@D@2@@2@_N_J_KNVallocator@2@Uadl_serializer@nlohmann@@@nlohmann@@@std@@@2@$0A@@std@@@std@@QEAA?AU?$pair@V?$_Tree_iterator@V?$_Tree_val@U?$_Tree_simple_types@U?$pair@$$CBV?$basic_string@DU?$char_traits@D@std@@V?$allocator@D@2@@std@@V?$basic_json@Vmap@std@@Vvector@2@V?$basic_string@DU?$char_traits@D@std@@V?$allocator@D@2@@2@_N_J_KNVallocator@2@Uadl_serializer@nlohmann@@@nlohmann@@@std@@@std@@@std@@@std@@_N@1@$$QEAV?$basic_string@DU?$char_traits@D@std@@V?$allocator@D@2@@1@$$QEAV?$basic_json@Vmap@std@@Vvector@2@V?$basic_string@DU?$char_traits@D@std@@V?$allocator@D@2@@2@_N_J_KNVallocator@2@Uadl_serializer@nlohmann@@@nlohmann@@@Z 00000001800170ec     bento_sdk:asset_database.obj
 0002:00004100       $unwind$??_G?$output_adapter_protocol@D@detail@nlohmann@@UEAAPEAXI@Z 0000000180017100     bento_sdk:asset_database.obj
 0002:00004108       $unwind$??_G?$output_string_adapter@DV?$basic_string@DU?$char_traits@D@std@@V?$allocator@D@2@@std@@@detail@nlohmann@@UEAAPEAXI@Z 0000000180017108     bento_sdk:asset_database.obj
 0002:00004110       $unwind$??1?$basic_stringstream@DU?$char_traits@D@std@@V?$allocator@D@2@@std@@UEAA@XZ 0000000180017110     bento_sdk:asset_database.obj
 0002:00004118       $unwind$?str@?$basic_stringstream@DU?$char_traits@D@std@@V?$allocator@D@2@@std@@QEBA?AV?$basic_string@DU?$char_traits@D@std@@V?$allocator@D@2@@2@XZ 0000000180017118     bento_sdk:asset_database.obj
 0002:00004128       $unwind$??1?$basic_stringbuf@DU?$char_traits@D@std@@V?$allocator@D@2@@std@@UEAA@XZ 0000000180017128     bento_sdk:asset_database.obj
 0002:00004130       $unwind$?overflow@?$basic_stringbuf@DU?$char_traits@D@std@@V?$allocator@D@2@@std@@MEAAHH@Z 0000000180017130     bento_sdk:asset_database.obj
 0002:0000413c       $chain$0$?overflow@?$basic_stringbuf@DU?$char_traits@D@std@@V?$allocator@D@2@@std@@MEAAHH@Z 000000018001713c     bento_sdk:asset_database.obj
 0002:00004150       $chain$5$?overflow@?$basic_stringbuf@DU?$char_traits@D@std@@V?$allocator@D@2@@std@@MEAAHH@Z 0000000180017150     bento_sdk:asset_database.obj
 0002:0000416c       $chain$6$?overflow@?$basic_stringbuf@DU?$char_traits@D@std@@V?$allocator@D@2@@std@@MEAAHH@Z 000000018001716c     bento_sdk:asset_database.obj
 0002:00004180       $chain$2$?overflow@?$basic_stringbuf@DU?$char_traits@D@std@@V?$allocator@D@2@@std@@MEAAHH@Z 0000000180017180     bento_sdk:asset_database.obj
 0002:00004194       $chain$8$?overflow@?$basic_stringbuf@DU?$char_traits@D@std@@V?$allocator@D@2@@std@@MEAAHH@Z 0000000180017194     bento_sdk:asset_database.obj
 0002:000041ac       $unwind$?seekoff@?$basic_stringbuf@DU?$char_traits@D@std@@V?$allocator@D@2@@std@@MEAA?AV?$fpos@U_Mbstatet@@@2@_JHH@Z 00000001800171ac     bento_sdk:asset_database.obj
 0002:000041b8       $unwind$?seekpos@?$basic_stringbuf@DU?$char_traits@D@std@@V?$allocator@D@2@@std@@MEAA?AV?$fpos@U_Mbstatet@@@2@V32@H@Z 00000001800171b8     bento_sdk:asset_database.obj
 0002:000041c0       $unwind$??_G?$basic_stringbuf@DU?$char_traits@D@std@@V?$allocator@D@2@@std@@UEAAPEAXI@Z 00000001800171c0     bento_sdk:asset_database.obj
 0002:000041cc       $unwind$??_G?$basic_stringstream@DU?$char_traits@D@std@@V?$allocator@D@2@@std@@UEAAPEAXI@Z 00000001800171cc     bento_sdk:asset_database.obj
 0002:000041dc       $unwind$??_D?$basic_stringstream@DU?$char_traits@D@std@@V?$allocator@D@2@@std@@QEAAXXZ 00000001800171dc     bento_sdk:asset_database.obj
 0002:000041e4       $unwind$??$?6DU?$char_traits@D@std@@_J@std@@YAAEAV?$basic_ostream@DU?$char_traits@D@std@@@0@AEAV10@AEBU?$_Smanip@_J@0@@Z 00000001800171e4     bento_sdk:asset_database.obj
 0002:000041ec       $unwind$??$to_chars@N@detail@nlohmann@@YAPEADPEAD0N@Z 00000001800171ec     bento_sdk:asset_database.obj
 0002:000041fc       $unwind$??$to_json@V?$basic_json@Vmap@std@@Vvector@2@V?$basic_string@DU?$char_traits@D@std@@V?$allocator@D@2@@2@_N_J_KNVallocator@2@Uadl_serializer@nlohmann@@@nlohmann@@$$BY04D$0A@@detail@nlohmann@@YAXAEAV?$basic_json@Vmap@std@@Vvector@2@V?$basic_string@DU?$char_traits@D@std@@V?$allocator@D@2@@2@_N_J_KNVallocator@2@Uadl_serializer@nlohmann@@@1@AEAY04$$CBD@Z 00000001800171fc     bento_sdk:asset_database.obj
 0002:00004210       $stateUnwindMap$??$to_json@V?$basic_json@Vmap@std@@Vvector@2@V?$basic_string@DU?$char_traits@D@std@@V?$allocator@D@2@@2@_N_J_KNVallocator@2@Uadl_serializer@nlohmann@@@nlohmann@@$$BY04D$0A@@detail@nlohmann@@YAXAEAV?$basic_json@Vmap@std@@Vvector@2@V?$basic_string@DU?$char_traits@D@std@@V?$allocator@D@2@@2@_N_J_KNVallocator@2@Uadl_serializer@nlohmann@@@1@AEAY04$$CBD@Z 0000000180017210     bento_sdk:asset_database.obj
 0002:00004218       $ip2state$??$to_json@V?$basic_json@Vmap@std@@Vvector@2@V?$basic_string@DU?$char_traits@D@std@@V?$allocator@D@2@@2@_N_J_KNVallocator@2@Uadl_serializer@nlohmann@@@nlohmann@@$$BY04D$0A@@detail@nlohmann@@YAXAEAV?$basic_json@Vmap@std@@Vvector@2@V?$basic_string@DU?$char_traits@D@std@@V?$allocator@D@2@@2@_N_J_KNVallocator@2@Uadl_serializer@nlohmann@@@1@AEAY04$$CBD@Z 0000000180017218     bento_sdk:asset_database.obj
 0002:00004230       $unwind$??$to_json@V?$basic_json@Vmap@std@@Vvector@2@V?$basic_string@DU?$char_traits@D@std@@V?$allocator@D@2@@2@_N_J_KNVallocator@2@Uadl_serializer@nlohmann@@@nlohmann@@PEBD$0A@@detail@nlohmann@@YAXAEAV?$basic_json@Vmap@std@@Vvector@2@V?$basic_string@DU?$char_traits@D@std@@V?$allocator@D@2@@2@_N_J_KNVallocator@2@Uadl_serializer@nlohmann@@@1@AEBQEBD@Z 0000000180017230     bento_sdk:asset_database.obj
 0002:00004244       $stateUnwindMap$??$to_json@V?$basic_json@Vmap@std@@Vvector@2@V?$basic_string@DU?$char_traits@D@std@@V?$allocator@D@2@@2@_N_J_KNVallocator@2@Uadl_serializer@nlohmann@@@nlohmann@@PEBD$0A@@detail@nlohmann@@YAXAEAV?$basic_json@Vmap@std@@Vvector@2@V?$basic_string@DU?$char_traits@D@std@@V?$allocator@D@2@@2@_N_J_KNVallocator@2@Uadl_serializer@nlohmann@@@1@AEBQEBD@Z 0000000180017244     bento_sdk:asset_database.obj
 0002:00004250       $ip2state$??$to_json@V?$basic_json@Vmap@std@@Vvector@2@V?$basic_string@DU?$char_traits@D@std@@V?$allocator@D@2@@2@_N_J_KNVallocator@2@Uadl_serializer@nlohmann@@@nlohmann@@PEBD$0A@@detail@nlohmann@@YAXAEAV?$basic_json@Vmap@std@@Vvector@2@V?$basic_string@DU?$char_traits@D@std@@V?$allocator@D@2@@2@_N_J_KNVallocator@2@Uadl_serializer@nlohmann@@@1@AEBQEBD@Z 0000000180017250     bento_sdk:asset_database.obj
 0002:00004268       $unwind$??$_Insert_nohint@AEAU?$pair@$$CBV?$basic_string@DU?$char_traits@D@std@@V?$allocator@D@2@@std@@V?$basic_json@Vmap@std@@Vvector@2@V?$basic_string@DU?$char_traits@D@std@@V?$allocator@D@2@@2@_N_J_KNVallocator@2@Uadl_serializer@nlohmann@@@nlohmann@@@std@@PEAU?$_Tree_node@U?$pair@$$CBV?$basic_string@DU?$char_traits@D@std@@V?$allocator@D@2@@std@@V?$basic_json@Vmap@std@@Vvector@2@V?$basic_string@DU?$char_traits@D@std@@V?$allocator@D@2@@2@_N_J_KNVallocator@2@Uadl_serializer@nlohmann@@@nlohmann@@@std@@PEAX@2@@?$_Tree@V?$_Tmap_traits@V?$basic_string@DU?$char_traits@D@std@@V?$allocator@D@2@@std@@V?$basic_json@Vmap@std@@Vvector@2@V?$basic_string@DU?$char_traits@D@std@@V?$allocator@D@2@@2@_N_J_KNVallocator@2@Uadl_serializer@nlohmann@@@nlohmann@@U?$less@V?$basic_string@DU?$char_traits@D@std@@V?$allocator@D@2@@std@@@2@V?$allocator@U?$pair@$$CBV?$basic_string@DU?$char_traits@D@std@@V?$allocator@D@2@@std@@V?$basic_json@Vmap@std@@Vvector@2@V?$basic_string@DU?$char_traits@D@std@@V?$allocator@D@2@@2@_N_J_KNVallocator@2@Uadl_serializer@nlohmann@@@nlohmann@@@std@@@2@$0A@@std@@@std@@IEAA?AU?$pair@V?$_Tree_iterator@V?$_Tree_val@U?$_Tree_simple_types@U?$pair@$$CBV?$basic_string@DU?$char_traits@D@std@@V?$allocator@D@2@@std@@V?$basic_json@Vmap@std@@Vvector@2@V?$basic_string@DU?$char_traits@D@std@@V?$allocator@D@2@@2@_N_J_KNVallocator@2@Uadl_serializer@nlohmann@@@nlohmann@@@std@@@std@@@std@@@std@@_N@1@_NAEAU?$pair@$$CBV?$basic_string@DU?$char_traits@D@std@@V?$allocator@D@2@@std@@V?$basic_json@Vmap@std@@Vvector@2@V?$basic_string@DU?$char_traits@D@std@@V?$allocator@D@2@@2@_N_J_KNVallocator@2@Uadl_serializer@nlohmann@@@nlohmann@@@1@PEAU?$_Tree_node@U?$pair@$$CBV?$basic_string@DU?$char_traits@D@std@@V?$allocator@D@2@@std@@V?$basic_json@Vmap@std@@Vvector@2@V?$basic_string@DU?$char_traits@D@std@@V?$allocator@D@2@@2@_N_J_KNVallocator@2@Uadl_serializer@nlohmann@@@nlohmann@@@std@@PEAX@1@@Z 0000000180017268     bento_sdk:asset_database.obj
 0002:00004284       $unwind$??_G?$_Ref_count_obj@V?$output_string_adapter@DV?$basic_string@DU?$char_traits@D@std@@V?$allocator@D@2@@std@@@detail@nlohmann@@@std@@UEAAPEAXI@Z 0000000180017284     bento_sdk:asset_database.obj
 0002:0000428c       $unwind$??$grisu2@N@dtoa_impl@detail@nlohmann@@YAXPEADAEAH1N@Z 000000018001728c     bento_sdk:asset_database.obj
 0002:000042a0       $unwind$??$_Reallocate_grow_by@V<lambda_f3a66ab6a0570788f31503db83886f49>@@_KPEBD_K@?$basic_string@DU?$char_traits@D@std@@V?$allocator@D@2@@std@@QEAAAEAV01@_KV<lambda_f3a66ab6a0570788f31503db83886f49>@@_KPEBD2@Z 00000001800172a0     bento_sdk:asset_database.obj
 0002:000042b0       $chain$3$??$_Reallocate_grow_by@V<lambda_f3a66ab6a0570788f31503db83886f49>@@_KPEBD_K@?$basic_string@DU?$char_traits@D@std@@V?$allocator@D@2@@std@@QEAAAEAV01@_KV<lambda_f3a66ab6a0570788f31503db83886f49>@@_KPEBD2@Z 00000001800172b0     bento_sdk:asset_database.obj
 0002:000042d0       $chain$4$??$_Reallocate_grow_by@V<lambda_f3a66ab6a0570788f31503db83886f49>@@_KPEBD_K@?$basic_string@DU?$char_traits@D@std@@V?$allocator@D@2@@std@@QEAAAEAV01@_KV<lambda_f3a66ab6a0570788f31503db83886f49>@@_KPEBD2@Z 00000001800172d0     bento_sdk:asset_database.obj
 0002:000042e0       $unwind$??$_Insert_at@AEAU?$pair@$$CBV?$basic_string@DU?$char_traits@D@std@@V?$allocator@D@2@@std@@V?$basic_json@Vmap@std@@Vvector@2@V?$basic_string@DU?$char_traits@D@std@@V?$allocator@D@2@@2@_N_J_KNVallocator@2@Uadl_serializer@nlohmann@@@nlohmann@@@std@@PEAU?$_Tree_node@U?$pair@$$CBV?$basic_string@DU?$char_traits@D@std@@V?$allocator@D@2@@std@@V?$basic_json@Vmap@std@@Vvector@2@V?$basic_string@DU?$char_traits@D@std@@V?$allocator@D@2@@2@_N_J_KNVallocator@2@Uadl_serializer@nlohmann@@@nlohmann@@@std@@PEAX@2@@?$_Tree@V?$_Tmap_traits@V?$basic_string@DU?$char_traits@D@std@@V?$allocator@D@2@@std@@V?$basic_json@Vmap@std@@Vvector@2@V?$basic_string@DU?$char_traits@D@std@@V?$allocator@D@2@@2@_N_J_KNVallocator@2@Uadl_serializer@nlohmann@@@nlohmann@@U?$less@V?$basic_string@DU?$char_traits@D@std@@V?$allocator@D@2@@std@@@2@V?$allocator@U?$pair@$$CBV?$basic_string@DU?$char_traits@D@std@@V?$allocator@D@2@@std@@V?$basic_json@Vmap@std@@Vvector@2@V?$basic_string@DU?$char_traits@D@std@@V?$allocator@D@2@@2@_N_J_KNVallocator@2@Uadl_serializer@nlohmann@@@nlohmann@@@std@@@2@$0A@@std@@@std@@IEAA?AV?$_Tree_iterator@V?$_Tree_val@U?$_Tree_simple_types@U?$pair@$$CBV?$basic_string@DU?$char_traits@D@std@@V?$allocator@D@2@@std@@V?$basic_json@Vmap@std@@Vvector@2@V?$basic_string@DU?$char_traits@D@std@@V?$allocator@D@2@@2@_N_J_KNVallocator@2@Uadl_serializer@nlohmann@@@nlohmann@@@std@@@std@@@std@@@1@_NPEAU?$_Tree_node@U?$pair@$$CBV?$basic_string@DU?$char_traits@D@std@@V?$allocator@D@2@@std@@V?$basic_json@Vmap@std@@Vvector@2@V?$basic_string@DU?$char_traits@D@std@@V?$allocator@D@2@@2@_N_J_KNVallocator@2@Uadl_serializer@nlohmann@@@nlohmann@@@std@@PEAX@1@AEAU?$pair@$$CBV?$basic_string@DU?$char_traits@D@std@@V?$allocator@D@2@@std@@V?$basic_json@Vmap@std@@Vvector@2@V?$basic_string@DU?$char_traits@D@std@@V?$allocator@D@2@@2@_N_J_KNVallocator@2@Uadl_serializer@nlohmann@@@nlohmann@@@1@1@Z 00000001800172e0     bento_sdk:asset_database.obj
 0002:000042e8       $chain$0$??$_Insert_at@AEAU?$pair@$$CBV?$basic_string@DU?$char_traits@D@std@@V?$allocator@D@2@@std@@V?$basic_json@Vmap@std@@Vvector@2@V?$basic_string@DU?$char_traits@D@std@@V?$allocator@D@2@@2@_N_J_KNVallocator@2@Uadl_serializer@nlohmann@@@nlohmann@@@std@@PEAU?$_Tree_node@U?$pair@$$CBV?$basic_string@DU?$char_traits@D@std@@V?$allocator@D@2@@std@@V?$basic_json@Vmap@std@@Vvector@2@V?$basic_string@DU?$char_traits@D@std@@V?$allocator@D@2@@2@_N_J_KNVallocator@2@Uadl_serializer@nlohmann@@@nlohmann@@@std@@PEAX@2@@?$_Tree@V?$_Tmap_traits@V?$basic_string@DU?$char_traits@D@std@@V?$allocator@D@2@@std@@V?$basic_json@Vmap@std@@Vvector@2@V?$basic_string@DU?$char_traits@D@std@@V?$allocator@D@2@@2@_N_J_KNVallocator@2@Uadl_serializer@nlohmann@@@nlohmann@@U?$less@V?$basic_string@DU?$char_traits@D@std@@V?$allocator@D@2@@std@@@2@V?$allocator@U?$pair@$$CBV?$basic_string@DU?$char_traits@D@std@@V?$allocator@D@2@@std@@V?$basic_json@Vmap@std@@Vvector@2@V?$basic_string@DU?$char_traits@D@std@@V?$allocator@D@2@@2@_N_J_KNVallocator@2@Uadl_serializer@nlohmann@@@nlohmann@@@std@@@2@$0A@@std@@@std@@IEAA?AV?$_Tree_iterator@V?$_Tree_val@U?$_Tree_simple_types@U?$pair@$$CBV?$basic_string@DU?$char_traits@D@std@@V?$allocator@D@2@@std@@V?$basic_json@Vmap@std@@Vvector@2@V?$basic_string@DU?$char_traits@D@std@@V?$allocator@D@2@@2@_N_J_KNVallocator@2@Uadl_serializer@nlohmann@@@nlohmann@@@std@@@std@@@std@@@1@_NPEAU?$_Tree_node@U?$pair@$$CBV?$basic_string@DU?$char_traits@D@std@@V?$allocator@D@2@@std@@V?$basic_json@Vmap@std@@Vvector@2@V?$basic_string@DU?$char_traits@D@std@@V?$allocator@D@2@@2@_N_J_KNVallocator@2@Uadl_serializer@nlohmann@@@nlohmann@@@std@@PEAX@1@AEAU?$pair@$$CBV?$basic_string@DU?$char_traits@D@std@@V?$allocator@D@2@@std@@V?$basic_json@Vmap@std@@Vvector@2@V?$basic_string@DU?$char_traits@D@std@@V?$allocator@D@2@@2@_N_J_KNVallocator@2@Uadl_serializer@nlohmann@@@nlohmann@@@1@1@Z 00000001800172e8     bento_sdk:asset_database.obj
 0002:000042fc       $chain$1$??$_Insert_at@AEAU?$pair@$$CBV?$basic_string@DU?$char_traits@D@std@@V?$allocator@D@2@@std@@V?$basic_json@Vmap@std@@Vvector@2@V?$basic_string@DU?$char_traits@D@std@@V?$allocator@D@2@@2@_N_J_KNVallocator@2@Uadl_serializer@nlohmann@@@nlohmann@@@std@@PEAU?$_Tree_node@U?$pair@$$CBV?$basic_string@DU?$char_traits@D@std@@V?$allocator@D@2@@std@@V?$basic_json@Vmap@std@@Vvector@2@V?$basic_string@DU?$char_traits@D@std@@V?$allocator@D@2@@2@_N_J_KNVallocator@2@Uadl_serializer@nlohmann@@@nlohmann@@@std@@PEAX@2@@?$_Tree@V?$_Tmap_traits@V?$basic_string@DU?$char_traits@D@std@@V?$allocator@D@2@@std@@V?$basic_json@Vmap@std@@Vvector@2@V?$basic_string@DU?$char_traits@D@std@@V?$allocator@D@2@@2@_N_J_KNVallocator@2@Uadl_serializer@nlohmann@@@nlohmann@@U?$less@V?$basic_string@DU?$char_traits@D@std@@V?$allocator@D@2@@std@@@2@V?$allocator@U?$pair@$$CBV?$basic_string@DU?$char_traits@D@std@@V?$allocator@D@2@@std@@V?$basic_json@Vmap@std@@Vvector@2@V?$basic_string@DU?$char_traits@D@std@@V?$allocator@D@2@@2@_N_J_KNVallocator@2@Uadl_serializer@nlohmann@@@nlohmann@@@std@@@2@$0A@@std@@@std@@IEAA?AV?$_Tree_iterator@V?$_Tree_val@U?$_Tree_simple_types@U?$pair@$$CBV?$basic_string@DU?$char_traits@D@std@@V?$allocator@D@2@@std@@V?$basic_json@Vmap@std@@Vvector@2@V?$basic_string@DU?$char_traits@D@std@@V?$allocator@D@2@@2@_N_J_KNVallocator@2@Uadl_serializer@nlohmann@@@nlohmann@@@std@@@std@@@std@@@1@_NPEAU?$_Tree_node@U?$pair@$$CBV?$basic_string@DU?$char_traits@D@std@@V?$allocator@D@2@@std@@V?$basic_json@Vmap@std@@Vvector@2@V?$basic_string@DU?$char_traits@D@std@@V?$allocator@D@2@@2@_N_J_KNVallocator@2@Uadl_serializer@nlohmann@@@nlohmann@@@std@@PEAX@1@AEAU?$pair@$$CBV?$basic_string@DU?$char_traits@D@std@@V?$allocator@D@2@@std@@V?$basic_json@Vmap@std@@Vvector@2@V?$basic_string@DU?$char_traits@D@std@@V?$allocator@D@2@@2@_N_J_KNVallocator@2@Uadl_serializer@nlohmann@@@nlohmann@@@1@1@Z 00000001800172fc     bento_sdk:asset_database.obj
 0002:0000430c       $unwind$??$compute_boundaries@N@dtoa_impl@detail@nlohmann@@YA?AUboundaries@012@N@Z 000000018001730c     bento_sdk:asset_database.obj
 0002:00004314       $unwind$??$_Insert_hint@AEAU?$pair@$$CBV?$basic_string@DU?$char_traits@D@std@@V?$allocator@D@2@@std@@V?$basic_json@Vmap@std@@Vvector@2@V?$basic_string@DU?$char_traits@D@std@@V?$allocator@D@2@@2@_N_J_KNVallocator@2@Uadl_serializer@nlohmann@@@nlohmann@@@std@@PEAU?$_Tree_node@U?$pair@$$CBV?$basic_string@DU?$char_traits@D@std@@V?$allocator@D@2@@std@@V?$basic_json@Vmap@std@@Vvector@2@V?$basic_string@DU?$char_traits@D@std@@V?$allocator@D@2@@2@_N_J_KNVallocator@2@Uadl_serializer@nlohmann@@@nlohmann@@@std@@PEAX@2@@?$_Tree@V?$_Tmap_traits@V?$basic_string@DU?$char_traits@D@std@@V?$allocator@D@2@@std@@V?$basic_json@Vmap@std@@Vvector@2@V?$basic_string@DU?$char_traits@D@std@@V?$allocator@D@2@@2@_N_J_KNVallocator@2@Uadl_serializer@nlohmann@@@nlohmann@@U?$less@V?$basic_string@DU?$char_traits@D@std@@V?$allocator@D@2@@std@@@2@V?$allocator@U?$pair@$$CBV?$basic_string@DU?$char_traits@D@std@@V?$allocator@D@2@@std@@V?$basic_json@Vmap@std@@Vvector@2@V?$basic_string@DU?$char_traits@D@std@@V?$allocator@D@2@@2@_N_J_KNVallocator@2@Uadl_serializer@nlohmann@@@nlohmann@@@std@@@2@$0A@@std@@@std@@IEAA?AV?$_Tree_iterator@V?$_Tree_val@U?$_Tree_simple_types@U?$pair@$$CBV?$basic_string@DU?$char_traits@D@std@@V?$allocator@D@2@@std@@V?$basic_json@Vmap@std@@Vvector@2@V?$basic_string@DU?$char_traits@D@std@@V?$allocator@D@2@@2@_N_J_KNVallocator@2@Uadl_serializer@nlohmann@@@nlohmann@@@std@@@std@@@std@@@1@V?$_Tree_const_iterator@V?$_Tree_val@U?$_Tree_simple_types@U?$pair@$$CBV?$basic_string@DU?$char_traits@D@std@@V?$allocator@D@2@@std@@V?$basic_json@Vmap@std@@Vvector@2@V?$basic_string@DU?$char_traits@D@std@@V?$allocator@D@2@@2@_N_J_KNVallocator@2@Uadl_serializer@nlohmann@@@nlohmann@@@std@@@std@@@std@@@1@AEAU?$pair@$$CBV?$basic_string@DU?$char_traits@D@std@@V?$allocator@D@2@@std@@V?$basic_json@Vmap@std@@Vvector@2@V?$basic_string@DU?$char_traits@D@std@@V?$allocator@D@2@@2@_N_J_KNVallocator@2@Uadl_serializer@nlohmann@@@nlohmann@@@1@PEAU?$_Tree_node@U?$pair@$$CBV?$basic_string@DU?$char_traits@D@std@@V?$allocator@D@2@@std@@V?$basic_json@Vmap@std@@Vvector@2@V?$basic_string@DU?$char_traits@D@std@@V?$allocator@D@2@@2@_N_J_KNVallocator@2@Uadl_serializer@nlohmann@@@nlohmann@@@std@@PEAX@1@@Z 0000000180017314     bento_sdk:asset_database.obj
 0002:00004328       $chain$1$??$_Insert_hint@AEAU?$pair@$$CBV?$basic_string@DU?$char_traits@D@std@@V?$allocator@D@2@@std@@V?$basic_json@Vmap@std@@Vvector@2@V?$basic_string@DU?$char_traits@D@std@@V?$allocator@D@2@@2@_N_J_KNVallocator@2@Uadl_serializer@nlohmann@@@nlohmann@@@std@@PEAU?$_Tree_node@U?$pair@$$CBV?$basic_string@DU?$char_traits@D@std@@V?$allocator@D@2@@std@@V?$basic_json@Vmap@std@@Vvector@2@V?$basic_string@DU?$char_traits@D@std@@V?$allocator@D@2@@2@_N_J_KNVallocator@2@Uadl_serializer@nlohmann@@@nlohmann@@@std@@PEAX@2@@?$_Tree@V?$_Tmap_traits@V?$basic_string@DU?$char_traits@D@std@@V?$allocator@D@2@@std@@V?$basic_json@Vmap@std@@Vvector@2@V?$basic_string@DU?$char_traits@D@std@@V?$allocator@D@2@@2@_N_J_KNVallocator@2@Uadl_serializer@nlohmann@@@nlohmann@@U?$less@V?$basic_string@DU?$char_traits@D@std@@V?$allocator@D@2@@std@@@2@V?$allocator@U?$pair@$$CBV?$basic_string@DU?$char_traits@D@std@@V?$allocator@D@2@@std@@V?$basic_json@Vmap@std@@Vvector@2@V?$basic_string@DU?$char_traits@D@std@@V?$allocator@D@2@@2@_N_J_KNVallocator@2@Uadl_serializer@nlohmann@@@nlohmann@@@std@@@2@$0A@@std@@@std@@IEAA?AV?$_Tree_iterator@V?$_Tree_val@U?$_Tree_simple_types@U?$pair@$$CBV?$basic_string@DU?$char_traits@D@std@@V?$allocator@D@2@@std@@V?$basic_json@Vmap@std@@Vvector@2@V?$basic_string@DU?$char_traits@D@std@@V?$allocator@D@2@@2@_N_J_KNVallocator@2@Uadl_serializer@nlohmann@@@nlohmann@@@std@@@std@@@std@@@1@V?$_Tree_const_iterator@V?$_Tree_val@U?$_Tree_simple_types@U?$pair@$$CBV?$basic_string@DU?$char_traits@D@std@@V?$allocator@D@2@@std@@V?$basic_json@Vmap@std@@Vvector@2@V?$basic_string@DU?$char_traits@D@std@@V?$allocator@D@2@@2@_N_J_KNVallocator@2@Uadl_serializer@nlohmann@@@nlohmann@@@std@@@std@@@std@@@1@AEAU?$pair@$$CBV?$basic_string@DU?$char_traits@D@std@@V?$allocator@D@2@@std@@V?$basic_json@Vmap@std@@Vvector@2@V?$basic_string@DU?$char_traits@D@std@@V?$allocator@D@2@@2@_N_J_KNVallocator@2@Uadl_serializer@nlohmann@@@nlohmann@@@1@PEAU?$_Tree_node@U?$pair@$$CBV?$basic_string@DU?$char_traits@D@std@@V?$allocator@D@2@@std@@V?$basic_json@Vmap@std@@Vvector@2@V?$basic_string@DU?$char_traits@D@std@@V?$allocator@D@2@@2@_N_J_KNVallocator@2@Uadl_serializer@nlohmann@@@nlohmann@@@std@@PEAX@1@@Z 0000000180017328     bento_sdk:asset_database.obj
 0002:00004340       $chain$2$??$_Insert_hint@AEAU?$pair@$$CBV?$basic_string@DU?$char_traits@D@std@@V?$allocator@D@2@@std@@V?$basic_json@Vmap@std@@Vvector@2@V?$basic_string@DU?$char_traits@D@std@@V?$allocator@D@2@@2@_N_J_KNVallocator@2@Uadl_serializer@nlohmann@@@nlohmann@@@std@@PEAU?$_Tree_node@U?$pair@$$CBV?$basic_string@DU?$char_traits@D@std@@V?$allocator@D@2@@std@@V?$basic_json@Vmap@std@@Vvector@2@V?$basic_string@DU?$char_traits@D@std@@V?$allocator@D@2@@2@_N_J_KNVallocator@2@Uadl_serializer@nlohmann@@@nlohmann@@@std@@PEAX@2@@?$_Tree@V?$_Tmap_traits@V?$basic_string@DU?$char_traits@D@std@@V?$allocator@D@2@@std@@V?$basic_json@Vmap@std@@Vvector@2@V?$basic_string@DU?$char_traits@D@std@@V?$allocator@D@2@@2@_N_J_KNVallocator@2@Uadl_serializer@nlohmann@@@nlohmann@@U?$less@V?$basic_string@DU?$char_traits@D@std@@V?$allocator@D@2@@std@@@2@V?$allocator@U?$pair@$$CBV?$basic_string@DU?$char_traits@D@std@@V?$allocator@D@2@@std@@V?$basic_json@Vmap@std@@Vvector@2@V?$basic_string@DU?$char_traits@D@std@@V?$allocator@D@2@@2@_N_J_KNVallocator@2@Uadl_serializer@nlohmann@@@nlohmann@@@std@@@2@$0A@@std@@@std@@IEAA?AV?$_Tree_iterator@V?$_Tree_val@U?$_Tree_simple_types@U?$pair@$$CBV?$basic_string@DU?$char_traits@D@std@@V?$allocator@D@2@@std@@V?$basic_json@Vmap@std@@Vvector@2@V?$basic_string@DU?$char_traits@D@std@@V?$allocator@D@2@@2@_N_J_KNVallocator@2@Uadl_serializer@nlohmann@@@nlohmann@@@std@@@std@@@std@@@1@V?$_Tree_const_iterator@V?$_Tree_val@U?$_Tree_simple_types@U?$pair@$$CBV?$basic_string@DU?$char_traits@D@std@@V?$allocator@D@2@@std@@V?$basic_json@Vmap@std@@Vvector@2@V?$basic_string@DU?$char_traits@D@std@@V?$allocator@D@2@@2@_N_J_KNVallocator@2@Uadl_serializer@nlohmann@@@nlohmann@@@std@@@std@@@std@@@1@AEAU?$pair@$$CBV?$basic_string@DU?$char_traits@D@std@@V?$allocator@D@2@@std@@V?$basic_json@Vmap@std@@Vvector@2@V?$basic_string@DU?$char_traits@D@std@@V?$allocator@D@2@@2@_N_J_KNVallocator@2@Uadl_serializer@nlohmann@@@nlohmann@@@1@PEAU?$_Tree_node@U?$pair@$$CBV?$basic_string@DU?$char_traits@D@std@@V?$allocator@D@2@@std@@V?$basic_json@Vmap@std@@Vvector@2@V?$basic_string@DU?$char_traits@D@std@@V?$allocator@D@2@@2@_N_J_KNVallocator@2@Uadl_serializer@nlohmann@@@nlohmann@@@std@@PEAX@1@@Z 0000000180017340     bento_sdk:asset_database.obj
 0002:00004350       $unwind$??$_Copy_nodes@U_Copy_tag@?$_Tree@V?$_Tmap_traits@V?$basic_string@DU?$char_traits@D@std@@V?$allocator@D@2@@std@@V?$basic_json@Vmap@std@@Vvector@2@V?$basic_string@DU?$char_traits@D@std@@V?$allocator@D@2@@2@_N_J_KNVallocator@2@Uadl_serializer@nlohmann@@@nlohmann@@U?$less@V?$basic_string@DU?$char_traits@D@std@@V?$allocator@D@2@@std@@@2@V?$allocator@U?$pair@$$CBV?$basic_string@DU?$char_traits@D@std@@V?$allocator@D@2@@std@@V?$basic_json@Vmap@std@@Vvector@2@V?$basic_string@DU?$char_traits@D@std@@V?$allocator@D@2@@2@_N_J_KNVallocator@2@Uadl_serializer@nlohmann@@@nlohmann@@@std@@@2@$0A@@std@@@std@@@?$_Tree@V?$_Tmap_traits@V?$basic_string@DU?$char_traits@D@std@@V?$allocator@D@2@@std@@V?$basic_json@Vmap@std@@Vvector@2@V?$basic_string@DU?$char_traits@D@std@@V?$allocator@D@2@@2@_N_J_KNVallocator@2@Uadl_serializer@nlohmann@@@nlohmann@@U?$less@V?$basic_string@DU?$char_traits@D@std@@V?$allocator@D@2@@std@@@2@V?$allocator@U?$pair@$$CBV?$basic_string@DU?$char_traits@D@std@@V?$allocator@D@2@@std@@V?$basic_json@Vmap@std@@Vvector@2@V?$basic_string@DU?$char_traits@D@std@@V?$allocator@D@2@@2@_N_J_KNVallocator@2@Uadl_serializer@nlohmann@@@nlohmann@@@std@@@2@$0A@@std@@@std@@IEAAPEAU?$_Tree_node@U?$pair@$$CBV?$basic_string@DU?$char_traits@D@std@@V?$allocator@D@2@@std@@V?$basic_json@Vmap@std@@Vvector@2@V?$basic_string@DU?$char_traits@D@std@@V?$allocator@D@2@@2@_N_J_KNVallocator@2@Uadl_serializer@nlohmann@@@nlohmann@@@std@@PEAX@1@PEAU21@0U_Copy_tag@01@@Z 0000000180017350     bento_sdk:asset_database.obj
 0002:00004370       $stateUnwindMap$??$_Copy_nodes@U_Copy_tag@?$_Tree@V?$_Tmap_traits@V?$basic_string@DU?$char_traits@D@std@@V?$allocator@D@2@@std@@V?$basic_json@Vmap@std@@Vvector@2@V?$basic_string@DU?$char_traits@D@std@@V?$allocator@D@2@@2@_N_J_KNVallocator@2@Uadl_serializer@nlohmann@@@nlohmann@@U?$less@V?$basic_string@DU?$char_traits@D@std@@V?$allocator@D@2@@std@@@2@V?$allocator@U?$pair@$$CBV?$basic_string@DU?$char_traits@D@std@@V?$allocator@D@2@@std@@V?$basic_json@Vmap@std@@Vvector@2@V?$basic_string@DU?$char_traits@D@std@@V?$allocator@D@2@@2@_N_J_KNVallocator@2@Uadl_serializer@nlohmann@@@nlohmann@@@std@@@2@$0A@@std@@@std@@@?$_Tree@V?$_Tmap_traits@V?$basic_string@DU?$char_traits@D@std@@V?$allocator@D@2@@std@@V?$basic_json@Vmap@std@@Vvector@2@V?$basic_string@DU?$char_traits@D@std@@V?$allocator@D@2@@2@_N_J_KNVallocator@2@Uadl_serializer@nlohmann@@@nlohmann@@U?$less@V?$basic_string@DU?$char_traits@D@std@@V?$allocator@D@2@@std@@@2@V?$allocator@U?$pair@$$CBV?$basic_string@DU?$char_traits@D@std@@V?$allocator@D@2@@std@@V?$basic_json@Vmap@std@@Vvector@2@V?$basic_string@DU?$char_traits@D@std@@V?$allocator@D@2@@2@_N_J_KNVallocator@2@Uadl_serializer@nlohmann@@@nlohmann@@@std@@@2@$0A@@std@@@std@@IEAAPEAU?$_Tree_node@U?$pair@$$CBV?$basic_string@DU?$char_traits@D@std@@V?$allocator@D@2@@std@@V?$basic_json@Vmap@std@@Vvector@2@V?$basic_string@DU?$char_traits@D@std@@V?$allocator@D@2@@2@_N_J_KNVallocator@2@Uadl_serializer@nlohmann@@@nlohmann@@@std@@PEAX@1@PEAU21@0U_Copy_tag@01@@Z 0000000180017370     bento_sdk:asset_database.obj
 0002:00004380       $ip2state$??$_Copy_nodes@U_Copy_tag@?$_Tree@V?$_Tmap_traits@V?$basic_string@DU?$char_traits@D@std@@V?$allocator@D@2@@std@@V?$basic_json@Vmap@std@@Vvector@2@V?$basic_string@DU?$char_traits@D@std@@V?$allocator@D@2@@2@_N_J_KNVallocator@2@Uadl_serializer@nlohmann@@@nlohmann@@U?$less@V?$basic_string@DU?$char_traits@D@std@@V?$allocator@D@2@@std@@@2@V?$allocator@U?$pair@$$CBV?$basic_string@DU?$char_traits@D@std@@V?$allocator@D@2@@std@@V?$basic_json@Vmap@std@@Vvector@2@V?$basic_string@DU?$char_traits@D@std@@V?$allocator@D@2@@2@_N_J_KNVallocator@2@Uadl_serializer@nlohmann@@@nlohmann@@@std@@@2@$0A@@std@@@std@@@?$_Tree@V?$_Tmap_traits@V?$basic_string@DU?$char_traits@D@std@@V?$allocator@D@2@@std@@V?$basic_json@Vmap@std@@Vvector@2@V?$basic_string@DU?$char_traits@D@std@@V?$allocator@D@2@@2@_N_J_KNVallocator@2@Uadl_serializer@nlohmann@@@nlohmann@@U?$less@V?$basic_string@DU?$char_traits@D@std@@V?$allocator@D@2@@std@@@2@V?$allocator@U?$pair@$$CBV?$basic_string@DU?$char_traits@D@std@@V?$allocator@D@2@@std@@V?$basic_json@Vmap@std@@Vvector@2@V?$basic_string@DU?$char_traits@D@std@@V?$allocator@D@2@@2@_N_J_KNVallocator@2@Uadl_serializer@nlohmann@@@nlohmann@@@std@@@2@$0A@@std@@@std@@IEAAPEAU?$_Tree_node@U?$pair@$$CBV?$basic_string@DU?$char_traits@D@std@@V?$allocator@D@2@@std@@V?$basic_json@Vmap@std@@Vvector@2@V?$basic_string@DU?$char_traits@D@std@@V?$allocator@D@2@@2@_N_J_KNVallocator@2@Uadl_serializer@nlohmann@@@nlohmann@@@std@@PEAX@1@PEAU21@0U_Copy_tag@01@@Z 0000000180017380     bento_sdk:asset_database.obj
 0002:000043a0       $unwind$?dtor$30@?0???$_Copy_nodes@U_Copy_tag@?$_Tree@V?$_Tmap_traits@V?$basic_string@DU?$char_traits@D@std@@V?$allocator@D@2@@std@@V?$basic_json@Vmap@std@@Vvector@2@V?$basic_string@DU?$char_traits@D@std@@V?$allocator@D@2@@2@_N_J_KNVallocator@2@Uadl_serializer@nlohmann@@@nlohmann@@U?$less@V?$basic_string@DU?$char_traits@D@std@@V?$allocator@D@2@@std@@@2@V?$allocator@U?$pair@$$CBV?$basic_string@DU?$char_traits@D@std@@V?$allocator@D@2@@std@@V?$basic_json@Vmap@std@@Vvector@2@V?$basic_string@DU?$char_traits@D@std@@V?$allocator@D@2@@2@_N_J_KNVallocator@2@Uadl_serializer@nlohmann@@@nlohmann@@@std@@@2@$0A@@std@@@std@@@?$_Tree@V?$_Tmap_traits@V?$basic_string@DU?$char_traits@D@std@@V?$allocator@D@2@@std@@V?$basic_json@Vmap@std@@Vvector@2@V?$basic_string@DU?$char_traits@D@std@@V?$allocator@D@2@@2@_N_J_KNVallocator@2@Uadl_serializer@nlohmann@@@nlohmann@@U?$less@V?$basic_string@DU?$char_traits@D@std@@V?$allocator@D@2@@std@@@2@V?$allocator@U?$pair@$$CBV?$basic_string@DU?$char_traits@D@std@@V?$allocator@D@2@@std@@V?$basic_json@Vmap@std@@Vvector@2@V?$basic_string@DU?$char_traits@D@std@@V?$allocator@D@2@@2@_N_J_KNVallocator@2@Uadl_serializer@nlohmann@@@nlohmann@@@std@@@2@$0A@@std@@@std@@IEAAPEAU?$_Tree_node@U?$pair@$$CBV?$basic_string@DU?$char_traits@D@std@@V?$allocator@D@2@@std@@V?$basic_json@Vmap@std@@Vvector@2@V?$basic_string@DU?$char_traits@D@std@@V?$allocator@D@2@@2@_N_J_KNVallocator@2@Uadl_serializer@nlohmann@@@nlohmann@@@std@@PEAX@1@PEAU21@0U_Copy_tag@01@@Z@4HA 00000001800173a0     bento_sdk:asset_database.obj
 0002:000043a8       $unwind$??$construct@V?$basic_json@Vmap@std@@Vvector@2@V?$basic_string@DU?$char_traits@D@std@@V?$allocator@D@2@@2@_N_J_KNVallocator@2@Uadl_serializer@nlohmann@@@nlohmann@@@?$external_constructor@$02@detail@nlohmann@@SAXAEAV?$basic_json@Vmap@std@@Vvector@2@V?$basic_string@DU?$char_traits@D@std@@V?$allocator@D@2@@2@_N_J_KNVallocator@2@Uadl_serializer@nlohmann@@@2@$$QEAV?$basic_string@DU?$char_traits@D@std@@V?$allocator@D@2@@std@@@Z 00000001800173a8     bento_sdk:asset_database.obj
 0002:000043b4       $unwind$??__E__default_system_logger@bento@@YAXXZ 00000001800173b4     bento_sdk:log.obj
 0002:000043bc       $unwind$?push_back@?$Vector@D@bento@@QEAAXAEBD@Z 00000001800173bc     bento_sdk:file_system.obj
 0002:000043c8       $unwind$?join@path@bento@@YA?AVDynamicString@2@PEBD0AEAVIAllocator@2@@Z 00000001800173c8     bento_sdk:file_system.obj
 0002:000043d0       $unwind$?add_extension@path@bento@@YA?AVDynamicString@2@PEBD0AEAVIAllocator@2@@Z 00000001800173d0     bento_sdk:file_system.obj
 0002:000043d8       $unwind$?strip_extension@path@bento@@YA?AVDynamicString@2@PEBDAEAVIAllocator@2@@Z 00000001800173d8     bento_sdk:file_system.obj
 0002:000043ec       $unwind$?extension@path@bento@@YA?AVDynamicString@2@PEBDAEAVIAllocator@2@@Z 00000001800173ec     bento_sdk:file_system.obj
 0002:00004404       $unwind$?directory@path@bento@@YA?AVDynamicString@2@PEBDAEAVIAllocator@2@@Z 0000000180017404     bento_sdk:file_system.obj
 0002:00004418       $unwind$?filename@path@bento@@YA?AVDynamicString@2@PEBDAEAVIAllocator@2@@Z 0000000180017418     bento_sdk:file_system.obj
 0002:00004430       $unwind$?path_is_file@file_system@bento@@YA_NPEBD@Z 0000000180017430     bento_sdk:file_system.obj
 0002:00004440       $unwind$?collect_files_with_extension@file_system@bento@@YAXPEBD0AEAV?$Vector@VDynamicString@bento@@@2@@Z 0000000180017440     bento_sdk:file_system.obj
 0002:00004468       $stateUnwindMap$?collect_files_with_extension@file_system@bento@@YAXPEBD0AEAV?$Vector@VDynamicString@bento@@@2@@Z 0000000180017468     bento_sdk:file_system.obj
 0002:000044b0       $ip2state$?collect_files_with_extension@file_system@bento@@YAXPEBD0AEAV?$Vector@VDynamicString@bento@@@2@@Z 00000001800174b0     bento_sdk:file_system.obj
 0002:00004540       $unwind$?dtor$17@?0??collect_files_with_extension@file_system@bento@@YAXPEBD0AEAV?$Vector@VDynamicString@bento@@@2@@Z@4HA 0000000180017540     bento_sdk:file_system.obj
 0002:00004548       $unwind$?write_file@bento@@YA_NPEBD0IW4FileType@1@@Z 0000000180017548     bento_sdk:file_system.obj
 0002:00004554       $chain$2$?write_file@bento@@YA_NPEBD0IW4FileType@1@@Z 0000000180017554     bento_sdk:file_system.obj
 0002:00004570       $chain$4$?write_file@bento@@YA_NPEBD0IW4FileType@1@@Z 0000000180017570     bento_sdk:file_system.obj
 0002:00004584       $chain$5$?write_file@bento@@YA_NPEBD0IW4FileType@1@@Z 0000000180017584     bento_sdk:file_system.obj
 0002:00004594       $unwind$?read_file@bento@@YA_NPEBDAEAV?$Vector@D@1@W4FileType@1@@Z 0000000180017594     bento_sdk:file_system.obj
 0002:000045a0       $chain$0$?read_file@bento@@YA_NPEBDAEAV?$Vector@D@1@W4FileType@1@@Z 00000001800175a0     bento_sdk:file_system.obj
 0002:000045b4       $chain$2$?read_file@bento@@YA_NPEBDAEAV?$Vector@D@1@W4FileType@1@@Z 00000001800175b4     bento_sdk:file_system.obj
 0002:000045cc       $chain$3$?read_file@bento@@YA_NPEBDAEAV?$Vector@D@1@W4FileType@1@@Z 00000001800175cc     bento_sdk:file_system.obj
 0002:000045dc       $chain$4$?read_file@bento@@YA_NPEBDAEAV?$Vector@D@1@W4FileType@1@@Z 00000001800175dc     bento_sdk:file_system.obj
 0002:000045ec       $unwind$_wclosedir         00000001800175ec     bento_sdk:file_system.obj
 0002:000045f4       $unwind$opendir            00000001800175f4     bento_sdk:file_system.obj
 0002:00004608       $chain$0$opendir           0000000180017608     bento_sdk:file_system.obj
 0002:0000461c       $chain$1$opendir           000000018001761c     bento_sdk:file_system.obj
 0002:00004630       $chain$2$opendir           0000000180017630     bento_sdk:file_system.obj
 0002:00004644       $chain$3$opendir           0000000180017644     bento_sdk:file_system.obj
 0002:00004654       $chain$4$opendir           0000000180017654     bento_sdk:file_system.obj
 0002:00004664       $chain$5$opendir           0000000180017664     bento_sdk:file_system.obj
 0002:00004674       $unwind$dirent_first       0000000180017674     bento_sdk:file_system.obj
 0002:00004680       $unwind$?internal_join@path@bento@@YA?AVDynamicString@2@PEBD0DAEAVIAllocator@2@@Z 0000000180017680     bento_sdk:file_system.obj
 0002:0000469c       $unwind$?reserve@?$Vector@VDynamicString@bento@@@bento@@QEAAXI@Z 000000018001769c     bento_sdk:file_system.obj
 0002:000046ac       $unwind$?push_back@?$Vector@VDynamicString@bento@@@bento@@QEAAXAEBVDynamicString@2@@Z 00000001800176ac     bento_sdk:file_system.obj
 0002:000046c4       $stateUnwindMap$?push_back@?$Vector@VDynamicString@bento@@@bento@@QEAAXAEBVDynamicString@2@@Z 00000001800176c4     bento_sdk:file_system.obj
 0002:000046d0       $ip2state$?push_back@?$Vector@VDynamicString@bento@@@bento@@QEAAXAEBVDynamicString@2@@Z 00000001800176d0     bento_sdk:file_system.obj
 0002:000046e8       $unwind$?dtor$1@?0??push_back@?$Vector@VDynamicString@bento@@@bento@@QEAAXAEBVDynamicString@2@@Z@4HA 00000001800176e8     bento_sdk:file_system.obj
 0002:000046f0       $unwind$?murmur_hash_64@bento@@YA_KPEBXII@Z 00000001800176f0     bento_sdk:hash.obj
 0002:000046f8       $unwind$?pack_buffer@bento@@YAXAEAV?$Vector@D@1@IPEBD@Z 00000001800176f8     bento_sdk:stream.obj
 0002:00004704       $chain$1$?pack_buffer@bento@@YAXAEAV?$Vector@D@1@IPEBD@Z 0000000180017704     bento_sdk:stream.obj
 0002:0000471c       $chain$2$?pack_buffer@bento@@YAXAEAV?$Vector@D@1@IPEBD@Z 000000018001771c     bento_sdk:stream.obj
 0002:00004730       $chain$3$?pack_buffer@bento@@YAXAEAV?$Vector@D@1@IPEBD@Z 0000000180017730     bento_sdk:stream.obj
 0002:00004740       $chain$4$?pack_buffer@bento@@YAXAEAV?$Vector@D@1@IPEBD@Z 0000000180017740     bento_sdk:stream.obj
 0002:00004750       $unwind$?unpack_buffer@bento@@YAXAEAPEBDIPEAD@Z 0000000180017750     bento_sdk:stream.obj
 0002:00004758       $chain$0$?unpack_buffer@bento@@YAXAEAPEBDIPEAD@Z 0000000180017758     bento_sdk:stream.obj
 0002:0000476c       $chain$1$?unpack_buffer@bento@@YAXAEAPEBDIPEAD@Z 000000018001776c     bento_sdk:stream.obj
 0002:0000477c       $unwind$??0DiskSerializer@bento@@QEAA@AEAVIAllocator@1@PEBD@Z 000000018001777c     bento_sdk:disk_serializer.obj
 0002:00004788       $unwind$?internal_write_buffer@DiskSerializer@bento@@AEAA_NAEBV?$Vector@D@2@PEBD1@Z 0000000180017788     bento_sdk:disk_serializer.obj
 0002:000047a4       $stateUnwindMap$?internal_write_buffer@DiskSerializer@bento@@AEAA_NAEBV?$Vector@D@2@PEBD1@Z 00000001800177a4     bento_sdk:disk_serializer.obj
 0002:000047c8       $ip2state$?internal_write_buffer@DiskSerializer@bento@@AEAA_NAEBV?$Vector@D@2@PEBD1@Z 00000001800177c8     bento_sdk:disk_serializer.obj
 0002:00004800       $unwind$?internal_read_buffer@DiskSerializer@bento@@AEAA_NAEAV?$Vector@D@2@PEBD1@Z 0000000180017800     bento_sdk:disk_serializer.obj
 0002:0000481c       $stateUnwindMap$?internal_read_buffer@DiskSerializer@bento@@AEAA_NAEAV?$Vector@D@2@PEBD1@Z 000000018001781c     bento_sdk:disk_serializer.obj
 0002:00004840       $ip2state$?internal_read_buffer@DiskSerializer@bento@@AEAA_NAEAV?$Vector@D@2@PEBD1@Z 0000000180017840     bento_sdk:disk_serializer.obj
 0002:00004878       $unwind$?internal_write_string@DiskSerializer@bento@@AEAA_NAEBVDynamicString@2@PEBD1@Z 0000000180017878     bento_sdk:disk_serializer.obj
 0002:00004894       $stateUnwindMap$?internal_write_string@DiskSerializer@bento@@AEAA_NAEBVDynamicString@2@PEBD1@Z 0000000180017894     bento_sdk:disk_serializer.obj
 0002:000048b8       $ip2state$?internal_write_string@DiskSerializer@bento@@AEAA_NAEBVDynamicString@2@PEBD1@Z 00000001800178b8     bento_sdk:disk_serializer.obj
 0002:000048f0       $unwind$?internal_read_string@DiskSerializer@bento@@AEAA_NAEAVDynamicString@2@PEBD1@Z 00000001800178f0     bento_sdk:disk_serializer.obj
 0002:00004910       $stateUnwindMap$?internal_read_string@DiskSerializer@bento@@AEAA_NAEAVDynamicString@2@PEBD1@Z 0000000180017910     bento_sdk:disk_serializer.obj
 0002:00004940       $ip2state$?internal_read_string@DiskSerializer@bento@@AEAA_NAEAVDynamicString@2@PEBD1@Z 0000000180017940     bento_sdk:disk_serializer.obj
 0002:00004988       $unwind$?__handle_fail@bento@@YAXPEBD0H@Z 0000000180017988     bento_sdk:security.obj
 0002:00004994       $unwind$?AsPerspective@bento@@YAXAEAUMatrix4@1@MMMM@Z 0000000180017994     bento_sdk:matrix4.obj
 0002:000049a4       $unwind$?GetTranslate@bento@@YA?AUVector3@1@AEBUMatrix4@1@@Z 00000001800179a4     bento_sdk:matrix4.obj
 0002:000049ac       $unwind$?XAxis@bento@@YA?AUVector3@1@AEBUMatrix4@1@@Z 00000001800179ac     bento_sdk:matrix4.obj
 0002:000049b4       $unwind$?YAxis@bento@@YA?AUVector3@1@AEBUMatrix4@1@@Z 00000001800179b4     bento_sdk:matrix4.obj
 0002:000049bc       $unwind$?ZAxis@bento@@YA?AUVector3@1@AEBUMatrix4@1@@Z 00000001800179bc     bento_sdk:matrix4.obj
 0002:000049c4       $unwind$?Det@bento@@YAMAEBUMatrix4@1@@Z 00000001800179c4     bento_sdk:matrix4.obj
 0002:000049cc       $unwind$?Inverse3x3@bento@@YA?AUMatrix3@1@AEBUMatrix4@1@@Z 00000001800179cc     bento_sdk:matrix4.obj
 0002:000049fc       $unwind$?Inverse@bento@@YA?AUMatrix4@1@AEBU21@@Z 00000001800179fc     bento_sdk:matrix4.obj
 0002:00004a2c       $unwind$?Rotate@bento@@YA?AUMatrix4@1@MAEBUVector3@1@@Z 0000000180017a2c     bento_sdk:matrix4.obj
 0002:00004a64       $unwind$?RotateXAxis@bento@@YA?AUMatrix4@1@M@Z 0000000180017a64     bento_sdk:matrix4.obj
 0002:00004a6c       $unwind$?RotateYAxis@bento@@YA?AUMatrix4@1@M@Z 0000000180017a6c     bento_sdk:matrix4.obj
 0002:00004a74       $unwind$?RotateZAxis@bento@@YA?AUMatrix4@1@M@Z 0000000180017a74     bento_sdk:matrix4.obj
 0002:00004a7c       $unwind$??Dbento@@YA?AUVector4@0@AEBUMatrix4@0@AEBU10@@Z 0000000180017a7c     bento_sdk:matrix4.obj
 0002:00004a8c       $unwind$??Dbento@@YA?AUVector3@0@AEBUMatrix4@0@AEBU10@@Z 0000000180017a8c     bento_sdk:matrix4.obj
 0002:00004a98       $unwind$??Dbento@@YA?AUMatrix4@0@AEBU10@0@Z 0000000180017a98     bento_sdk:matrix4.obj
 0002:00004ac8       $unwind$??6bento@@YAAEAV?$basic_ostream@DU?$char_traits@D@std@@@std@@AEAV12@AEBUMatrix4@0@@Z 0000000180017ac8     bento_sdk:matrix4.obj
 0002:00004ad4       $unwind$??$?6U?$char_traits@D@std@@@std@@YAAEAV?$basic_ostream@DU?$char_traits@D@std@@@0@AEAV10@PEBD@Z 0000000180017ad4     bento_sdk:matrix4.obj
 0002:00004af4       $stateUnwindMap$??$?6U?$char_traits@D@std@@@std@@YAAEAV?$basic_ostream@DU?$char_traits@D@std@@@0@AEAV10@PEBD@Z 0000000180017af4     bento_sdk:matrix4.obj
 0002:00004b18       $ip2state$??$?6U?$char_traits@D@std@@@std@@YAAEAV?$basic_ostream@DU?$char_traits@D@std@@@0@AEAV10@PEBD@Z 0000000180017b18     bento_sdk:matrix4.obj
 0002:00004b48       $unwind$??1_Sentry_base@?$basic_ostream@DU?$char_traits@D@std@@@std@@QEAA@XZ 0000000180017b48     bento_sdk:matrix4.obj
 0002:00004b58       $ip2state$??1_Sentry_base@?$basic_ostream@DU?$char_traits@D@std@@@std@@QEAA@XZ 0000000180017b58     bento_sdk:matrix4.obj
 0002:00004b60       $unwind$??1sentry@?$basic_ostream@DU?$char_traits@D@std@@@std@@QEAA@XZ 0000000180017b60     bento_sdk:matrix4.obj
 0002:00004b70       $stateUnwindMap$??1sentry@?$basic_ostream@DU?$char_traits@D@std@@@std@@QEAA@XZ 0000000180017b70     bento_sdk:matrix4.obj
 0002:00004b78       $ip2state$??1sentry@?$basic_ostream@DU?$char_traits@D@std@@@std@@QEAA@XZ 0000000180017b78     bento_sdk:matrix4.obj
 0002:00004b90       $unwind$??_GIAllocator@bento@@UEAAPEAXI@Z 0000000180017b90     bento_sdk:allocator.obj
 0002:00004b98       $unwind$??_GILogger@bento@@UEAAPEAXI@Z 0000000180017b98     bento_sdk:system_logger.obj
 0002:00004ba0       $unwind$?log@SystemLogger@bento@@UEAAXW4Type@LogLevel@2@PEBD1@Z 0000000180017ba0     bento_sdk:system_logger.obj
 0002:00004bac       $unwind$??_GSystemLogger@bento@@UEAAPEAXI@Z 0000000180017bac     bento_sdk:system_logger.obj
 0002:00004bb4       $unwind$atexit             0000000180017bb4     MSVCRT:utility.obj
 0002:00004bbc       $unwind$_onexit            0000000180017bbc     MSVCRT:utility.obj
 0002:00004bc4       $unwind$__scrt_is_nonwritable_in_current_image 0000000180017bc4     MSVCRT:utility.obj
 0002:00004be4       $unwind$__scrt_is_nonwritable_in_current_image$filt$0 0000000180017be4     MSVCRT:utility.obj
 0002:00004bec       $unwind$__scrt_acquire_startup_lock 0000000180017bec     MSVCRT:utility.obj
 0002:00004bf4       $unwind$__scrt_release_startup_lock 0000000180017bf4     MSVCRT:utility.obj
 0002:00004bfc       $unwind$__scrt_initialize_crt 0000000180017bfc     MSVCRT:utility.obj
 0002:00004c04       $unwind$__scrt_uninitialize_crt 0000000180017c04     MSVCRT:utility.obj
 0002:00004c0c       $unwind$__scrt_initialize_onexit_tables 0000000180017c0c     MSVCRT:utility.obj
 0002:00004c18       $unwind$__scrt_dllmain_exception_filter 0000000180017c18     MSVCRT:utility.obj
 0002:00004c2c       $unwind$__scrt_dllmain_before_initialize_c 0000000180017c2c     MSVCRT:utility.obj
 0002:00004c34       $unwind$__scrt_dllmain_after_initialize_c 0000000180017c34     MSVCRT:utility.obj
 0002:00004c3c       $unwind$__scrt_dllmain_uninitialize_c 0000000180017c3c     MSVCRT:utility.obj
 0002:00004c44       $unwind$__scrt_dllmain_uninitialize_critical 0000000180017c44     MSVCRT:utility.obj
 0002:00004c4c       $unwind$__scrt_dllmain_crt_thread_attach 0000000180017c4c     MSVCRT:utility.obj
 0002:00004c54       $unwind$__scrt_dllmain_crt_thread_detach 0000000180017c54     MSVCRT:utility.obj
 0002:00004c5c       $unwind$?configure_argv@__scrt_narrow_argv_policy@@SAHXZ 0000000180017c5c     MSVCRT:utility.obj
 0002:00004c64       $unwind$__GSHandlerCheckCommon 0000000180017c64     MSVCRT:_gshandler_.obj
 0002:00004c6c       $unwind$__GSHandlerCheck   0000000180017c6c     MSVCRT:_gshandler_.obj
 0002:00004c78       $xdatasym                  0000000180017c78     MSVCRT:_amdsecgs_.obj
 0002:00004c7c       $unwind$?dllmain_crt_process_attach@@YAHQEAUHINSTANCE__@@QEAX@Z 0000000180017c7c     MSVCRT:dll_dllmain.obj
 0002:00004cb8       $unwind$?fin$0@?0??dllmain_crt_process_attach@@YAHQEAUHINSTANCE__@@QEAX@Z@4HA 0000000180017cb8     MSVCRT:dll_dllmain.obj
 0002:00004cc0       $unwind$?dllmain_crt_process_detach@@YAH_N@Z 0000000180017cc0     MSVCRT:dll_dllmain.obj
 0002:00004cf8       $unwind$?fin$0@?0??dllmain_crt_process_detach@@YAH_N@Z@4HA 0000000180017cf8     MSVCRT:dll_dllmain.obj
 0002:00004d00       $unwind$?dllmain_crt_dispatch@@YAHQEAUHINSTANCE__@@KQEAX@Z 0000000180017d00     MSVCRT:dll_dllmain.obj
 0002:00004d08       $unwind$?dllmain_raw@@YAHQEAUHINSTANCE__@@KQEAX@Z 0000000180017d08     MSVCRT:dll_dllmain.obj
 0002:00004d1c       $unwind$?dllmain_dispatch@@YAHQEAUHINSTANCE__@@KQEAX@Z 0000000180017d1c     MSVCRT:dll_dllmain.obj
 0002:00004d44       $unwind$?filt$0@?0??dllmain_dispatch@@YAHQEAUHINSTANCE__@@KQEAX@Z@4HA 0000000180017d44     MSVCRT:dll_dllmain.obj
 0002:00004d4c       $unwind$_DllMainCRTStartup 0000000180017d4c     MSVCRT:dll_dllmain.obj
 0002:00004d5c       $unwind$??2@YAPEAX_K@Z     0000000180017d5c     MSVCRT:new_scalar.obj
 0002:00004d64       $unwind$??_M@YAXPEAX_K1P6AX0@Z@Z 0000000180017d64     MSVCRT:ehvecdtr.obj
 0002:00004d8c       $unwind$?fin$0@?0???_M@YAXPEAX_K1P6AX0@Z@Z@4HA 0000000180017d8c     MSVCRT:ehvecdtr.obj
 0002:00004d94       $unwind$?__ArrayUnwind@@YAXPEAX_K1P6AX0@Z@Z 0000000180017d94     MSVCRT:ehvecdtr.obj
 0002:00004dc0       $unwind$?filt$0@?0??__ArrayUnwind@@YAXPEAX_K1P6AX0@Z@Z@4HA 0000000180017dc0     MSVCRT:ehvecdtr.obj
 0002:00004dc8       $unwind$?ArrayUnwindFilter@@YAHPEAU_EXCEPTION_POINTERS@@@Z 0000000180017dc8     MSVCRT:ehvecdtr.obj
 0002:00004dd0       $unwind$__GSHandlerCheck_EH 0000000180017dd0     MSVCRT:gshandlereh.obj
 0002:00004de8       $unwind$??_Gtype_info@@UEAAPEAXI@Z 0000000180017de8     MSVCRT:std_type_info_static.obj
 0002:00004df0       $unwind$__isa_available_init 0000000180017df0     MSVCRT:_cpu_disp_.obj
 0002:00004e04       $unwind$__scrt_get_show_window_mode 0000000180017e04     MSVCRT:utility_desktop.obj
 0002:00004e0c       $unwind$__scrt_is_managed_app 0000000180017e0c     MSVCRT:utility_desktop.obj
 0002:00004e14       $unwind$__scrt_fastfail    0000000180017e14     MSVCRT:utility_desktop.obj
 0002:00004e24       $unwind$__scrt_unhandled_exception_filter 0000000180017e24     MSVCRT:utility_desktop.obj
 0002:00004e2c       $unwind$__report_securityfailure 0000000180017e2c     MSVCRT:gs_report.obj
 0002:00004e34       $unwind$__report_securityfailureEx 0000000180017e34     MSVCRT:gs_report.obj
 0002:00004e3c       $unwind$__report_rangecheckfailure 0000000180017e3c     MSVCRT:gs_report.obj
 0002:00004e44       $unwind$__report_gsfailure 0000000180017e44     MSVCRT:gs_report.obj
 0002:00004e4c       $unwind$capture_current_context 0000000180017e4c     MSVCRT:gs_report.obj
 0002:00004e58       $unwind$capture_previous_context 0000000180017e58     MSVCRT:gs_report.obj
 0002:00004e64       $unwind$__raise_securityfailure 0000000180017e64     MSVCRT:gs_report.obj
 0002:00004e6c       $unwind$__security_init_cookie 0000000180017e6c     MSVCRT:gs_support.obj
 0002:00004e78       $unwind$__get_entropy      0000000180017e78     MSVCRT:gs_support.obj
 0002:00004e80       $unwind$DllMain            0000000180017e80     MSVCRT:dll_dllmain_stub.obj
 0002:00004e88       $unwind$__scrt_initialize_default_local_stdio_options 0000000180017e88     MSVCRT:default_local_stdio_options.obj
 0002:00004e90       $unwind$_RTC_Initialize    0000000180017e90     MSVCRT:_initsect_.obj
 0002:00004ea0       $unwind$_RTC_Terminate     0000000180017ea0     MSVCRT:_initsect_.obj
 0002:00004eb0       $unwind$??0exception@std@@QEAA@AEBV01@@Z 0000000180017eb0     MSVCRT:throw_bad_alloc.obj
 0002:00004eb8       $unwind$??_Gexception@std@@UEAAPEAXI@Z 0000000180017eb8     MSVCRT:throw_bad_alloc.obj
 0002:00004ec4       $unwind$??0bad_alloc@std@@QEAA@AEBV01@@Z 0000000180017ec4     MSVCRT:throw_bad_alloc.obj
 0002:00004ecc       $unwind$??_Gbad_alloc@std@@UEAAPEAXI@Z 0000000180017ecc     MSVCRT:throw_bad_alloc.obj
 0002:00004ed8       $unwind$??0bad_array_new_length@std@@QEAA@AEBV01@@Z 0000000180017ed8     MSVCRT:throw_bad_alloc.obj
 0002:00004ee0       $unwind$??_Gbad_array_new_length@std@@UEAAPEAXI@Z 0000000180017ee0     MSVCRT:throw_bad_alloc.obj
 0002:00004eec       $unwind$?__scrt_throw_std_bad_alloc@@YAXXZ 0000000180017eec     MSVCRT:throw_bad_alloc.obj
 0002:00004ef4       $unwind$?__scrt_throw_std_bad_array_new_length@@YAXXZ 0000000180017ef4     MSVCRT:throw_bad_alloc.obj
 0002:00004f00       $xdatasym                  0000000180017f00     MSVCRT:_svml_ssinf4_sse2_.obj
 0002:00004f10       $xdatasym                  0000000180017f10     MSVCRT:_guard_dispatch_.obj
 0002:00004f18       $xdatasym                  0000000180017f18     MSVCRT:_rfgfailure_.obj
 0002:00005140       .edata                     0000000180018140     noiseless_dylib.exp
 0002:00005168       rgpv                       0000000180018168     noiseless_dylib.exp
 0002:000051ac       rgszName                   00000001800181ac     noiseless_dylib.exp
 0002:000051f0       rgwOrd                     00000001800181f0     noiseless_dylib.exp
 0002:00005212       szName                     0000000180018212     noiseless_dylib.exp
 0002:00005226       $N00001                    0000000180018226     noiseless_dylib.exp
 0002:00005233       $N00002                    0000000180018233     noiseless_dylib.exp
 0002:00005241       $N00003                    0000000180018241     noiseless_dylib.exp
 0002:00005255       $N00004                    0000000180018255     noiseless_dylib.exp
 0002:0000526a       $N00005                    000000018001826a     noiseless_dylib.exp
 0002:0000527a       $N00006                    000000018001827a     noiseless_dylib.exp
 0002:00005289       $N00007                    0000000180018289     noiseless_dylib.exp
 0002:0000529e       $N00008                    000000018001829e     noiseless_dylib.exp
 0002:000052b4       $N00009                    00000001800182b4     noiseless_dylib.exp
 0002:000052c5       $N00010                    00000001800182c5     noiseless_dylib.exp
 0002:000052df       $N00011                    00000001800182df     noiseless_dylib.exp
 0002:00005302       $N00012                    0000000180018302     noiseless_dylib.exp
 0002:00005322       $N00013                    0000000180018322     noiseless_dylib.exp
 0002:00005337       $N00014                    0000000180018337     noiseless_dylib.exp
 0002:00005354       $N00015                    0000000180018354     noiseless_dylib.exp
 0002:0000536e       $N00016                    000000018001836e     noiseless_dylib.exp
 0002:00005385       $N00017                    0000000180018385     noiseless_dylib.exp
 0002:00005a90       .idata$6                   0000000180018a90     OpenCL:OpenCL.dll
 0002:00006228       .idata$6                   0000000180019228     msvcprt:MSVCP140.dll
 0002:00006312       .idata$6                   0000000180019312     vcruntime:VCRUNTIME140.dll
 0002:00006562       .idata$6                   0000000180019562     ucrt:api-ms-win-crt-heap-l1-1-0.dll
 0002:00006582       .idata$6                   0000000180019582     ucrt:api-ms-win-crt-runtime-l1-1-0.dll
 0002:000065a4       .idata$6                   00000001800195a4     ucrt:api-ms-win-crt-math-l1-1-0.dll
 0002:000065c4       .idata$6                   00000001800195c4     ucrt:api-ms-win-crt-string-l1-1-0.dll
 0002:000065e6       .idata$6                   00000001800195e6     ucrt:api-ms-win-crt-stdio-l1-1-0.dll
 0002:00006606       .idata$6                   0000000180019606     ucrt:api-ms-win-crt-locale-l1-1-0.dll
 0002:00006628       .idata$6                   0000000180019628     ucrt:api-ms-win-crt-convert-l1-1-0.dll
 0002:0000664a       .idata$6                   000000018001964a     ucrt:api-ms-win-crt-filesystem-l1-1-0.dll
 0002:0000683e       .idata$6                   000000018001983e     kernel32:KERNEL32.dll
 0003:000001c0       ?_base_allocator@@3VSystemAllocator@bento@@A 000000018001a1c0     allocator_c_api.obj
 0003:000001c8       ?__common_allocator@bento@@3VSystemAllocator@1@A 000000018001a1c8     bento_sdk:common.obj
 0003:000001e4       ?module_local_atexit_table_initialized@@3_NA 000000018001a1e4     MSVCRT:utility.obj
 0003:000001f0       ?module_local_atexit_table@@3U_onexit_table_t@@A 000000018001a1f0     MSVCRT:utility.obj
 0003:00000208       ?module_local_at_quick_exit_table@@3U_onexit_table_t@@A 000000018001a208     MSVCRT:utility.obj
 0003:00000220       ?is_initialized_as_dll@@3_NA 000000018001a220     MSVCRT:utility.obj
 0003:00000224       ?__proc_attached@@3HA      000000018001a224     MSVCRT:dll_dllmain.obj
 0003:00000230       GS_ExceptionRecord         000000018001a230     MSVCRT:gs_report.obj
 0003:000002d0       GS_ContextRecord           000000018001a2d0     MSVCRT:gs_report.obj
 0004:00000000       $pdata$??__E_base_allocator@@YAXXZ 000000018001b000     allocator_c_api.obj
 0004:0000000c       $pdata$??__E__common_allocator@bento@@YAXXZ 000000018001b00c     bento_sdk:common.obj
 0004:00000018       $pdata$??__E__default_system_logger@bento@@YAXXZ 000000018001b018     bento_sdk:log.obj
 0004:00000024       $pdata$nl_create_allocator 000000018001b024     allocator_c_api.obj
 0004:00000030       $pdata$??1?$Vector@D@bento@@QEAA@XZ 000000018001b030     asset_database_c_api.obj
 0004:0000003c       $pdata$?free@?$Vector@D@bento@@QEAAXXZ 000000018001b03c     asset_database_c_api.obj
 0004:00000048       $pdata$nl_adb_build        000000018001b048     asset_database_c_api.obj
 0004:00000054       $pdata$nl_create_adb       000000018001b054     asset_database_c_api.obj
 0004:00000060       $pdata$nl_create_integrator 000000018001b060     integrator_c_api.obj
 0004:0000006c       $pdata$nl_integrator_render 000000018001b06c     integrator_c_api.obj
 0004:00000078       $pdata$?reserve@?$Vector@UIVector3@bento@@@bento@@QEAAXI@Z 000000018001b078     scene_c_api.obj
 0004:00000084       $pdata$?reserve@?$Vector@UVector3@bento@@@bento@@QEAAXI@Z 000000018001b084     scene_c_api.obj
 0004:00000090       $pdata$?resize@?$Vector@UIVector3@bento@@@bento@@QEAAXI@Z 000000018001b090     scene_c_api.obj
 0004:0000009c       $pdata$?resize@?$Vector@UVector3@bento@@@bento@@QEAAXI@Z 000000018001b09c     scene_c_api.obj
 0004:000000a8       $pdata$nl_create_scene     000000018001b0a8     scene_c_api.obj
 0004:000000b4       $pdata$nl_scene_set_mesh_data 000000018001b0b4     scene_c_api.obj
 0004:000000c0       $pdata$??1?$Vector@VDynamicString@bento@@@bento@@QEAA@XZ 000000018001b0c0     noiseless_sdk:compiler.obj
 0004:000000cc       $pdata$??1DynamicString@bento@@QEAA@XZ 000000018001b0cc     noiseless_sdk:compiler.obj
 0004:000000d8       $pdata$??1TKernelSource@noiseless@@QEAA@XZ 000000018001b0d8     noiseless_sdk:compiler.obj
 0004:000000e4       $pdata$?clear@?$Vector@VDynamicString@bento@@@bento@@QEAAXXZ 000000018001b0e4     noiseless_sdk:compiler.obj
 0004:000000f0       $pdata$?compile@asset_compiler@noiseless@@YA_NAEBUTCompilerOptions@2@AEAVTAssetDatabase@bento@@@Z 000000018001b0f0     noiseless_sdk:compiler.obj
 0004:000000fc       $pdata$?free@?$Vector@VDynamicString@bento@@@bento@@QEAAXXZ 000000018001b0fc     noiseless_sdk:compiler.obj
 0004:00000108       $pdata$?write@asset_compiler@noiseless@@YAXAEBUTCompilerOptions@2@AEBVTAssetDatabase@bento@@@Z 000000018001b108     noiseless_sdk:compiler.obj
 0004:00000114       $pdata$?init_resources@TIntegrator@noiseless@@QEAAXAEBVTAssetDatabase@bento@@@Z 000000018001b114     noiseless_sdk:integrator.obj
 0004:00000120       $pdata$?read_color_buffer@TIntegrator@noiseless@@QEBAXAEAV?$Vector@UVector4@bento@@@bento@@@Z 000000018001b120     noiseless_sdk:integrator.obj
 0004:0000012c       $pdata$0$?read_color_buffer@TIntegrator@noiseless@@QEBAXAEAV?$Vector@UVector4@bento@@@bento@@@Z 000000018001b12c     noiseless_sdk:integrator.obj
 0004:00000138       $pdata$1$?read_color_buffer@TIntegrator@noiseless@@QEBAXAEAV?$Vector@UVector4@bento@@@bento@@@Z 000000018001b138     noiseless_sdk:integrator.obj
 0004:00000144       $pdata$?release_resources@TIntegrator@noiseless@@QEAAXXZ 000000018001b144     noiseless_sdk:integrator.obj
 0004:00000150       $pdata$?render@TIntegrator@noiseless@@QEAAXAEBUTCamera@2@@Z 000000018001b150     noiseless_sdk:integrator.obj
 0004:0000015c       $pdata$?reserve@?$Vector@UVector4@bento@@@bento@@QEAAXI@Z 000000018001b15c     noiseless_sdk:integrator.obj
 0004:00000168       $pdata$?resize@?$Vector@UVector4@bento@@@bento@@QEAAXI@Z 000000018001b168     noiseless_sdk:integrator.obj
 0004:00000174       $pdata$?set_resolution@TIntegrator@noiseless@@QEAAXII@Z 000000018001b174     noiseless_sdk:integrator.obj
 0004:00000180       $pdata$??1?$Vector@UIVector3@bento@@@bento@@QEAA@XZ 000000018001b180     noiseless_sdk:scene.obj
 0004:0000018c       $pdata$??1?$Vector@UTMesh@noiseless@@@bento@@QEAA@XZ 000000018001b18c     noiseless_sdk:scene.obj
 0004:00000198       $pdata$??1?$Vector@UVector3@bento@@@bento@@QEAA@XZ 000000018001b198     noiseless_sdk:scene.obj
 0004:000001a4       $pdata$?clear@?$Vector@UTMesh@noiseless@@@bento@@QEAAXXZ 000000018001b1a4     noiseless_sdk:scene.obj
 0004:000001b0       $pdata$?free@?$Vector@UIVector3@bento@@@bento@@QEAAXXZ 000000018001b1b0     noiseless_sdk:scene.obj
 0004:000001bc       $pdata$?free@?$Vector@UTMesh@noiseless@@@bento@@QEAAXXZ 000000018001b1bc     noiseless_sdk:scene.obj
 0004:000001c8       $pdata$?free@?$Vector@UVector3@bento@@@bento@@QEAAXXZ 000000018001b1c8     noiseless_sdk:scene.obj
 0004:000001d4       $pdata$?reserve@?$Vector@UTMesh@noiseless@@@bento@@QEAAXI@Z 000000018001b1d4     noiseless_sdk:scene.obj
 0004:000001e0       $pdata$?resize@?$Vector@UTMesh@noiseless@@@bento@@QEAAXI@Z 000000018001b1e0     noiseless_sdk:scene.obj
 0004:000001ec       $pdata$??$pack_vector_bytes@D@bento@@YAXAEAV?$Vector@D@0@AEBV10@@Z 000000018001b1ec     noiseless_sdk:kernel_source.obj
 0004:000001f8       $pdata$??$unpack_vector_bytes@D@bento@@YAXAEAPEBDAEAV?$Vector@D@0@@Z 000000018001b1f8     noiseless_sdk:kernel_source.obj
 0004:00000204       $pdata$0$??$unpack_vector_bytes@D@bento@@YAXAEAPEBDAEAV?$Vector@D@0@@Z 000000018001b204     noiseless_sdk:kernel_source.obj
 0004:00000210       $pdata$1$??$unpack_vector_bytes@D@bento@@YAXAEAPEBDAEAV?$Vector@D@0@@Z 000000018001b210     noiseless_sdk:kernel_source.obj
 0004:0000021c       $pdata$?pack_type@bento@@YAXAEAV?$Vector@D@1@AEBUTKernelSource@noiseless@@@Z 000000018001b21c     noiseless_sdk:kernel_source.obj
 0004:00000228       $pdata$?reserve@?$Vector@D@bento@@QEAAXI@Z 000000018001b228     noiseless_sdk:kernel_source.obj
 0004:00000234       $pdata$?resize@?$Vector@D@bento@@QEAAXI@Z 000000018001b234     noiseless_sdk:kernel_source.obj
 0004:00000240       $pdata$?unpack_type@bento@@YA_NAEAPEBDAEAUTKernelSource@noiseless@@@Z 000000018001b240     noiseless_sdk:kernel_source.obj
 0004:0000024c       $pdata$1$?unpack_type@bento@@YA_NAEAPEBDAEAUTKernelSource@noiseless@@@Z 000000018001b24c     noiseless_sdk:kernel_source.obj
 0004:00000258       $pdata$2$?unpack_type@bento@@YA_NAEAPEBDAEAUTKernelSource@noiseless@@@Z 000000018001b258     noiseless_sdk:kernel_source.obj
 0004:00000264       $pdata$??$_Getvals@_W@?$time_get@DV?$istreambuf_iterator@DU?$char_traits@D@std@@@std@@@std@@IEAAX_WAEBV_Locinfo@1@@Z 000000018001b264     noiseless_sdk:asset_database_helpers.obj
 0004:00000270       $pdata$??$_Getvals@_W@?$time_get@_WV?$istreambuf_iterator@_WU?$char_traits@_W@std@@@std@@@std@@IEAAX_WAEBV_Locinfo@1@@Z 000000018001b270     noiseless_sdk:asset_database_helpers.obj
 0004:0000027c       $pdata$??1DiskSerializer@bento@@QEAA@XZ 000000018001b27c     noiseless_sdk:asset_database_helpers.obj
 0004:00000288       $pdata$?_Maklocwcs@std@@YAPEA_WPEB_W@Z 000000018001b288     noiseless_sdk:asset_database_helpers.obj
 0004:00000294       $pdata$?read_database@noiseless@@YA_NPEBDAEAVTAssetDatabase@bento@@@Z 000000018001b294     noiseless_sdk:asset_database_helpers.obj
 0004:000002a0       $pdata$?write_database@noiseless@@YA_NPEBDAEBVTAssetDatabase@bento@@@Z 000000018001b2a0     noiseless_sdk:asset_database_helpers.obj
 0004:000002ac       $pdata$?write_database_debug@noiseless@@YA_NPEBDAEBVTAssetDatabase@bento@@@Z 000000018001b2ac     noiseless_sdk:asset_database_helpers.obj
 0004:000002b8       $pdata$??$_Allocate@U?$_Default_allocate_traits@$00@std@@@std@@YAPEAX_K0_K@Z 000000018001b2b8     noiseless_sdk:compute_api.obj
 0004:000002c4       $pdata$?_Fail@?$_Default_allocate_traits@$00@std@@SAXXZ 000000018001b2c4     noiseless_sdk:compute_api.obj
 0004:000002d0       $pdata$?_Tidy@?$vector@PEAU_cl_platform_id@@V?$allocator@PEAU_cl_platform_id@@@std@@@std@@AEAAXXZ 000000018001b2d0     noiseless_sdk:compute_api.obj
 0004:000002dc       $pdata$?create_buffer@noiseless@@YA_K_K0W4Type@ComputeBufferType@1@@Z 000000018001b2dc     noiseless_sdk:compute_api.obj
 0004:000002e8       $pdata$?create_compute_context@noiseless@@YA_KXZ 000000018001b2e8     noiseless_sdk:compute_api.obj
 0004:000002f4       $pdata$?create_kernel@noiseless@@YA_K_KPEBD@Z 000000018001b2f4     noiseless_sdk:compute_api.obj
 0004:00000300       $pdata$?create_program_source@noiseless@@YA_K_KPEBD@Z 000000018001b300     noiseless_sdk:compute_api.obj
 0004:0000030c       $pdata$?destroy_buffer@noiseless@@YAX_K@Z 000000018001b30c     noiseless_sdk:compute_api.obj
 0004:00000318       $pdata$?destroy_compute_context@noiseless@@YAX_K@Z 000000018001b318     noiseless_sdk:compute_api.obj
 0004:00000324       $pdata$?evaluate_platforms@noiseless@@YA_KAEAV?$vector@PEAU_cl_platform_id@@V?$allocator@PEAU_cl_platform_id@@@std@@@std@@@Z 000000018001b324     noiseless_sdk:compute_api.obj
 0004:00000330       $pdata$0$?evaluate_platforms@noiseless@@YA_KAEAV?$vector@PEAU_cl_platform_id@@V?$allocator@PEAU_cl_platform_id@@@std@@@std@@@Z 000000018001b330     noiseless_sdk:compute_api.obj
 0004:0000033c       $pdata$1$?evaluate_platforms@noiseless@@YA_KAEAV?$vector@PEAU_cl_platform_id@@V?$allocator@PEAU_cl_platform_id@@@std@@@std@@@Z 000000018001b33c     noiseless_sdk:compute_api.obj
 0004:00000348       $pdata$?kernel_argument@noiseless@@YA_N_KH0@Z 000000018001b348     noiseless_sdk:compute_api.obj
 0004:00000354       $pdata$?kernel_argument@noiseless@@YA_N_KHIPEAE@Z 000000018001b354     noiseless_sdk:compute_api.obj
 0004:00000360       $pdata$?launch_kernel_1D@noiseless@@YA_N_K00@Z 000000018001b360     noiseless_sdk:compute_api.obj
 0004:0000036c       $pdata$?launch_kernel_2D@noiseless@@YA_N_K000@Z 000000018001b36c     noiseless_sdk:compute_api.obj
 0004:00000378       $pdata$?read_buffer@noiseless@@YA_N_K0PEAE@Z 000000018001b378     noiseless_sdk:compute_api.obj
 0004:00000384       $pdata$?write_buffer@noiseless@@YA_N_K0PEAE@Z 000000018001b384     noiseless_sdk:compute_api.obj
 0004:00000390       $pdata$??0?$Vector@UIVector4@bento@@@bento@@QEAA@AEAVIAllocator@1@I@Z 000000018001b390     noiseless_sdk:compute_scene.obj
 0004:0000039c       $pdata$??0?$Vector@UVector4@bento@@@bento@@QEAA@AEAVIAllocator@1@I@Z 000000018001b39c     noiseless_sdk:compute_scene.obj
 0004:000003a8       $pdata$??1?$Vector@UIVector4@bento@@@bento@@QEAA@XZ 000000018001b3a8     noiseless_sdk:compute_scene.obj
 0004:000003b4       $pdata$??1?$Vector@UVector4@bento@@@bento@@QEAA@XZ 000000018001b3b4     noiseless_sdk:compute_scene.obj
 0004:000003c0       $pdata$?create_compute_scene@noiseless@@YAX_KAEBVTScene@1@AEAUTComputeScene@1@@Z 000000018001b3c0     noiseless_sdk:compute_scene.obj
 0004:000003cc       $pdata$?destroy_compute_scene@noiseless@@YAXAEAUTComputeScene@1@@Z 000000018001b3cc     noiseless_sdk:compute_scene.obj
 0004:000003d8       $pdata$?free@?$Vector@UIVector4@bento@@@bento@@QEAAXXZ 000000018001b3d8     noiseless_sdk:compute_scene.obj
 0004:000003e4       $pdata$?free@?$Vector@UVector4@bento@@@bento@@QEAAXXZ 000000018001b3e4     noiseless_sdk:compute_scene.obj
 0004:000003f0       $pdata$?reserve@?$Vector@UIVector4@bento@@@bento@@QEAAXI@Z 000000018001b3f0     noiseless_sdk:compute_scene.obj
 0004:000003fc       $pdata$?resize@?$Vector@UIVector4@bento@@@bento@@QEAAXI@Z 000000018001b3fc     noiseless_sdk:compute_scene.obj
 0004:00000408       $pdata$?build_ray_generation_data@noiseless@@YAXAEBUTCamera@1@IIAEAUTCameraRaySettings@1@@Z 000000018001b408     noiseless_sdk:camera_ray_generation.obj
 0004:00000414       $pdata$??0SystemAllocator@bento@@QEAA@XZ 000000018001b414     bento_sdk:system_allocator.obj
 0004:00000420       $pdata$??_GSystemAllocator@bento@@UEAAPEAXI@Z 000000018001b420     bento_sdk:system_allocator.obj
 0004:0000042c       $pdata$?reallocate@SystemAllocator@bento@@UEAAPEAXPEAX_K11@Z 000000018001b42c     bento_sdk:system_allocator.obj
 0004:00000438       $pdata$??0DynamicString@bento@@QEAA@AEAVIAllocator@1@@Z 000000018001b438     bento_sdk:dynamic_string.obj
 0004:00000444       $pdata$??0DynamicString@bento@@QEAA@AEAVIAllocator@1@I@Z 000000018001b444     bento_sdk:dynamic_string.obj
 0004:00000450       $pdata$??0DynamicString@bento@@QEAA@AEAVIAllocator@1@PEBD@Z 000000018001b450     bento_sdk:dynamic_string.obj
 0004:0000045c       $pdata$??0DynamicString@bento@@QEAA@AEBV01@@Z 000000018001b45c     bento_sdk:dynamic_string.obj
 0004:00000468       $pdata$??4DynamicString@bento@@QEAAAEAV01@AEBV01@@Z 000000018001b468     bento_sdk:dynamic_string.obj
 0004:00000474       $pdata$??4DynamicString@bento@@QEAAAEAV01@PEBD@Z 000000018001b474     bento_sdk:dynamic_string.obj
 0004:00000480       $pdata$??YDynamicString@bento@@QEAAAEAV01@AEBV01@@Z 000000018001b480     bento_sdk:dynamic_string.obj
 0004:0000048c       $pdata$??YDynamicString@bento@@QEAAAEAV01@PEBD@Z 000000018001b48c     bento_sdk:dynamic_string.obj
 0004:00000498       $pdata$?pack_type@bento@@YAXAEAV?$Vector@D@1@AEBVDynamicString@1@@Z 000000018001b498     bento_sdk:dynamic_string.obj
 0004:000004a4       $pdata$?resize@DynamicString@bento@@QEAAXI@Z 000000018001b4a4     bento_sdk:dynamic_string.obj
 0004:000004b0       $pdata$?substr@string@bento@@YA?AVDynamicString@2@AEBV32@II@Z 000000018001b4b0     bento_sdk:dynamic_string.obj
 0004:000004bc       $pdata$?to_lower_case@string@bento@@YAXAEAVDynamicString@2@@Z 000000018001b4bc     bento_sdk:dynamic_string.obj
 0004:000004c8       $pdata$0$?to_lower_case@string@bento@@YAXAEAVDynamicString@2@@Z 000000018001b4c8     bento_sdk:dynamic_string.obj
 0004:000004d4       $pdata$1$?to_lower_case@string@bento@@YAXAEAVDynamicString@2@@Z 000000018001b4d4     bento_sdk:dynamic_string.obj
 0004:000004e0       $pdata$?unpack_type@bento@@YAXAEAPEBDAEAVDynamicString@1@@Z 000000018001b4e0     bento_sdk:dynamic_string.obj
 0004:000004ec       $pdata$??$?6DU?$char_traits@D@std@@_J@std@@YAAEAV?$basic_ostream@DU?$char_traits@D@std@@@0@AEAV10@AEBU?$_Smanip@_J@0@@Z 000000018001b4ec     bento_sdk:asset_database.obj
 0004:000004f8       $pdata$??$?HDU?$char_traits@D@std@@V?$allocator@D@1@@std@@YA?AV?$basic_string@DU?$char_traits@D@std@@V?$allocator@D@2@@0@$$QEAV10@0@Z 000000018001b4f8     bento_sdk:asset_database.obj
 0004:00000504       $pdata$??$?HDU?$char_traits@D@std@@V?$allocator@D@1@@std@@YA?AV?$basic_string@DU?$char_traits@D@std@@V?$allocator@D@2@@0@$$QEAV10@QEBD@Z 000000018001b504     bento_sdk:asset_database.obj
 0004:00000510       $pdata$??$?HDU?$char_traits@D@std@@V?$allocator@D@1@@std@@YA?AV?$basic_string@DU?$char_traits@D@std@@V?$allocator@D@2@@0@QEBD$$QEAV10@@Z 000000018001b510     bento_sdk:asset_database.obj
 0004:0000051c       $pdata$??$?HDU?$char_traits@D@std@@V?$allocator@D@1@@std@@YA?AV?$basic_string@DU?$char_traits@D@std@@V?$allocator@D@2@@0@QEBDAEBV10@@Z 000000018001b51c     bento_sdk:asset_database.obj
 0004:00000528       $pdata$??$_Copy_nodes@U_Copy_tag@?$_Tree@V?$_Tmap_traits@V?$basic_string@DU?$char_traits@D@std@@V?$allocator@D@2@@std@@V?$basic_json@Vmap@std@@Vvector@2@V?$basic_string@DU?$char_traits@D@std@@V?$allocator@D@2@@2@_N_J_KNVallocator@2@Uadl_serializer@nlohmann@@@nlohmann@@U?$less@V?$basic_string@DU?$char_traits@D@std@@V?$allocator@D@2@@std@@@2@V?$allocator@U?$pair@$$CBV?$basic_string@DU?$char_traits@D@std@@V?$allocator@D@2@@std@@V?$basic_json@Vmap@std@@Vvector@2@V?$basic_string@DU?$char_traits@D@std@@V?$allocator@D@2@@2@_N_J_KNVallocator@2@Uadl_serializer@nlohmann@@@nlohmann@@@std@@@2@$0A@@std@@@std@@@?$_Tree@V?$_Tmap_traits@V?$basic_string@DU?$char_traits@D@std@@V?$allocator@D@2@@std@@V?$basic_json@Vmap@std@@Vvector@2@V?$basic_string@DU?$char_traits@D@std@@V?$allocator@D@2@@2@_N_J_KNVallocator@2@Uadl_serializer@nlohmann@@@nlohmann@@U?$less@V?$basic_string@DU?$char_traits@D@std@@V?$allocator@D@2@@std@@@2@V?$allocator@U?$pair@$$CBV?$basic_string@DU?$char_traits@D@std@@V?$allocator@D@2@@std@@V?$basic_json@Vmap@std@@Vvector@2@V?$basic_string@DU?$char_traits@D@std@@V?$allocator@D@2@@2@_N_J_KNVallocator@2@Uadl_serializer@nlohmann@@@nlohmann@@@std@@@2@$0A@@std@@@std@@IEAAPEAU?$_Tree_node@U?$pair@$$CBV?$basic_string@DU?$char_traits@D@std@@V?$allocator@D@2@@std@@V?$basic_json@Vmap@std@@Vvector@2@V?$basic_string@DU?$char_traits@D@std@@V?$allocator@D@2@@2@_N_J_KNVallocator@2@Uadl_serializer@nlohmann@@@nlohmann@@@std@@PEAX@1@PEAU21@0U_Copy_tag@01@@Z 000000018001b528     bento_sdk:asset_database.obj
 0004:00000534       $pdata$??$_Insert_at@AEAU?$pair@$$CBV?$basic_string@DU?$char_traits@D@std@@V?$allocator@D@2@@std@@V?$basic_json@Vmap@std@@Vvector@2@V?$basic_string@DU?$char_traits@D@std@@V?$allocator@D@2@@2@_N_J_KNVallocator@2@Uadl_serializer@nlohmann@@@nlohmann@@@std@@PEAU?$_Tree_node@U?$pair@$$CBV?$basic_string@DU?$char_traits@D@std@@V?$allocator@D@2@@std@@V?$basic_json@Vmap@std@@Vvector@2@V?$basic_string@DU?$char_traits@D@std@@V?$allocator@D@2@@2@_N_J_KNVallocator@2@Uadl_serializer@nlohmann@@@nlohmann@@@std@@PEAX@2@@?$_Tree@V?$_Tmap_traits@V?$basic_string@DU?$char_traits@D@std@@V?$allocator@D@2@@std@@V?$basic_json@Vmap@std@@Vvector@2@V?$basic_string@DU?$char_traits@D@std@@V?$allocator@D@2@@2@_N_J_KNVallocator@2@Uadl_serializer@nlohmann@@@nlohmann@@U?$less@V?$basic_string@DU?$char_traits@D@std@@V?$allocator@D@2@@std@@@2@V?$allocator@U?$pair@$$CBV?$basic_string@DU?$char_traits@D@std@@V?$allocator@D@2@@std@@V?$basic_json@Vmap@std@@Vvector@2@V?$basic_string@DU?$char_traits@D@std@@V?$allocator@D@2@@2@_N_J_KNVallocator@2@Uadl_serializer@nlohmann@@@nlohmann@@@std@@@2@$0A@@std@@@std@@IEAA?AV?$_Tree_iterator@V?$_Tree_val@U?$_Tree_simple_types@U?$pair@$$CBV?$basic_string@DU?$char_traits@D@std@@V?$allocator@D@2@@std@@V?$basic_json@Vmap@std@@Vvector@2@V?$basic_string@DU?$char_traits@D@std@@V?$allocator@D@2@@2@_N_J_KNVallocator@2@Uadl_serializer@nlohmann@@@nlohmann@@@std@@@std@@@std@@@1@_NPEAU?$_Tree_node@U?$pair@$$CBV?$basic_string@DU?$char_traits@D@std@@V?$allocator@D@2@@std@@V?$basic_json@Vmap@std@@Vvector@2@V?$basic_string@DU?$char_traits@D@std@@V?$allocator@D@2@@2@_N_J_KNVallocator@2@Uadl_serializer@nlohmann@@@nlohmann@@@std@@PEAX@1@AEAU?$pair@$$CBV?$basic_string@DU?$char_traits@D@std@@V?$allocator@D@2@@std@@V?$basic_json@Vmap@std@@Vvector@2@V?$basic_string@DU?$char_traits@D@std@@V?$allocator@D@2@@2@_N_J_KNVallocator@2@Uadl_serializer@nlohmann@@@nlohmann@@@1@1@Z 000000018001b534     bento_sdk:asset_database.obj
 0004:00000540       $pdata$0$??$_Insert_at@AEAU?$pair@$$CBV?$basic_string@DU?$char_traits@D@std@@V?$allocator@D@2@@std@@V?$basic_json@Vmap@std@@Vvector@2@V?$basic_string@DU?$char_traits@D@std@@V?$allocator@D@2@@2@_N_J_KNVallocator@2@Uadl_serializer@nlohmann@@@nlohmann@@@std@@PEAU?$_Tree_node@U?$pair@$$CBV?$basic_string@DU?$char_traits@D@std@@V?$allocator@D@2@@std@@V?$basic_json@Vmap@std@@Vvector@2@V?$basic_string@DU?$char_traits@D@std@@V?$allocator@D@2@@2@_N_J_KNVallocator@2@Uadl_serializer@nlohmann@@@nlohmann@@@std@@PEAX@2@@?$_Tree@V?$_Tmap_traits@V?$basic_string@DU?$char_traits@D@std@@V?$allocator@D@2@@std@@V?$basic_json@Vmap@std@@Vvector@2@V?$basic_string@DU?$char_traits@D@std@@V?$allocator@D@2@@2@_N_J_KNVallocator@2@Uadl_serializer@nlohmann@@@nlohmann@@U?$less@V?$basic_string@DU?$char_traits@D@std@@V?$allocator@D@2@@std@@@2@V?$allocator@U?$pair@$$CBV?$basic_string@DU?$char_traits@D@std@@V?$allocator@D@2@@std@@V?$basic_json@Vmap@std@@Vvector@2@V?$basic_string@DU?$char_traits@D@std@@V?$allocator@D@2@@2@_N_J_KNVallocator@2@Uadl_serializer@nlohmann@@@nlohmann@@@std@@@2@$0A@@std@@@std@@IEAA?AV?$_Tree_iterator@V?$_Tree_val@U?$_Tree_simple_types@U?$pair@$$CBV?$basic_string@DU?$char_traits@D@std@@V?$allocator@D@2@@std@@V?$basic_json@Vmap@std@@Vvector@2@V?$basic_string@DU?$char_traits@D@std@@V?$allocator@D@2@@2@_N_J_KNVallocator@2@Uadl_serializer@nlohmann@@@nlohmann@@@std@@@std@@@std@@@1@_NPEAU?$_Tree_node@U?$pair@$$CBV?$basic_string@DU?$char_traits@D@std@@V?$allocator@D@2@@std@@V?$basic_json@Vmap@std@@Vvector@2@V?$basic_string@DU?$char_traits@D@std@@V?$allocator@D@2@@2@_N_J_KNVallocator@2@Uadl_serializer@nlohmann@@@nlohmann@@@std@@PEAX@1@AEAU?$pair@$$CBV?$basic_string@DU?$char_traits@D@std@@V?$allocator@D@2@@std@@V?$basic_json@Vmap@std@@Vvector@2@V?$basic_string@DU?$char_traits@D@std@@V?$allocator@D@2@@2@_N_J_KNVallocator@2@Uadl_serializer@nlohmann@@@nlohmann@@@1@1@Z 000000018001b540     bento_sdk:asset_database.obj
 0004:0000054c       $pdata$1$??$_Insert_at@AEAU?$pair@$$CBV?$basic_string@DU?$char_traits@D@std@@V?$allocator@D@2@@std@@V?$basic_json@Vmap@std@@Vvector@2@V?$basic_string@DU?$char_traits@D@std@@V?$allocator@D@2@@2@_N_J_KNVallocator@2@Uadl_serializer@nlohmann@@@nlohmann@@@std@@PEAU?$_Tree_node@U?$pair@$$CBV?$basic_string@DU?$char_traits@D@std@@V?$allocator@D@2@@std@@V?$basic_json@Vmap@std@@Vvector@2@V?$basic_string@DU?$char_traits@D@std@@V?$allocator@D@2@@2@_N_J_KNVallocator@2@Uadl_serializer@nlohmann@@@nlohmann@@@std@@PEAX@2@@?$_Tree@V?$_Tmap_traits@V?$basic_string@DU?$char_traits@D@std@@V?$allocator@D@2@@std@@V?$basic_json@Vmap@std@@Vvector@2@V?$basic_string@DU?$char_traits@D@std@@V?$allocator@D@2@@2@_N_J_KNVallocator@2@Uadl_serializer@nlohmann@@@nlohmann@@U?$less@V?$basic_string@DU?$char_traits@D@std@@V?$allocator@D@2@@std@@@2@V?$allocator@U?$pair@$$CBV?$basic_string@DU?$char_traits@D@std@@V?$allocator@D@2@@std@@V?$basic_json@Vmap@std@@Vvector@2@V?$basic_string@DU?$char_traits@D@std@@V?$allocator@D@2@@2@_N_J_KNVallocator@2@Uadl_serializer@nlohmann@@@nlohmann@@@std@@@2@$0A@@std@@@std@@IEAA?AV?$_Tree_iterator@V?$_Tree_val@U?$_Tree_simple_types@U?$pair@$$CBV?$basic_string@DU?$char_traits@D@std@@V?$allocator@D@2@@std@@V?$basic_json@Vmap@std@@Vvector@2@V?$basic_string@DU?$char_traits@D@std@@V?$allocator@D@2@@2@_N_J_KNVallocator@2@Uadl_serializer@nlohmann@@@nlohmann@@@std@@@std@@@std@@@1@_NPEAU?$_Tree_node@U?$pair@$$CBV?$basic_string@DU?$char_traits@D@std@@V?$allocator@D@2@@std@@V?$basic_json@Vmap@std@@Vvector@2@V?$basic_string@DU?$char_traits@D@std@@V?$allocator@D@2@@2@_N_J_KNVallocator@2@Uadl_serializer@nlohmann@@@nlohmann@@@std@@PEAX@1@AEAU?$pair@$$CBV?$basic_string@DU?$char_traits@D@std@@V?$allocator@D@2@@std@@V?$basic_json@Vmap@std@@Vvector@2@V?$basic_string@DU?$char_traits@D@std@@V?$allocator@D@2@@2@_N_J_KNVallocator@2@Uadl_serializer@nlohmann@@@nlohmann@@@1@1@Z 000000018001b54c     bento_sdk:asset_database.obj
 0004:00000558       $pdata$??$_Insert_hint@AEAU?$pair@$$CBV?$basic_string@DU?$char_traits@D@std@@V?$allocator@D@2@@std@@V?$basic_json@Vmap@std@@Vvector@2@V?$basic_string@DU?$char_traits@D@std@@V?$allocator@D@2@@2@_N_J_KNVallocator@2@Uadl_serializer@nlohmann@@@nlohmann@@@std@@PEAU?$_Tree_node@U?$pair@$$CBV?$basic_string@DU?$char_traits@D@std@@V?$allocator@D@2@@std@@V?$basic_json@Vmap@std@@Vvector@2@V?$basic_string@DU?$char_traits@D@std@@V?$allocator@D@2@@2@_N_J_KNVallocator@2@Uadl_serializer@nlohmann@@@nlohmann@@@std@@PEAX@2@@?$_Tree@V?$_Tmap_traits@V?$basic_string@DU?$char_traits@D@std@@V?$allocator@D@2@@std@@V?$basic_json@Vmap@std@@Vvector@2@V?$basic_string@DU?$char_traits@D@std@@V?$allocator@D@2@@2@_N_J_KNVallocator@2@Uadl_serializer@nlohmann@@@nlohmann@@U?$less@V?$basic_string@DU?$char_traits@D@std@@V?$allocator@D@2@@std@@@2@V?$allocator@U?$pair@$$CBV?$basic_string@DU?$char_traits@D@std@@V?$allocator@D@2@@std@@V?$basic_json@Vmap@std@@Vvector@2@V?$basic_string@DU?$char_traits@D@std@@V?$allocator@D@2@@2@_N_J_KNVallocator@2@Uadl_serializer@nlohmann@@@nlohmann@@@std@@@2@$0A@@std@@@std@@IEAA?AV?$_Tree_iterator@V?$_Tree_val@U?$_Tree_simple_types@U?$pair@$$CBV?$basic_string@DU?$char_traits@D@std@@V?$allocator@D@2@@std@@V?$basic_json@Vmap@std@@Vvector@2@V?$basic_string@DU?$char_traits@D@std@@V?$allocator@D@2@@2@_N_J_KNVallocator@2@Uadl_serializer@nlohmann@@@nlohmann@@@std@@@std@@@std@@@1@V?$_Tree_const_iterator@V?$_Tree_val@U?$_Tree_simple_types@U?$pair@$$CBV?$basic_string@DU?$char_traits@D@std@@V?$allocator@D@2@@std@@V?$basic_json@Vmap@std@@Vvector@2@V?$basic_string@DU?$char_traits@D@std@@V?$allocator@D@2@@2@_N_J_KNVallocator@2@Uadl_serializer@nlohmann@@@nlohmann@@@std@@@std@@@std@@@1@AEAU?$pair@$$CBV?$basic_string@DU?$char_traits@D@std@@V?$allocator@D@2@@std@@V?$basic_json@Vmap@std@@Vvector@2@V?$basic_string@DU?$char_traits@D@std@@V?$allocator@D@2@@2@_N_J_KNVallocator@2@Uadl_serializer@nlohmann@@@nlohmann@@@1@PEAU?$_Tree_node@U?$pair@$$CBV?$basic_string@DU?$char_traits@D@std@@V?$allocator@D@2@@std@@V?$basic_json@Vmap@std@@Vvector@2@V?$basic_string@DU?$char_traits@D@std@@V?$allocator@D@2@@2@_N_J_KNVallocator@2@Uadl_serializer@nlohmann@@@nlohmann@@@std@@PEAX@1@@Z 000000018001b558     bento_sdk:asset_database.obj
 0004:00000564       $pdata$1$??$_Insert_hint@AEAU?$pair@$$CBV?$basic_string@DU?$char_traits@D@std@@V?$allocator@D@2@@std@@V?$basic_json@Vmap@std@@Vvector@2@V?$basic_string@DU?$char_traits@D@std@@V?$allocator@D@2@@2@_N_J_KNVallocator@2@Uadl_serializer@nlohmann@@@nlohmann@@@std@@PEAU?$_Tree_node@U?$pair@$$CBV?$basic_string@DU?$char_traits@D@std@@V?$allocator@D@2@@std@@V?$basic_json@Vmap@std@@Vvector@2@V?$basic_string@DU?$char_traits@D@std@@V?$allocator@D@2@@2@_N_J_KNVallocator@2@Uadl_serializer@nlohmann@@@nlohmann@@@std@@PEAX@2@@?$_Tree@V?$_Tmap_traits@V?$basic_string@DU?$char_traits@D@std@@V?$allocator@D@2@@std@@V?$basic_json@Vmap@std@@Vvector@2@V?$basic_string@DU?$char_traits@D@std@@V?$allocator@D@2@@2@_N_J_KNVallocator@2@Uadl_serializer@nlohmann@@@nlohmann@@U?$less@V?$basic_string@DU?$char_traits@D@std@@V?$allocator@D@2@@std@@@2@V?$allocator@U?$pair@$$CBV?$basic_string@DU?$char_traits@D@std@@V?$allocator@D@2@@std@@V?$basic_json@Vmap@std@@Vvector@2@V?$basic_string@DU?$char_traits@D@std@@V?$allocator@D@2@@2@_N_J_KNVallocator@2@Uadl_serializer@nlohmann@@@nlohmann@@@std@@@2@$0A@@std@@@std@@IEAA?AV?$_Tree_iterator@V?$_Tree_val@U?$_Tree_simple_types@U?$pair@$$CBV?$basic_string@DU?$char_traits@D@std@@V?$allocator@D@2@@std@@V?$basic_json@Vmap@std@@Vvector@2@V?$basic_string@DU?$char_traits@D@std@@V?$allocator@D@2@@2@_N_J_KNVallocator@2@Uadl_serializer@nlohmann@@@nlohmann@@@std@@@std@@@std@@@1@V?$_Tree_const_iterator@V?$_Tree_val@U?$_Tree_simple_types@U?$pair@$$CBV?$basic_string@DU?$char_traits@D@std@@V?$allocator@D@2@@std@@V?$basic_json@Vmap@std@@Vvector@2@V?$basic_string@DU?$char_traits@D@std@@V?$allocator@D@2@@2@_N_J_KNVallocator@2@Uadl_serializer@nlohmann@@@nlohmann@@@std@@@std@@@std@@@1@AEAU?$pair@$$CBV?$basic_string@DU?$char_traits@D@std@@V?$allocator@D@2@@std@@V?$basic_json@Vmap@std@@Vvector@2@V?$basic_string@DU?$char_traits@D@std@@V?$allocator@D@2@@2@_N_J_KNVallocator@2@Uadl_serializer@nlohmann@@@nlohmann@@@1@PEAU?$_Tree_node@U?$pair@$$CBV?$basic_string@DU?$char_traits@D@std@@V?$allocator@D@2@@std@@V?$basic_json@Vmap@std@@Vvector@2@V?$basic_string@DU?$char_traits@D@std@@V?$allocator@D@2@@2@_N_J_KNVallocator@2@Uadl_serializer@nlohmann@@@nlohmann@@@std@@PEAX@1@@Z 000000018001b564     bento_sdk:asset_database.obj
 0004:00000570       $pdata$2$??$_Insert_hint@AEAU?$pair@$$CBV?$basic_string@DU?$char_traits@D@std@@V?$allocator@D@2@@std@@V?$basic_json@Vmap@std@@Vvector@2@V?$basic_string@DU?$char_traits@D@std@@V?$allocator@D@2@@2@_N_J_KNVallocator@2@Uadl_serializer@nlohmann@@@nlohmann@@@std@@PEAU?$_Tree_node@U?$pair@$$CBV?$basic_string@DU?$char_traits@D@std@@V?$allocator@D@2@@std@@V?$basic_json@Vmap@std@@Vvector@2@V?$basic_string@DU?$char_traits@D@std@@V?$allocator@D@2@@2@_N_J_KNVallocator@2@Uadl_serializer@nlohmann@@@nlohmann@@@std@@PEAX@2@@?$_Tree@V?$_Tmap_traits@V?$basic_string@DU?$char_traits@D@std@@V?$allocator@D@2@@std@@V?$basic_json@Vmap@std@@Vvector@2@V?$basic_string@DU?$char_traits@D@std@@V?$allocator@D@2@@2@_N_J_KNVallocator@2@Uadl_serializer@nlohmann@@@nlohmann@@U?$less@V?$basic_string@DU?$char_traits@D@std@@V?$allocator@D@2@@std@@@2@V?$allocator@U?$pair@$$CBV?$basic_string@DU?$char_traits@D@std@@V?$allocator@D@2@@std@@V?$basic_json@Vmap@std@@Vvector@2@V?$basic_string@DU?$char_traits@D@std@@V?$allocator@D@2@@2@_N_J_KNVallocator@2@Uadl_serializer@nlohmann@@@nlohmann@@@std@@@2@$0A@@std@@@std@@IEAA?AV?$_Tree_iterator@V?$_Tree_val@U?$_Tree_simple_types@U?$pair@$$CBV?$basic_string@DU?$char_traits@D@std@@V?$allocator@D@2@@std@@V?$basic_json@Vmap@std@@Vvector@2@V?$basic_string@DU?$char_traits@D@std@@V?$allocator@D@2@@2@_N_J_KNVallocator@2@Uadl_serializer@nlohmann@@@nlohmann@@@std@@@std@@@std@@@1@V?$_Tree_const_iterator@V?$_Tree_val@U?$_Tree_simple_types@U?$pair@$$CBV?$basic_string@DU?$char_traits@D@std@@V?$allocator@D@2@@std@@V?$basic_json@Vmap@std@@Vvector@2@V?$basic_string@DU?$char_traits@D@std@@V?$allocator@D@2@@2@_N_J_KNVallocator@2@Uadl_serializer@nlohmann@@@nlohmann@@@std@@@std@@@std@@@1@AEAU?$pair@$$CBV?$basic_string@DU?$char_traits@D@std@@V?$allocator@D@2@@std@@V?$basic_json@Vmap@std@@Vvector@2@V?$basic_string@DU?$char_traits@D@std@@V?$allocator@D@2@@2@_N_J_KNVallocator@2@Uadl_serializer@nlohmann@@@nlohmann@@@1@PEAU?$_Tree_node@U?$pair@$$CBV?$basic_string@DU?$char_traits@D@std@@V?$allocator@D@2@@std@@V?$basic_json@Vmap@std@@Vvector@2@V?$basic_string@DU?$char_traits@D@std@@V?$allocator@D@2@@2@_N_J_KNVallocator@2@Uadl_serializer@nlohmann@@@nlohmann@@@std@@PEAX@1@@Z 000000018001b570     bento_sdk:asset_database.obj
 0004:0000057c       $pdata$??$_Insert_nohint@AEAU?$pair@$$CBV?$basic_string@DU?$char_traits@D@std@@V?$allocator@D@2@@std@@V?$basic_json@Vmap@std@@Vvector@2@V?$basic_string@DU?$char_traits@D@std@@V?$allocator@D@2@@2@_N_J_KNVallocator@2@Uadl_serializer@nlohmann@@@nlohmann@@@std@@PEAU?$_Tree_node@U?$pair@$$CBV?$basic_string@DU?$char_traits@D@std@@V?$allocator@D@2@@std@@V?$basic_json@Vmap@std@@Vvector@2@V?$basic_string@DU?$char_traits@D@std@@V?$allocator@D@2@@2@_N_J_KNVallocator@2@Uadl_serializer@nlohmann@@@nlohmann@@@std@@PEAX@2@@?$_Tree@V?$_Tmap_traits@V?$basic_string@DU?$char_traits@D@std@@V?$allocator@D@2@@std@@V?$basic_json@Vmap@std@@Vvector@2@V?$basic_string@DU?$char_traits@D@std@@V?$allocator@D@2@@2@_N_J_KNVallocator@2@Uadl_serializer@nlohmann@@@nlohmann@@U?$less@V?$basic_string@DU?$char_traits@D@std@@V?$allocator@D@2@@std@@@2@V?$allocator@U?$pair@$$CBV?$basic_string@DU?$char_traits@D@std@@V?$allocator@D@2@@std@@V?$basic_json@Vmap@std@@Vvector@2@V?$basic_string@DU?$char_traits@D@std@@V?$allocator@D@2@@2@_N_J_KNVallocator@2@Uadl_serializer@nlohmann@@@nlohmann@@@std@@@2@$0A@@std@@@std@@IEAA?AU?$pair@V?$_Tree_iterator@V?$_Tree_val@U?$_Tree_simple_types@U?$pair@$$CBV?$basic_string@DU?$char_traits@D@std@@V?$allocator@D@2@@std@@V?$basic_json@Vmap@std@@Vvector@2@V?$basic_string@DU?$char_traits@D@std@@V?$allocator@D@2@@2@_N_J_KNVallocator@2@Uadl_serializer@nlohmann@@@nlohmann@@@std@@@std@@@std@@@std@@_N@1@_NAEAU?$pair@$$CBV?$basic_string@DU?$char_traits@D@std@@V?$allocator@D@2@@std@@V?$basic_json@Vmap@std@@Vvector@2@V?$basic_string@DU?$char_traits@D@std@@V?$allocator@D@2@@2@_N_J_KNVallocator@2@Uadl_serializer@nlohmann@@@nlohmann@@@1@PEAU?$_Tree_node@U?$pair@$$CBV?$basic_string@DU?$char_traits@D@std@@V?$allocator@D@2@@std@@V?$basic_json@Vmap@std@@Vvector@2@V?$basic_string@DU?$char_traits@D@std@@V?$allocator@D@2@@2@_N_J_KNVallocator@2@Uadl_serializer@nlohmann@@@nlohmann@@@std@@PEAX@1@@Z 000000018001b57c     bento_sdk:asset_database.obj
 0004:00000588       $pdata$??$_Reallocate_grow_by@V<lambda_f3a66ab6a0570788f31503db83886f49>@@_KPEBD_K@?$basic_string@DU?$char_traits@D@std@@V?$allocator@D@2@@std@@QEAAAEAV01@_KV<lambda_f3a66ab6a0570788f31503db83886f49>@@_KPEBD2@Z 000000018001b588     bento_sdk:asset_database.obj
 0004:00000594       $pdata$3$??$_Reallocate_grow_by@V<lambda_f3a66ab6a0570788f31503db83886f49>@@_KPEBD_K@?$basic_string@DU?$char_traits@D@std@@V?$allocator@D@2@@std@@QEAAAEAV01@_KV<lambda_f3a66ab6a0570788f31503db83886f49>@@_KPEBD2@Z 000000018001b594     bento_sdk:asset_database.obj
 0004:000005a0       $pdata$4$??$_Reallocate_grow_by@V<lambda_f3a66ab6a0570788f31503db83886f49>@@_KPEBD_K@?$basic_string@DU?$char_traits@D@std@@V?$allocator@D@2@@std@@QEAAAEAV01@_KV<lambda_f3a66ab6a0570788f31503db83886f49>@@_KPEBD2@Z 000000018001b5a0     bento_sdk:asset_database.obj
 0004:000005ac       $pdata$??$compute_boundaries@N@dtoa_impl@detail@nlohmann@@YA?AUboundaries@012@N@Z 000000018001b5ac     bento_sdk:asset_database.obj
 0004:000005b8       $pdata$??$construct@V?$basic_json@Vmap@std@@Vvector@2@V?$basic_string@DU?$char_traits@D@std@@V?$allocator@D@2@@2@_N_J_KNVallocator@2@Uadl_serializer@nlohmann@@@nlohmann@@@?$external_constructor@$02@detail@nlohmann@@SAXAEAV?$basic_json@Vmap@std@@Vvector@2@V?$basic_string@DU?$char_traits@D@std@@V?$allocator@D@2@@2@_N_J_KNVallocator@2@Uadl_serializer@nlohmann@@@2@$$QEAV?$basic_string@DU?$char_traits@D@std@@V?$allocator@D@2@@std@@@Z 000000018001b5b8     bento_sdk:asset_database.obj
 0004:000005c4       $pdata$??$create@V?$map@V?$basic_string@DU?$char_traits@D@std@@V?$allocator@D@2@@std@@V?$basic_json@Vmap@std@@Vvector@2@V?$basic_string@DU?$char_traits@D@std@@V?$allocator@D@2@@2@_N_J_KNVallocator@2@Uadl_serializer@nlohmann@@@nlohmann@@U?$less@V?$basic_string@DU?$char_traits@D@std@@V?$allocator@D@2@@std@@@2@V?$allocator@U?$pair@$$CBV?$basic_string@DU?$char_traits@D@std@@V?$allocator@D@2@@std@@V?$basic_json@Vmap@std@@Vvector@2@V?$basic_string@DU?$char_traits@D@std@@V?$allocator@D@2@@2@_N_J_KNVallocator@2@Uadl_serializer@nlohmann@@@nlohmann@@@std@@@2@@std@@$$V@?$basic_json@Vmap@std@@Vvector@2@V?$basic_string@DU?$char_traits@D@std@@V?$allocator@D@2@@2@_N_J_KNVallocator@2@Uadl_serializer@nlohmann@@@nlohmann@@CAPEAV?$map@V?$basic_string@DU?$char_traits@D@std@@V?$allocator@D@2@@std@@V?$basic_json@Vmap@std@@Vvector@2@V?$basic_string@DU?$char_traits@D@std@@V?$allocator@D@2@@2@_N_J_KNVallocator@2@Uadl_serializer@nlohmann@@@nlohmann@@U?$less@V?$basic_string@DU?$char_traits@D@std@@V?$allocator@D@2@@std@@@2@V?$allocator@U?$pair@$$CBV?$basic_string@DU?$char_traits@D@std@@V?$allocator@D@2@@std@@V?$basic_json@Vmap@std@@Vvector@2@V?$basic_string@DU?$char_traits@D@std@@V?$allocator@D@2@@2@_N_J_KNVallocator@2@Uadl_serializer@nlohmann@@@nlohmann@@@std@@@2@@std@@XZ 000000018001b5c4     bento_sdk:asset_database.obj
 0004:000005d0       $pdata$??$emplace@V?$basic_string@DU?$char_traits@D@std@@V?$allocator@D@2@@std@@V?$basic_json@Vmap@std@@Vvector@2@V?$basic_string@DU?$char_traits@D@std@@V?$allocator@D@2@@2@_N_J_KNVallocator@2@Uadl_serializer@nlohmann@@@nlohmann@@@?$_Tree@V?$_Tmap_traits@V?$basic_string@DU?$char_traits@D@std@@V?$allocator@D@2@@std@@V?$basic_json@Vmap@std@@Vvector@2@V?$basic_string@DU?$char_traits@D@std@@V?$allocator@D@2@@2@_N_J_KNVallocator@2@Uadl_serializer@nlohmann@@@nlohmann@@U?$less@V?$basic_string@DU?$char_traits@D@std@@V?$allocator@D@2@@std@@@2@V?$allocator@U?$pair@$$CBV?$basic_string@DU?$char_traits@D@std@@V?$allocator@D@2@@std@@V?$basic_json@Vmap@std@@Vvector@2@V?$basic_string@DU?$char_traits@D@std@@V?$allocator@D@2@@2@_N_J_KNVallocator@2@Uadl_serializer@nlohmann@@@nlohmann@@@std@@@2@$0A@@std@@@std@@QEAA?AU?$pair@V?$_Tree_iterator@V?$_Tree_val@U?$_Tree_simple_types@U?$pair@$$CBV?$basic_string@DU?$char_traits@D@std@@V?$allocator@D@2@@std@@V?$basic_json@Vmap@std@@Vvector@2@V?$basic_string@DU?$char_traits@D@std@@V?$allocator@D@2@@2@_N_J_KNVallocator@2@Uadl_serializer@nlohmann@@@nlohmann@@@std@@@std@@@std@@@std@@_N@1@$$QEAV?$basic_string@DU?$char_traits@D@std@@V?$allocator@D@2@@1@$$QEAV?$basic_json@Vmap@std@@Vvector@2@V?$basic_string@DU?$char_traits@D@std@@V?$allocator@D@2@@2@_N_J_KNVallocator@2@Uadl_serializer@nlohmann@@@nlohmann@@@Z 000000018001b5d0     bento_sdk:asset_database.obj
 0004:000005dc       $pdata$??$grisu2@N@dtoa_impl@detail@nlohmann@@YAXPEADAEAH1N@Z 000000018001b5dc     bento_sdk:asset_database.obj
 0004:000005e8       $pdata$??$pack_vector_types@UTAsset@bento@@@bento@@YAXAEAV?$Vector@D@0@AEBV?$Vector@UTAsset@bento@@@0@@Z 000000018001b5e8     bento_sdk:asset_database.obj
 0004:000005f4       $pdata$0$??$pack_vector_types@UTAsset@bento@@@bento@@YAXAEAV?$Vector@D@0@AEBV?$Vector@UTAsset@bento@@@0@@Z 000000018001b5f4     bento_sdk:asset_database.obj
 0004:00000600       $pdata$1$??$pack_vector_types@UTAsset@bento@@@bento@@YAXAEAV?$Vector@D@0@AEBV?$Vector@UTAsset@bento@@@0@@Z 000000018001b600     bento_sdk:asset_database.obj
 0004:0000060c       $pdata$2$??$pack_vector_types@UTAsset@bento@@@bento@@YAXAEAV?$Vector@D@0@AEBV?$Vector@UTAsset@bento@@@0@@Z 000000018001b60c     bento_sdk:asset_database.obj
 0004:00000618       $pdata$3$??$pack_vector_types@UTAsset@bento@@@bento@@YAXAEAV?$Vector@D@0@AEBV?$Vector@UTAsset@bento@@@0@@Z 000000018001b618     bento_sdk:asset_database.obj
 0004:00000624       $pdata$??$to_chars@N@detail@nlohmann@@YAPEADPEAD0N@Z 000000018001b624     bento_sdk:asset_database.obj
 0004:00000630       $pdata$??$to_json@V?$basic_json@Vmap@std@@Vvector@2@V?$basic_string@DU?$char_traits@D@std@@V?$allocator@D@2@@2@_N_J_KNVallocator@2@Uadl_serializer@nlohmann@@@nlohmann@@$$BY04D$0A@@detail@nlohmann@@YAXAEAV?$basic_json@Vmap@std@@Vvector@2@V?$basic_string@DU?$char_traits@D@std@@V?$allocator@D@2@@2@_N_J_KNVallocator@2@Uadl_serializer@nlohmann@@@1@AEAY04$$CBD@Z 000000018001b630     bento_sdk:asset_database.obj
 0004:0000063c       $pdata$??$to_json@V?$basic_json@Vmap@std@@Vvector@2@V?$basic_string@DU?$char_traits@D@std@@V?$allocator@D@2@@2@_N_J_KNVallocator@2@Uadl_serializer@nlohmann@@@nlohmann@@@detail@nlohmann@@YAXAEAV?$basic_json@Vmap@std@@Vvector@2@V?$basic_string@DU?$char_traits@D@std@@V?$allocator@D@2@@2@_N_J_KNVallocator@2@Uadl_serializer@nlohmann@@@1@$$QEAV?$basic_string@DU?$char_traits@D@std@@V?$allocator@D@2@@std@@@Z 000000018001b63c     bento_sdk:asset_database.obj
 0004:00000648       $pdata$??$to_json@V?$basic_json@Vmap@std@@Vvector@2@V?$basic_string@DU?$char_traits@D@std@@V?$allocator@D@2@@2@_N_J_KNVallocator@2@Uadl_serializer@nlohmann@@@nlohmann@@PEBD$0A@@detail@nlohmann@@YAXAEAV?$basic_json@Vmap@std@@Vvector@2@V?$basic_string@DU?$char_traits@D@std@@V?$allocator@D@2@@2@_N_J_KNVallocator@2@Uadl_serializer@nlohmann@@@1@AEBQEBD@Z 000000018001b648     bento_sdk:asset_database.obj
 0004:00000654       $pdata$??$unpack_vector_types@UTAsset@bento@@@bento@@YAXAEAPEBDAEAV?$Vector@UTAsset@bento@@@0@@Z 000000018001b654     bento_sdk:asset_database.obj
 0004:00000660       $pdata$0$??$unpack_vector_types@UTAsset@bento@@@bento@@YAXAEAPEBDAEAV?$Vector@UTAsset@bento@@@0@@Z 000000018001b660     bento_sdk:asset_database.obj
 0004:0000066c       $pdata$1$??$unpack_vector_types@UTAsset@bento@@@bento@@YAXAEAPEBDAEAV?$Vector@UTAsset@bento@@@0@@Z 000000018001b66c     bento_sdk:asset_database.obj
 0004:00000678       $pdata$2$??$unpack_vector_types@UTAsset@bento@@@bento@@YAXAEAPEBDAEAV?$Vector@UTAsset@bento@@@0@@Z 000000018001b678     bento_sdk:asset_database.obj
 0004:00000684       $pdata$3$??$unpack_vector_types@UTAsset@bento@@@bento@@YAXAEAPEBDAEAV?$Vector@UTAsset@bento@@@0@@Z 000000018001b684     bento_sdk:asset_database.obj
 0004:00000690       $pdata$??0?$basic_json@Vmap@std@@Vvector@2@V?$basic_string@DU?$char_traits@D@std@@V?$allocator@D@2@@2@_N_J_KNVallocator@2@Uadl_serializer@nlohmann@@@nlohmann@@QEAA@AEBV01@@Z 000000018001b690     bento_sdk:asset_database.obj
 0004:0000069c       $pdata$??0?$basic_json@Vmap@std@@Vvector@2@V?$basic_string@DU?$char_traits@D@std@@V?$allocator@D@2@@2@_N_J_KNVallocator@2@Uadl_serializer@nlohmann@@@nlohmann@@QEAA@V?$initializer_list@V?$json_ref@V?$basic_json@Vmap@std@@Vvector@2@V?$basic_string@DU?$char_traits@D@std@@V?$allocator@D@2@@2@_N_J_KNVallocator@2@Uadl_serializer@nlohmann@@@nlohmann@@@detail@nlohmann@@@std@@_NW4value_t@detail@1@@Z 000000018001b69c     bento_sdk:asset_database.obj
 0004:000006a8       $pdata$??0?$basic_string@DU?$char_traits@D@std@@V?$allocator@D@2@@std@@QEAA@AEBV01@@Z 000000018001b6a8     bento_sdk:asset_database.obj
 0004:000006b4       $pdata$??0?$basic_string@DU?$char_traits@D@std@@V?$allocator@D@2@@std@@QEAA@QEBD@Z 000000018001b6b4     bento_sdk:asset_database.obj
 0004:000006c0       $pdata$??0?$basic_string@DU?$char_traits@D@std@@V?$allocator@D@2@@std@@QEAA@_KD@Z 000000018001b6c0     bento_sdk:asset_database.obj
 0004:000006cc       $pdata$??0json_value@?$basic_json@Vmap@std@@Vvector@2@V?$basic_string@DU?$char_traits@D@std@@V?$allocator@D@2@@2@_N_J_KNVallocator@2@Uadl_serializer@nlohmann@@@nlohmann@@QEAA@W4value_t@detail@2@@Z 000000018001b6cc     bento_sdk:asset_database.obj
 0004:000006d8       $pdata$??1?$Vector@UTAsset@bento@@@bento@@QEAA@XZ 000000018001b6d8     bento_sdk:asset_database.obj
 0004:000006e4       $pdata$??1?$basic_stringbuf@DU?$char_traits@D@std@@V?$allocator@D@2@@std@@UEAA@XZ 000000018001b6e4     bento_sdk:asset_database.obj
 0004:000006f0       $pdata$??1?$basic_stringstream@DU?$char_traits@D@std@@V?$allocator@D@2@@std@@UEAA@XZ 000000018001b6f0     bento_sdk:asset_database.obj
 0004:000006fc       $pdata$??1?$output_adapter@DV?$basic_string@DU?$char_traits@D@std@@V?$allocator@D@2@@std@@@detail@nlohmann@@QEAA@XZ 000000018001b6fc     bento_sdk:asset_database.obj
 0004:00000708       $pdata$0$??1?$output_adapter@DV?$basic_string@DU?$char_traits@D@std@@V?$allocator@D@2@@std@@@detail@nlohmann@@QEAA@XZ 000000018001b708     bento_sdk:asset_database.obj
 0004:00000714       $pdata$1$??1?$output_adapter@DV?$basic_string@DU?$char_traits@D@std@@V?$allocator@D@2@@std@@@detail@nlohmann@@QEAA@XZ 000000018001b714     bento_sdk:asset_database.obj
 0004:00000720       $pdata$??1?$serializer@V?$basic_json@Vmap@std@@Vvector@2@V?$basic_string@DU?$char_traits@D@std@@V?$allocator@D@2@@2@_N_J_KNVallocator@2@Uadl_serializer@nlohmann@@@nlohmann@@@detail@nlohmann@@QEAA@XZ 000000018001b720     bento_sdk:asset_database.obj
 0004:0000072c       $pdata$0$??1?$serializer@V?$basic_json@Vmap@std@@Vvector@2@V?$basic_string@DU?$char_traits@D@std@@V?$allocator@D@2@@2@_N_J_KNVallocator@2@Uadl_serializer@nlohmann@@@nlohmann@@@detail@nlohmann@@QEAA@XZ 000000018001b72c     bento_sdk:asset_database.obj
 0004:00000738       $pdata$1$??1?$serializer@V?$basic_json@Vmap@std@@Vvector@2@V?$basic_string@DU?$char_traits@D@std@@V?$allocator@D@2@@2@_N_J_KNVallocator@2@Uadl_serializer@nlohmann@@@nlohmann@@@detail@nlohmann@@QEAA@XZ 000000018001b738     bento_sdk:asset_database.obj
 0004:00000744       $pdata$??1?$shared_ptr@U?$output_adapter_protocol@D@detail@nlohmann@@@std@@QEAA@XZ 000000018001b744     bento_sdk:asset_database.obj
 0004:00000750       $pdata$0$??1?$shared_ptr@U?$output_adapter_protocol@D@detail@nlohmann@@@std@@QEAA@XZ 000000018001b750     bento_sdk:asset_database.obj
 0004:0000075c       $pdata$1$??1?$shared_ptr@U?$output_adapter_protocol@D@detail@nlohmann@@@std@@QEAA@XZ 000000018001b75c     bento_sdk:asset_database.obj
 0004:00000768       $pdata$??1TAssetDatabase@bento@@QEAA@XZ 000000018001b768     bento_sdk:asset_database.obj
 0004:00000774       $pdata$??4?$Vector@D@bento@@QEAAXAEBV01@@Z 000000018001b774     bento_sdk:asset_database.obj
 0004:00000780       $pdata$??A?$basic_json@Vmap@std@@Vvector@2@V?$basic_string@DU?$char_traits@D@std@@V?$allocator@D@2@@2@_N_J_KNVallocator@2@Uadl_serializer@nlohmann@@@nlohmann@@QEAAAEAV01@AEBV?$basic_string@DU?$char_traits@D@std@@V?$allocator@D@2@@std@@@Z 000000018001b780     bento_sdk:asset_database.obj
 0004:0000078c       $pdata$??_D?$basic_stringstream@DU?$char_traits@D@std@@V?$allocator@D@2@@std@@QEAAXXZ 000000018001b78c     bento_sdk:asset_database.obj
 0004:00000798       $pdata$??_G?$_Ref_count_obj@V?$output_string_adapter@DV?$basic_string@DU?$char_traits@D@std@@V?$allocator@D@2@@std@@@detail@nlohmann@@@std@@UEAAPEAXI@Z 000000018001b798     bento_sdk:asset_database.obj
 0004:000007a4       $pdata$??_G?$basic_stringbuf@DU?$char_traits@D@std@@V?$allocator@D@2@@std@@UEAAPEAXI@Z 000000018001b7a4     bento_sdk:asset_database.obj
 0004:000007b0       $pdata$??_G?$basic_stringstream@DU?$char_traits@D@std@@V?$allocator@D@2@@std@@UEAAPEAXI@Z 000000018001b7b0     bento_sdk:asset_database.obj
 0004:000007bc       $pdata$??_G?$output_adapter_protocol@D@detail@nlohmann@@UEAAPEAXI@Z 000000018001b7bc     bento_sdk:asset_database.obj
 0004:000007c8       $pdata$??_G?$output_string_adapter@DV?$basic_string@DU?$char_traits@D@std@@V?$allocator@D@2@@std@@@detail@nlohmann@@UEAAPEAXI@Z 000000018001b7c8     bento_sdk:asset_database.obj
 0004:000007d4       $pdata$??_G_Ref_count_base@std@@UEAAPEAXI@Z 000000018001b7d4     bento_sdk:asset_database.obj
 0004:000007e0       $pdata$??_Gexception@detail@nlohmann@@UEAAPEAXI@Z 000000018001b7e0     bento_sdk:asset_database.obj
 0004:000007ec       $pdata$??_Gexception@stdext@@UEAAPEAXI@Z 000000018001b7ec     bento_sdk:asset_database.obj
 0004:000007f8       $pdata$??_Gother_error@detail@nlohmann@@UEAAPEAXI@Z 000000018001b7f8     bento_sdk:asset_database.obj
 0004:00000804       $pdata$??_Gruntime_error@std@@UEAAPEAXI@Z 000000018001b804     bento_sdk:asset_database.obj
 0004:00000810       $pdata$??_Gtype_error@detail@nlohmann@@UEAAPEAXI@Z 000000018001b810     bento_sdk:asset_database.obj
 0004:0000081c       $pdata$?_Become_small@?$basic_string@DU?$char_traits@D@std@@V?$allocator@D@2@@std@@QEAAXXZ 000000018001b81c     bento_sdk:asset_database.obj
 0004:00000828       $pdata$?_Buy@?$vector@V?$basic_json@Vmap@std@@Vvector@2@V?$basic_string@DU?$char_traits@D@std@@V?$allocator@D@2@@2@_N_J_KNVallocator@2@Uadl_serializer@nlohmann@@@nlohmann@@V?$allocator@V?$basic_json@Vmap@std@@Vvector@2@V?$basic_string@DU?$char_traits@D@std@@V?$allocator@D@2@@2@_N_J_KNVallocator@2@Uadl_serializer@nlohmann@@@nlohmann@@@std@@@std@@AEAA_N_K@Z 000000018001b828     bento_sdk:asset_database.obj
 0004:00000834       $pdata$?_Destroy_if_node@?$_Tree@V?$_Tmap_traits@V?$basic_string@DU?$char_traits@D@std@@V?$allocator@D@2@@std@@V?$basic_json@Vmap@std@@Vvector@2@V?$basic_string@DU?$char_traits@D@std@@V?$allocator@D@2@@2@_N_J_KNVallocator@2@Uadl_serializer@nlohmann@@@nlohmann@@U?$less@V?$basic_string@DU?$char_traits@D@std@@V?$allocator@D@2@@std@@@2@V?$allocator@U?$pair@$$CBV?$basic_string@DU?$char_traits@D@std@@V?$allocator@D@2@@std@@V?$basic_json@Vmap@std@@Vvector@2@V?$basic_string@DU?$char_traits@D@std@@V?$allocator@D@2@@2@_N_J_KNVallocator@2@Uadl_serializer@nlohmann@@@nlohmann@@@std@@@2@$0A@@std@@@std@@IEAAXPEAU?$_Tree_node@U?$pair@$$CBV?$basic_string@DU?$char_traits@D@std@@V?$allocator@D@2@@std@@V?$basic_json@Vmap@std@@Vvector@2@V?$basic_string@DU?$char_traits@D@std@@V?$allocator@D@2@@2@_N_J_KNVallocator@2@Uadl_serializer@nlohmann@@@nlohmann@@@std@@PEAX@2@@Z 000000018001b834     bento_sdk:asset_database.obj
 0004:00000840       $pdata$?_Doraise@runtime_error@std@@MEBAXXZ 000000018001b840     bento_sdk:asset_database.obj
 0004:0000084c       $pdata$?_Erase@?$_Tree@V?$_Tmap_traits@V?$basic_string@DU?$char_traits@D@std@@V?$allocator@D@2@@std@@V?$basic_json@Vmap@std@@Vvector@2@V?$basic_string@DU?$char_traits@D@std@@V?$allocator@D@2@@2@_N_J_KNVallocator@2@Uadl_serializer@nlohmann@@@nlohmann@@U?$less@V?$basic_string@DU?$char_traits@D@std@@V?$allocator@D@2@@std@@@2@V?$allocator@U?$pair@$$CBV?$basic_string@DU?$char_traits@D@std@@V?$allocator@D@2@@std@@V?$basic_json@Vmap@std@@Vvector@2@V?$basic_string@DU?$char_traits@D@std@@V?$allocator@D@2@@2@_N_J_KNVallocator@2@Uadl_serializer@nlohmann@@@nlohmann@@@std@@@2@$0A@@std@@@std@@IEAAXPEAU?$_Tree_node@U?$pair@$$CBV?$basic_string@DU?$char_traits@D@std@@V?$allocator@D@2@@std@@V?$basic_json@Vmap@std@@Vvector@2@V?$basic_string@DU?$char_traits@D@std@@V?$allocator@D@2@@2@_N_J_KNVallocator@2@Uadl_serializer@nlohmann@@@nlohmann@@@std@@PEAX@2@@Z 000000018001b84c     bento_sdk:asset_database.obj
 0004:00000858       $pdata$0$?_Erase@?$_Tree@V?$_Tmap_traits@V?$basic_string@DU?$char_traits@D@std@@V?$allocator@D@2@@std@@V?$basic_json@Vmap@std@@Vvector@2@V?$basic_string@DU?$char_traits@D@std@@V?$allocator@D@2@@2@_N_J_KNVallocator@2@Uadl_serializer@nlohmann@@@nlohmann@@U?$less@V?$basic_string@DU?$char_traits@D@std@@V?$allocator@D@2@@std@@@2@V?$allocator@U?$pair@$$CBV?$basic_string@DU?$char_traits@D@std@@V?$allocator@D@2@@std@@V?$basic_json@Vmap@std@@Vvector@2@V?$basic_string@DU?$char_traits@D@std@@V?$allocator@D@2@@2@_N_J_KNVallocator@2@Uadl_serializer@nlohmann@@@nlohmann@@@std@@@2@$0A@@std@@@std@@IEAAXPEAU?$_Tree_node@U?$pair@$$CBV?$basic_string@DU?$char_traits@D@std@@V?$allocator@D@2@@std@@V?$basic_json@Vmap@std@@Vvector@2@V?$basic_string@DU?$char_traits@D@std@@V?$allocator@D@2@@2@_N_J_KNVallocator@2@Uadl_serializer@nlohmann@@@nlohmann@@@std@@PEAX@2@@Z 000000018001b858     bento_sdk:asset_database.obj
 0004:00000864       $pdata$1$?_Erase@?$_Tree@V?$_Tmap_traits@V?$basic_string@DU?$char_traits@D@std@@V?$allocator@D@2@@std@@V?$basic_json@Vmap@std@@Vvector@2@V?$basic_string@DU?$char_traits@D@std@@V?$allocator@D@2@@2@_N_J_KNVallocator@2@Uadl_serializer@nlohmann@@@nlohmann@@U?$less@V?$basic_string@DU?$char_traits@D@std@@V?$allocator@D@2@@std@@@2@V?$allocator@U?$pair@$$CBV?$basic_string@DU?$char_traits@D@std@@V?$allocator@D@2@@std@@V?$basic_json@Vmap@std@@Vvector@2@V?$basic_string@DU?$char_traits@D@std@@V?$allocator@D@2@@2@_N_J_KNVallocator@2@Uadl_serializer@nlohmann@@@nlohmann@@@std@@@2@$0A@@std@@@std@@IEAAXPEAU?$_Tree_node@U?$pair@$$CBV?$basic_string@DU?$char_traits@D@std@@V?$allocator@D@2@@std@@V?$basic_json@Vmap@std@@Vvector@2@V?$basic_string@DU?$char_traits@D@std@@V?$allocator@D@2@@2@_N_J_KNVallocator@2@Uadl_serializer@nlohmann@@@nlohmann@@@std@@PEAX@2@@Z 000000018001b864     bento_sdk:asset_database.obj
 0004:00000870       $pdata$?_Tidy@?$vector@V?$basic_json@Vmap@std@@Vvector@2@V?$basic_string@DU?$char_traits@D@std@@V?$allocator@D@2@@2@_N_J_KNVallocator@2@Uadl_serializer@nlohmann@@@nlohmann@@V?$allocator@V?$basic_json@Vmap@std@@Vvector@2@V?$basic_string@DU?$char_traits@D@std@@V?$allocator@D@2@@2@_N_J_KNVallocator@2@Uadl_serializer@nlohmann@@@nlohmann@@@std@@@std@@AEAAXXZ 000000018001b870     bento_sdk:asset_database.obj
 0004:0000087c       $pdata$0$?_Tidy@?$vector@V?$basic_json@Vmap@std@@Vvector@2@V?$basic_string@DU?$char_traits@D@std@@V?$allocator@D@2@@2@_N_J_KNVallocator@2@Uadl_serializer@nlohmann@@@nlohmann@@V?$allocator@V?$basic_json@Vmap@std@@Vvector@2@V?$basic_string@DU?$char_traits@D@std@@V?$allocator@D@2@@2@_N_J_KNVallocator@2@Uadl_serializer@nlohmann@@@nlohmann@@@std@@@std@@AEAAXXZ 000000018001b87c     bento_sdk:asset_database.obj
 0004:00000888       $pdata$1$?_Tidy@?$vector@V?$basic_json@Vmap@std@@Vvector@2@V?$basic_string@DU?$char_traits@D@std@@V?$allocator@D@2@@2@_N_J_KNVallocator@2@Uadl_serializer@nlohmann@@@nlohmann@@V?$allocator@V?$basic_json@Vmap@std@@Vvector@2@V?$basic_string@DU?$char_traits@D@std@@V?$allocator@D@2@@2@_N_J_KNVallocator@2@Uadl_serializer@nlohmann@@@nlohmann@@@std@@@std@@AEAAXXZ 000000018001b888     bento_sdk:asset_database.obj
 0004:00000894       $pdata$?_Tidy_deallocate@?$basic_string@DU?$char_traits@D@std@@V?$allocator@D@2@@std@@QEAAXXZ 000000018001b894     bento_sdk:asset_database.obj
 0004:000008a0       $pdata$?_Xlen@?$basic_string@DU?$char_traits@D@std@@V?$allocator@D@2@@std@@SAXXZ 000000018001b8a0     bento_sdk:asset_database.obj
 0004:000008ac       $pdata$?_Xlength@?$vector@V?$basic_json@Vmap@std@@Vvector@2@V?$basic_string@DU?$char_traits@D@std@@V?$allocator@D@2@@2@_N_J_KNVallocator@2@Uadl_serializer@nlohmann@@@nlohmann@@V?$allocator@V?$basic_json@Vmap@std@@Vvector@2@V?$basic_string@DU?$char_traits@D@std@@V?$allocator@D@2@@2@_N_J_KNVallocator@2@Uadl_serializer@nlohmann@@@nlohmann@@@std@@@std@@CAXXZ 000000018001b8ac     bento_sdk:asset_database.obj
 0004:000008b8       $pdata$?_Xran@?$_String_val@U?$_Simple_types@D@std@@@std@@SAXXZ 000000018001b8b8     bento_sdk:asset_database.obj
 0004:000008c4       $pdata$?append@?$basic_string@DU?$char_traits@D@std@@V?$allocator@D@2@@std@@QEAAAEAV12@QEBD_K@Z 000000018001b8c4     bento_sdk:asset_database.obj
 0004:000008d0       $pdata$1$?append@?$basic_string@DU?$char_traits@D@std@@V?$allocator@D@2@@std@@QEAAAEAV12@QEBD_K@Z 000000018001b8d0     bento_sdk:asset_database.obj
 0004:000008dc       $pdata$2$?append@?$basic_string@DU?$char_traits@D@std@@V?$allocator@D@2@@std@@QEAAAEAV12@QEBD_K@Z 000000018001b8dc     bento_sdk:asset_database.obj
 0004:000008e8       $pdata$?append@?$basic_string@DU?$char_traits@D@std@@V?$allocator@D@2@@std@@QEAAAEAV12@_KD@Z 000000018001b8e8     bento_sdk:asset_database.obj
 0004:000008f4       $pdata$1$?append@?$basic_string@DU?$char_traits@D@std@@V?$allocator@D@2@@std@@QEAAAEAV12@_KD@Z 000000018001b8f4     bento_sdk:asset_database.obj
 0004:00000900       $pdata$2$?append@?$basic_string@DU?$char_traits@D@std@@V?$allocator@D@2@@std@@QEAAAEAV12@_KD@Z 000000018001b900     bento_sdk:asset_database.obj
 0004:0000090c       $pdata$?assign@?$basic_string@DU?$char_traits@D@std@@V?$allocator@D@2@@std@@QEAAAEAV12@QEBD_K@Z 000000018001b90c     bento_sdk:asset_database.obj
 0004:00000918       $pdata$0$?assign@?$basic_string@DU?$char_traits@D@std@@V?$allocator@D@2@@std@@QEAAAEAV12@QEBD_K@Z 000000018001b918     bento_sdk:asset_database.obj
 0004:00000924       $pdata$1$?assign@?$basic_string@DU?$char_traits@D@std@@V?$allocator@D@2@@std@@QEAAAEAV12@QEBD_K@Z 000000018001b924     bento_sdk:asset_database.obj
 0004:00000930       $pdata$2$?assign@?$basic_string@DU?$char_traits@D@std@@V?$allocator@D@2@@std@@QEAAAEAV12@QEBD_K@Z 000000018001b930     bento_sdk:asset_database.obj
 0004:0000093c       $pdata$3$?assign@?$basic_string@DU?$char_traits@D@std@@V?$allocator@D@2@@std@@QEAAAEAV12@QEBD_K@Z 000000018001b93c     bento_sdk:asset_database.obj
 0004:00000948       $pdata$?clear@?$Vector@UTAsset@bento@@@bento@@QEAAXXZ 000000018001b948     bento_sdk:asset_database.obj
 0004:00000954       $pdata$?compare@?$basic_string@DU?$char_traits@D@std@@V?$allocator@D@2@@std@@QEBAHAEBV12@@Z 000000018001b954     bento_sdk:asset_database.obj
 0004:00000960       $pdata$?create@other_error@detail@nlohmann@@SA?AV123@HAEBV?$basic_string@DU?$char_traits@D@std@@V?$allocator@D@2@@std@@@Z 000000018001b960     bento_sdk:asset_database.obj
 0004:0000096c       $pdata$?create@type_error@detail@nlohmann@@SA?AV123@HAEBV?$basic_string@DU?$char_traits@D@std@@V?$allocator@D@2@@std@@@Z 000000018001b96c     bento_sdk:asset_database.obj
 0004:00000978       $pdata$?destroy@json_value@?$basic_json@Vmap@std@@Vvector@2@V?$basic_string@DU?$char_traits@D@std@@V?$allocator@D@2@@2@_N_J_KNVallocator@2@Uadl_serializer@nlohmann@@@nlohmann@@QEAAXW4value_t@detail@3@@Z 000000018001b978     bento_sdk:asset_database.obj
 0004:00000984       $pdata$?dump@?$basic_json@Vmap@std@@Vvector@2@V?$basic_string@DU?$char_traits@D@std@@V?$allocator@D@2@@2@_N_J_KNVallocator@2@Uadl_serializer@nlohmann@@@nlohmann@@QEBA?AV?$basic_string@DU?$char_traits@D@std@@V?$allocator@D@2@@std@@HD_N@Z 000000018001b984     bento_sdk:asset_database.obj
 0004:00000990       $pdata$?dump@?$serializer@V?$basic_json@Vmap@std@@Vvector@2@V?$basic_string@DU?$char_traits@D@std@@V?$allocator@D@2@@2@_N_J_KNVallocator@2@Uadl_serializer@nlohmann@@@nlohmann@@@detail@nlohmann@@QEAAXAEBV?$basic_json@Vmap@std@@Vvector@2@V?$basic_string@DU?$char_traits@D@std@@V?$allocator@D@2@@2@_N_J_KNVallocator@2@Uadl_serializer@nlohmann@@@3@_N1II@Z 000000018001b990     bento_sdk:asset_database.obj
 0004:0000099c       $pdata$4$?dump@?$serializer@V?$basic_json@Vmap@std@@Vvector@2@V?$basic_string@DU?$char_traits@D@std@@V?$allocator@D@2@@2@_N_J_KNVallocator@2@Uadl_serializer@nlohmann@@@nlohmann@@@detail@nlohmann@@QEAAXAEBV?$basic_json@Vmap@std@@Vvector@2@V?$basic_string@DU?$char_traits@D@std@@V?$allocator@D@2@@2@_N_J_KNVallocator@2@Uadl_serializer@nlohmann@@@3@_N1II@Z 000000018001b99c     bento_sdk:asset_database.obj
 0004:000009a8       $pdata$5$?dump@?$serializer@V?$basic_json@Vmap@std@@Vvector@2@V?$basic_string@DU?$char_traits@D@std@@V?$allocator@D@2@@2@_N_J_KNVallocator@2@Uadl_serializer@nlohmann@@@nlohmann@@@detail@nlohmann@@QEAAXAEBV?$basic_json@Vmap@std@@Vvector@2@V?$basic_string@DU?$char_traits@D@std@@V?$allocator@D@2@@2@_N_J_KNVallocator@2@Uadl_serializer@nlohmann@@@3@_N1II@Z 000000018001b9a8     bento_sdk:asset_database.obj
 0004:000009b4       $pdata$6$?dump@?$serializer@V?$basic_json@Vmap@std@@Vvector@2@V?$basic_string@DU?$char_traits@D@std@@V?$allocator@D@2@@2@_N_J_KNVallocator@2@Uadl_serializer@nlohmann@@@nlohmann@@@detail@nlohmann@@QEAAXAEBV?$basic_json@Vmap@std@@Vvector@2@V?$basic_string@DU?$char_traits@D@std@@V?$allocator@D@2@@2@_N_J_KNVallocator@2@Uadl_serializer@nlohmann@@@3@_N1II@Z 000000018001b9b4     bento_sdk:asset_database.obj
 0004:000009c0       $pdata$7$?dump@?$serializer@V?$basic_json@Vmap@std@@Vvector@2@V?$basic_string@DU?$char_traits@D@std@@V?$allocator@D@2@@2@_N_J_KNVallocator@2@Uadl_serializer@nlohmann@@@nlohmann@@@detail@nlohmann@@QEAAXAEBV?$basic_json@Vmap@std@@Vvector@2@V?$basic_string@DU?$char_traits@D@std@@V?$allocator@D@2@@2@_N_J_KNVallocator@2@Uadl_serializer@nlohmann@@@3@_N1II@Z 000000018001b9c0     bento_sdk:asset_database.obj
 0004:000009cc       $pdata$8$?dump@?$serializer@V?$basic_json@Vmap@std@@Vvector@2@V?$basic_string@DU?$char_traits@D@std@@V?$allocator@D@2@@2@_N_J_KNVallocator@2@Uadl_serializer@nlohmann@@@nlohmann@@@detail@nlohmann@@QEAAXAEBV?$basic_json@Vmap@std@@Vvector@2@V?$basic_string@DU?$char_traits@D@std@@V?$allocator@D@2@@2@_N_J_KNVallocator@2@Uadl_serializer@nlohmann@@@3@_N1II@Z 000000018001b9cc     bento_sdk:asset_database.obj
 0004:000009d8       $pdata$9$?dump@?$serializer@V?$basic_json@Vmap@std@@Vvector@2@V?$basic_string@DU?$char_traits@D@std@@V?$allocator@D@2@@2@_N_J_KNVallocator@2@Uadl_serializer@nlohmann@@@nlohmann@@@detail@nlohmann@@QEAAXAEBV?$basic_json@Vmap@std@@Vvector@2@V?$basic_string@DU?$char_traits@D@std@@V?$allocator@D@2@@2@_N_J_KNVallocator@2@Uadl_serializer@nlohmann@@@3@_N1II@Z 000000018001b9d8     bento_sdk:asset_database.obj
 0004:000009e4       $pdata$?dump_escaped@?$serializer@V?$basic_json@Vmap@std@@Vvector@2@V?$basic_string@DU?$char_traits@D@std@@V?$allocator@D@2@@2@_N_J_KNVallocator@2@Uadl_serializer@nlohmann@@@nlohmann@@@detail@nlohmann@@AEAAXAEBV?$basic_string@DU?$char_traits@D@std@@V?$allocator@D@2@@std@@_N@Z 000000018001b9e4     bento_sdk:asset_database.obj
 0004:000009f0       $pdata$?format_buffer@dtoa_impl@detail@nlohmann@@YAPEADPEADHHHH@Z 000000018001b9f0     bento_sdk:asset_database.obj
 0004:000009fc       $pdata$?free@?$Vector@UTAsset@bento@@@bento@@QEAAXXZ 000000018001b9fc     bento_sdk:asset_database.obj
 0004:00000a08       $pdata$?grisu2@dtoa_impl@detail@nlohmann@@YAXPEADAEAH1Udiyfp@123@22@Z 000000018001ba08     bento_sdk:asset_database.obj
 0004:00000a14       $pdata$?grisu2_digit_gen@dtoa_impl@detail@nlohmann@@YAXPEADAEAH1Udiyfp@123@22@Z 000000018001ba14     bento_sdk:asset_database.obj
 0004:00000a20       $pdata$?insert@?$basic_string@DU?$char_traits@D@std@@V?$allocator@D@2@@std@@QEAAAEAV12@_KQEBD0@Z 000000018001ba20     bento_sdk:asset_database.obj
 0004:00000a2c       $pdata$1$?insert@?$basic_string@DU?$char_traits@D@std@@V?$allocator@D@2@@std@@QEAAAEAV12@_KQEBD0@Z 000000018001ba2c     bento_sdk:asset_database.obj
 0004:00000a38       $pdata$2$?insert@?$basic_string@DU?$char_traits@D@std@@V?$allocator@D@2@@std@@QEAAAEAV12@_KQEBD0@Z 000000018001ba38     bento_sdk:asset_database.obj
 0004:00000a44       $pdata$?insert_asset@TAssetDatabase@bento@@QEAAXPEBD0IAEAV?$Vector@D@2@@Z 000000018001ba44     bento_sdk:asset_database.obj
 0004:00000a50       $pdata$?name@exception@detail@nlohmann@@KA?AV?$basic_string@DU?$char_traits@D@std@@V?$allocator@D@2@@std@@AEBV45@H@Z 000000018001ba50     bento_sdk:asset_database.obj
 0004:00000a5c       $pdata$?overflow@?$basic_stringbuf@DU?$char_traits@D@std@@V?$allocator@D@2@@std@@MEAAHH@Z 000000018001ba5c     bento_sdk:asset_database.obj
 0004:00000a68       $pdata$0$?overflow@?$basic_stringbuf@DU?$char_traits@D@std@@V?$allocator@D@2@@std@@MEAAHH@Z 000000018001ba68     bento_sdk:asset_database.obj
 0004:00000a74       $pdata$5$?overflow@?$basic_stringbuf@DU?$char_traits@D@std@@V?$allocator@D@2@@std@@MEAAHH@Z 000000018001ba74     bento_sdk:asset_database.obj
 0004:00000a80       $pdata$6$?overflow@?$basic_stringbuf@DU?$char_traits@D@std@@V?$allocator@D@2@@std@@MEAAHH@Z 000000018001ba80     bento_sdk:asset_database.obj
 0004:00000a8c       $pdata$2$?overflow@?$basic_stringbuf@DU?$char_traits@D@std@@V?$allocator@D@2@@std@@MEAAHH@Z 000000018001ba8c     bento_sdk:asset_database.obj
 0004:00000a98       $pdata$8$?overflow@?$basic_stringbuf@DU?$char_traits@D@std@@V?$allocator@D@2@@std@@MEAAHH@Z 000000018001ba98     bento_sdk:asset_database.obj
 0004:00000aa4       $pdata$?pack_type@bento@@YAXAEAV?$Vector@D@1@AEBUTAsset@1@@Z 000000018001baa4     bento_sdk:asset_database.obj
 0004:00000ab0       $pdata$?pack_type@bento@@YAXAEAV?$Vector@D@1@AEBVTAssetDatabase@1@@Z 000000018001bab0     bento_sdk:asset_database.obj
 0004:00000abc       $pdata$0$?pack_type@bento@@YAXAEAV?$Vector@D@1@AEBVTAssetDatabase@1@@Z 000000018001babc     bento_sdk:asset_database.obj
 0004:00000ac8       $pdata$1$?pack_type@bento@@YAXAEAV?$Vector@D@1@AEBVTAssetDatabase@1@@Z 000000018001bac8     bento_sdk:asset_database.obj
 0004:00000ad4       $pdata$2$?pack_type@bento@@YAXAEAV?$Vector@D@1@AEBVTAssetDatabase@1@@Z 000000018001bad4     bento_sdk:asset_database.obj
 0004:00000ae0       $pdata$3$?pack_type@bento@@YAXAEAV?$Vector@D@1@AEBVTAssetDatabase@1@@Z 000000018001bae0     bento_sdk:asset_database.obj
 0004:00000aec       $pdata$?push_back@?$basic_string@DU?$char_traits@D@std@@V?$allocator@D@2@@std@@QEAAXD@Z 000000018001baec     bento_sdk:asset_database.obj
 0004:00000af8       $pdata$0$?push_back@?$basic_string@DU?$char_traits@D@std@@V?$allocator@D@2@@std@@QEAAXD@Z 000000018001baf8     bento_sdk:asset_database.obj
 0004:00000b04       $pdata$2$?push_back@?$basic_string@DU?$char_traits@D@std@@V?$allocator@D@2@@std@@QEAAXD@Z 000000018001bb04     bento_sdk:asset_database.obj
 0004:00000b10       $pdata$3$?push_back@?$basic_string@DU?$char_traits@D@std@@V?$allocator@D@2@@std@@QEAAXD@Z 000000018001bb10     bento_sdk:asset_database.obj
 0004:00000b1c       $pdata$5$?push_back@?$basic_string@DU?$char_traits@D@std@@V?$allocator@D@2@@std@@QEAAXD@Z 000000018001bb1c     bento_sdk:asset_database.obj
 0004:00000b28       $pdata$?request_asset@TAssetDatabase@bento@@QEBAPEBUTAsset@2@PEBD@Z 000000018001bb28     bento_sdk:asset_database.obj
 0004:00000b34       $pdata$?reserve@?$Vector@UTAsset@bento@@@bento@@QEAAXI@Z 000000018001bb34     bento_sdk:asset_database.obj
 0004:00000b40       $pdata$?resize@?$Vector@UTAsset@bento@@@bento@@QEAAXI@Z 000000018001bb40     bento_sdk:asset_database.obj
 0004:00000b4c       $pdata$?seekoff@?$basic_stringbuf@DU?$char_traits@D@std@@V?$allocator@D@2@@std@@MEAA?AV?$fpos@U_Mbstatet@@@2@_JHH@Z 000000018001bb4c     bento_sdk:asset_database.obj
 0004:00000b58       $pdata$?seekpos@?$basic_stringbuf@DU?$char_traits@D@std@@V?$allocator@D@2@@std@@MEAA?AV?$fpos@U_Mbstatet@@@2@V32@H@Z 000000018001bb58     bento_sdk:asset_database.obj
 0004:00000b64       $pdata$?str@?$basic_stringstream@DU?$char_traits@D@std@@V?$allocator@D@2@@std@@QEBA?AV?$basic_string@DU?$char_traits@D@std@@V?$allocator@D@2@@2@XZ 000000018001bb64     bento_sdk:asset_database.obj
 0004:00000b70       $pdata$?to_string@bento@@YAXAEAVDynamicString@1@AEBVTAssetDatabase@1@@Z 000000018001bb70     bento_sdk:asset_database.obj
 0004:00000b7c       $pdata$?to_string@std@@YA?AV?$basic_string@DU?$char_traits@D@std@@V?$allocator@D@2@@1@_K@Z 000000018001bb7c     bento_sdk:asset_database.obj
 0004:00000b88       $pdata$?unpack_type@bento@@YAXAEAPEBDAEAUTAsset@1@@Z 000000018001bb88     bento_sdk:asset_database.obj
 0004:00000b94       $pdata$?unpack_type@bento@@YA_NAEAPEBDAEAVTAssetDatabase@1@@Z 000000018001bb94     bento_sdk:asset_database.obj
 0004:00000ba0       $pdata$0$?unpack_type@bento@@YA_NAEAPEBDAEAVTAssetDatabase@1@@Z 000000018001bba0     bento_sdk:asset_database.obj
 0004:00000bac       $pdata$1$?unpack_type@bento@@YA_NAEAPEBDAEAVTAssetDatabase@1@@Z 000000018001bbac     bento_sdk:asset_database.obj
 0004:00000bb8       $pdata$2$?unpack_type@bento@@YA_NAEAPEBDAEAVTAssetDatabase@1@@Z 000000018001bbb8     bento_sdk:asset_database.obj
 0004:00000bc4       $pdata$3$?unpack_type@bento@@YA_NAEAPEBDAEAVTAssetDatabase@1@@Z 000000018001bbc4     bento_sdk:asset_database.obj
 0004:00000bd0       $pdata$snprintf            000000018001bbd0     bento_sdk:asset_database.obj
 0004:00000bdc       $pdata$?add_extension@path@bento@@YA?AVDynamicString@2@PEBD0AEAVIAllocator@2@@Z 000000018001bbdc     bento_sdk:file_system.obj
 0004:00000be8       $pdata$?collect_files_with_extension@file_system@bento@@YAXPEBD0AEAV?$Vector@VDynamicString@bento@@@2@@Z 000000018001bbe8     bento_sdk:file_system.obj
 0004:00000bf4       $pdata$?directory@path@bento@@YA?AVDynamicString@2@PEBDAEAVIAllocator@2@@Z 000000018001bbf4     bento_sdk:file_system.obj
 0004:00000c00       $pdata$?extension@path@bento@@YA?AVDynamicString@2@PEBDAEAVIAllocator@2@@Z 000000018001bc00     bento_sdk:file_system.obj
 0004:00000c0c       $pdata$?filename@path@bento@@YA?AVDynamicString@2@PEBDAEAVIAllocator@2@@Z 000000018001bc0c     bento_sdk:file_system.obj
 0004:00000c18       $pdata$?internal_join@path@bento@@YA?AVDynamicString@2@PEBD0DAEAVIAllocator@2@@Z 000000018001bc18     bento_sdk:file_system.obj
 0004:00000c24       $pdata$?join@path@bento@@YA?AVDynamicString@2@PEBD0AEAVIAllocator@2@@Z 000000018001bc24     bento_sdk:file_system.obj
 0004:00000c30       $pdata$?path_is_file@file_system@bento@@YA_NPEBD@Z 000000018001bc30     bento_sdk:file_system.obj
 0004:00000c3c       $pdata$?push_back@?$Vector@D@bento@@QEAAXAEBD@Z 000000018001bc3c     bento_sdk:file_system.obj
 0004:00000c48       $pdata$?push_back@?$Vector@VDynamicString@bento@@@bento@@QEAAXAEBVDynamicString@2@@Z 000000018001bc48     bento_sdk:file_system.obj
 0004:00000c54       $pdata$?read_file@bento@@YA_NPEBDAEAV?$Vector@D@1@W4FileType@1@@Z 000000018001bc54     bento_sdk:file_system.obj
 0004:00000c60       $pdata$0$?read_file@bento@@YA_NPEBDAEAV?$Vector@D@1@W4FileType@1@@Z 000000018001bc60     bento_sdk:file_system.obj
 0004:00000c6c       $pdata$2$?read_file@bento@@YA_NPEBDAEAV?$Vector@D@1@W4FileType@1@@Z 000000018001bc6c     bento_sdk:file_system.obj
 0004:00000c78       $pdata$3$?read_file@bento@@YA_NPEBDAEAV?$Vector@D@1@W4FileType@1@@Z 000000018001bc78     bento_sdk:file_system.obj
 0004:00000c84       $pdata$4$?read_file@bento@@YA_NPEBDAEAV?$Vector@D@1@W4FileType@1@@Z 000000018001bc84     bento_sdk:file_system.obj
 0004:00000c90       $pdata$?reserve@?$Vector@VDynamicString@bento@@@bento@@QEAAXI@Z 000000018001bc90     bento_sdk:file_system.obj
 0004:00000c9c       $pdata$?strip_extension@path@bento@@YA?AVDynamicString@2@PEBDAEAVIAllocator@2@@Z 000000018001bc9c     bento_sdk:file_system.obj
 0004:00000ca8       $pdata$?write_file@bento@@YA_NPEBD0IW4FileType@1@@Z 000000018001bca8     bento_sdk:file_system.obj
 0004:00000cb4       $pdata$2$?write_file@bento@@YA_NPEBD0IW4FileType@1@@Z 000000018001bcb4     bento_sdk:file_system.obj
 0004:00000cc0       $pdata$4$?write_file@bento@@YA_NPEBD0IW4FileType@1@@Z 000000018001bcc0     bento_sdk:file_system.obj
 0004:00000ccc       $pdata$5$?write_file@bento@@YA_NPEBD0IW4FileType@1@@Z 000000018001bccc     bento_sdk:file_system.obj
 0004:00000cd8       $pdata$_wclosedir          000000018001bcd8     bento_sdk:file_system.obj
 0004:00000ce4       $pdata$dirent_first        000000018001bce4     bento_sdk:file_system.obj
 0004:00000cf0       $pdata$opendir             000000018001bcf0     bento_sdk:file_system.obj
 0004:00000cfc       $pdata$0$opendir           000000018001bcfc     bento_sdk:file_system.obj
 0004:00000d08       $pdata$1$opendir           000000018001bd08     bento_sdk:file_system.obj
 0004:00000d14       $pdata$2$opendir           000000018001bd14     bento_sdk:file_system.obj
 0004:00000d20       $pdata$3$opendir           000000018001bd20     bento_sdk:file_system.obj
 0004:00000d2c       $pdata$4$opendir           000000018001bd2c     bento_sdk:file_system.obj
 0004:00000d38       $pdata$5$opendir           000000018001bd38     bento_sdk:file_system.obj
 0004:00000d44       $pdata$?murmur_hash_64@bento@@YA_KPEBXII@Z 000000018001bd44     bento_sdk:hash.obj
 0004:00000d50       $pdata$?pack_buffer@bento@@YAXAEAV?$Vector@D@1@IPEBD@Z 000000018001bd50     bento_sdk:stream.obj
 0004:00000d5c       $pdata$1$?pack_buffer@bento@@YAXAEAV?$Vector@D@1@IPEBD@Z 000000018001bd5c     bento_sdk:stream.obj
 0004:00000d68       $pdata$2$?pack_buffer@bento@@YAXAEAV?$Vector@D@1@IPEBD@Z 000000018001bd68     bento_sdk:stream.obj
 0004:00000d74       $pdata$3$?pack_buffer@bento@@YAXAEAV?$Vector@D@1@IPEBD@Z 000000018001bd74     bento_sdk:stream.obj
 0004:00000d80       $pdata$4$?pack_buffer@bento@@YAXAEAV?$Vector@D@1@IPEBD@Z 000000018001bd80     bento_sdk:stream.obj
 0004:00000d8c       $pdata$?unpack_buffer@bento@@YAXAEAPEBDIPEAD@Z 000000018001bd8c     bento_sdk:stream.obj
 0004:00000d98       $pdata$0$?unpack_buffer@bento@@YAXAEAPEBDIPEAD@Z 000000018001bd98     bento_sdk:stream.obj
 0004:00000da4       $pdata$1$?unpack_buffer@bento@@YAXAEAPEBDIPEAD@Z 000000018001bda4     bento_sdk:stream.obj
 0004:00000db0       $pdata$??0DiskSerializer@bento@@QEAA@AEAVIAllocator@1@PEBD@Z 000000018001bdb0     bento_sdk:disk_serializer.obj
 0004:00000dbc       $pdata$?internal_read_buffer@DiskSerializer@bento@@AEAA_NAEAV?$Vector@D@2@PEBD1@Z 000000018001bdbc     bento_sdk:disk_serializer.obj
 0004:00000dc8       $pdata$?internal_read_string@DiskSerializer@bento@@AEAA_NAEAVDynamicString@2@PEBD1@Z 000000018001bdc8     bento_sdk:disk_serializer.obj
 0004:00000dd4       $pdata$?internal_write_buffer@DiskSerializer@bento@@AEAA_NAEBV?$Vector@D@2@PEBD1@Z 000000018001bdd4     bento_sdk:disk_serializer.obj
 0004:00000de0       $pdata$?internal_write_string@DiskSerializer@bento@@AEAA_NAEBVDynamicString@2@PEBD1@Z 000000018001bde0     bento_sdk:disk_serializer.obj
 0004:00000dec       $pdata$?__handle_fail@bento@@YAXPEBD0H@Z 000000018001bdec     bento_sdk:security.obj
 0004:00000df8       $pdata$??$?6U?$char_traits@D@std@@@std@@YAAEAV?$basic_ostream@DU?$char_traits@D@std@@@0@AEAV10@PEBD@Z 000000018001bdf8     bento_sdk:matrix4.obj
 0004:00000e04       $pdata$??1_Sentry_base@?$basic_ostream@DU?$char_traits@D@std@@@std@@QEAA@XZ 000000018001be04     bento_sdk:matrix4.obj
 0004:00000e10       $pdata$??1sentry@?$basic_ostream@DU?$char_traits@D@std@@@std@@QEAA@XZ 000000018001be10     bento_sdk:matrix4.obj
 0004:00000e1c       $pdata$??6bento@@YAAEAV?$basic_ostream@DU?$char_traits@D@std@@@std@@AEAV12@AEBUMatrix4@0@@Z 000000018001be1c     bento_sdk:matrix4.obj
 0004:00000e28       $pdata$??Dbento@@YA?AUMatrix4@0@AEBU10@0@Z 000000018001be28     bento_sdk:matrix4.obj
 0004:00000e34       $pdata$??Dbento@@YA?AUVector3@0@AEBUMatrix4@0@AEBU10@@Z 000000018001be34     bento_sdk:matrix4.obj
 0004:00000e40       $pdata$??Dbento@@YA?AUVector4@0@AEBUMatrix4@0@AEBU10@@Z 000000018001be40     bento_sdk:matrix4.obj
 0004:00000e4c       $pdata$?AsPerspective@bento@@YAXAEAUMatrix4@1@MMMM@Z 000000018001be4c     bento_sdk:matrix4.obj
 0004:00000e58       $pdata$?Det@bento@@YAMAEBUMatrix4@1@@Z 000000018001be58     bento_sdk:matrix4.obj
 0004:00000e64       $pdata$?GetTranslate@bento@@YA?AUVector3@1@AEBUMatrix4@1@@Z 000000018001be64     bento_sdk:matrix4.obj
 0004:00000e70       $pdata$?Inverse3x3@bento@@YA?AUMatrix3@1@AEBUMatrix4@1@@Z 000000018001be70     bento_sdk:matrix4.obj
 0004:00000e7c       $pdata$?Inverse@bento@@YA?AUMatrix4@1@AEBU21@@Z 000000018001be7c     bento_sdk:matrix4.obj
 0004:00000e88       $pdata$?Rotate@bento@@YA?AUMatrix4@1@MAEBUVector3@1@@Z 000000018001be88     bento_sdk:matrix4.obj
 0004:00000e94       $pdata$?RotateXAxis@bento@@YA?AUMatrix4@1@M@Z 000000018001be94     bento_sdk:matrix4.obj
 0004:00000ea0       $pdata$?RotateYAxis@bento@@YA?AUMatrix4@1@M@Z 000000018001bea0     bento_sdk:matrix4.obj
 0004:00000eac       $pdata$?RotateZAxis@bento@@YA?AUMatrix4@1@M@Z 000000018001beac     bento_sdk:matrix4.obj
 0004:00000eb8       $pdata$?XAxis@bento@@YA?AUVector3@1@AEBUMatrix4@1@@Z 000000018001beb8     bento_sdk:matrix4.obj
 0004:00000ec4       $pdata$?YAxis@bento@@YA?AUVector3@1@AEBUMatrix4@1@@Z 000000018001bec4     bento_sdk:matrix4.obj
 0004:00000ed0       $pdata$?ZAxis@bento@@YA?AUVector3@1@AEBUMatrix4@1@@Z 000000018001bed0     bento_sdk:matrix4.obj
 0004:00000edc       $pdata$??_GIAllocator@bento@@UEAAPEAXI@Z 000000018001bedc     bento_sdk:allocator.obj
 0004:00000ee8       $pdata$??_GILogger@bento@@UEAAPEAXI@Z 000000018001bee8     bento_sdk:system_logger.obj
 0004:00000ef4       $pdata$??_GSystemLogger@bento@@UEAAPEAXI@Z 000000018001bef4     bento_sdk:system_logger.obj
 0004:00000f00       $pdata$?log@SystemLogger@bento@@UEAAXW4Type@LogLevel@2@PEBD1@Z 000000018001bf00     bento_sdk:system_logger.obj
 0004:00000f0c       $pdata$?configure_argv@__scrt_narrow_argv_policy@@SAHXZ 000000018001bf0c     MSVCRT:utility.obj
 0004:00000f18       $pdata$__scrt_acquire_startup_lock 000000018001bf18     MSVCRT:utility.obj
 0004:00000f24       $pdata$__scrt_dllmain_after_initialize_c 000000018001bf24     MSVCRT:utility.obj
 0004:00000f30       $pdata$__scrt_dllmain_before_initialize_c 000000018001bf30     MSVCRT:utility.obj
 0004:00000f3c       $pdata$__scrt_dllmain_crt_thread_attach 000000018001bf3c     MSVCRT:utility.obj
 0004:00000f48       $pdata$__scrt_dllmain_crt_thread_detach 000000018001bf48     MSVCRT:utility.obj
 0004:00000f54       $pdata$__scrt_dllmain_exception_filter 000000018001bf54     MSVCRT:utility.obj
 0004:00000f60       $pdata$__scrt_dllmain_uninitialize_c 000000018001bf60     MSVCRT:utility.obj
 0004:00000f6c       $pdata$__scrt_dllmain_uninitialize_critical 000000018001bf6c     MSVCRT:utility.obj
 0004:00000f78       $pdata$__scrt_initialize_crt 000000018001bf78     MSVCRT:utility.obj
 0004:00000f84       $pdata$__scrt_initialize_onexit_tables 000000018001bf84     MSVCRT:utility.obj
 0004:00000f90       $pdata$__scrt_is_nonwritable_in_current_image 000000018001bf90     MSVCRT:utility.obj
 0004:00000f9c       $pdata$__scrt_release_startup_lock 000000018001bf9c     MSVCRT:utility.obj
 0004:00000fa8       $pdata$__scrt_uninitialize_crt 000000018001bfa8     MSVCRT:utility.obj
 0004:00000fb4       $pdata$_onexit             000000018001bfb4     MSVCRT:utility.obj
 0004:00000fc0       $pdata$atexit              000000018001bfc0     MSVCRT:utility.obj
 0004:00000fcc       $pdata$__GSHandlerCheck    000000018001bfcc     MSVCRT:_gshandler_.obj
 0004:00000fd8       $pdata$__GSHandlerCheckCommon 000000018001bfd8     MSVCRT:_gshandler_.obj
 0004:00000ff0       $pdata$?dllmain_crt_dispatch@@YAHQEAUHINSTANCE__@@KQEAX@Z 000000018001bff0     MSVCRT:dll_dllmain.obj
 0004:00000ffc       $pdata$?dllmain_crt_process_attach@@YAHQEAUHINSTANCE__@@QEAX@Z 000000018001bffc     MSVCRT:dll_dllmain.obj
 0004:00001008       $pdata$?dllmain_crt_process_detach@@YAH_N@Z 000000018001c008     MSVCRT:dll_dllmain.obj
 0004:00001014       $pdata$?dllmain_dispatch@@YAHQEAUHINSTANCE__@@KQEAX@Z 000000018001c014     MSVCRT:dll_dllmain.obj
 0004:00001020       $pdata$?dllmain_raw@@YAHQEAUHINSTANCE__@@KQEAX@Z 000000018001c020     MSVCRT:dll_dllmain.obj
 0004:0000102c       $pdata$_DllMainCRTStartup  000000018001c02c     MSVCRT:dll_dllmain.obj
 0004:00001038       $pdata$??2@YAPEAX_K@Z      000000018001c038     MSVCRT:new_scalar.obj
 0004:00001044       $pdata$??_M@YAXPEAX_K1P6AX0@Z@Z 000000018001c044     MSVCRT:ehvecdtr.obj
 0004:00001050       $pdata$?ArrayUnwindFilter@@YAHPEAU_EXCEPTION_POINTERS@@@Z 000000018001c050     MSVCRT:ehvecdtr.obj
 0004:0000105c       $pdata$?__ArrayUnwind@@YAXPEAX_K1P6AX0@Z@Z 000000018001c05c     MSVCRT:ehvecdtr.obj
 0004:00001068       $pdata$__GSHandlerCheck_EH 000000018001c068     MSVCRT:gshandlereh.obj
 0004:00001074       $pdata$??_Gtype_info@@UEAAPEAXI@Z 000000018001c074     MSVCRT:std_type_info_static.obj
 0004:00001080       $pdata$__isa_available_init 000000018001c080     MSVCRT:_cpu_disp_.obj
 0004:0000108c       $pdata$__scrt_fastfail     000000018001c08c     MSVCRT:utility_desktop.obj
 0004:00001098       $pdata$__scrt_get_show_window_mode 000000018001c098     MSVCRT:utility_desktop.obj
 0004:000010a4       $pdata$__scrt_is_managed_app 000000018001c0a4     MSVCRT:utility_desktop.obj
 0004:000010b0       $pdata$__scrt_unhandled_exception_filter 000000018001c0b0     MSVCRT:utility_desktop.obj
 0004:000010bc       $pdata$__raise_securityfailure 000000018001c0bc     MSVCRT:gs_report.obj
 0004:000010c8       $pdata$__report_gsfailure  000000018001c0c8     MSVCRT:gs_report.obj
 0004:000010d4       $pdata$__report_rangecheckfailure 000000018001c0d4     MSVCRT:gs_report.obj
 0004:000010e0       $pdata$__report_securityfailure 000000018001c0e0     MSVCRT:gs_report.obj
 0004:000010ec       $pdata$__report_securityfailureEx 000000018001c0ec     MSVCRT:gs_report.obj
 0004:000010f8       $pdata$capture_current_context 000000018001c0f8     MSVCRT:gs_report.obj
 0004:00001104       $pdata$capture_previous_context 000000018001c104     MSVCRT:gs_report.obj
 0004:00001110       $pdata$__get_entropy       000000018001c110     MSVCRT:gs_support.obj
 0004:0000111c       $pdata$__security_init_cookie 000000018001c11c     MSVCRT:gs_support.obj
 0004:00001128       $pdata$DllMain             000000018001c128     MSVCRT:dll_dllmain_stub.obj
 0004:00001134       $pdata$__scrt_initialize_default_local_stdio_options 000000018001c134     MSVCRT:default_local_stdio_options.obj
 0004:00001140       $pdata$_RTC_Initialize     000000018001c140     MSVCRT:_initsect_.obj
 0004:0000114c       $pdata$_RTC_Terminate      000000018001c14c     MSVCRT:_initsect_.obj
 0004:00001158       $pdata$??0bad_alloc@std@@QEAA@AEBV01@@Z 000000018001c158     MSVCRT:throw_bad_alloc.obj
 0004:00001164       $pdata$??0bad_array_new_length@std@@QEAA@AEBV01@@Z 000000018001c164     MSVCRT:throw_bad_alloc.obj
 0004:00001170       $pdata$??0exception@std@@QEAA@AEBV01@@Z 000000018001c170     MSVCRT:throw_bad_alloc.obj
 0004:0000117c       $pdata$??_Gbad_alloc@std@@UEAAPEAXI@Z 000000018001c17c     MSVCRT:throw_bad_alloc.obj
 0004:00001188       $pdata$??_Gbad_array_new_length@std@@UEAAPEAXI@Z 000000018001c188     MSVCRT:throw_bad_alloc.obj
 0004:00001194       $pdata$??_Gexception@std@@UEAAPEAXI@Z 000000018001c194     MSVCRT:throw_bad_alloc.obj
 0004:000011a0       $pdata$?__scrt_throw_std_bad_alloc@@YAXXZ 000000018001c1a0     MSVCRT:throw_bad_alloc.obj
 0004:000011ac       $pdata$?__scrt_throw_std_bad_array_new_length@@YAXXZ 000000018001c1ac     MSVCRT:throw_bad_alloc.obj
 0004:00001200       $pdata$?dtor$0@?0???$?HDU?$char_traits@D@std@@V?$allocator@D@1@@std@@YA?AV?$basic_string@DU?$char_traits@D@std@@V?$allocator@D@2@@0@QEBDAEBV10@@Z@4HA 000000018001c200     bento_sdk:asset_database.obj
 0004:0000120c       $pdata$?dtor$30@?0???$_Copy_nodes@U_Copy_tag@?$_Tree@V?$_Tmap_traits@V?$basic_string@DU?$char_traits@D@std@@V?$allocator@D@2@@std@@V?$basic_json@Vmap@std@@Vvector@2@V?$basic_string@DU?$char_traits@D@std@@V?$allocator@D@2@@2@_N_J_KNVallocator@2@Uadl_serializer@nlohmann@@@nlohmann@@U?$less@V?$basic_string@DU?$char_traits@D@std@@V?$allocator@D@2@@std@@@2@V?$allocator@U?$pair@$$CBV?$basic_string@DU?$char_traits@D@std@@V?$allocator@D@2@@std@@V?$basic_json@Vmap@std@@Vvector@2@V?$basic_string@DU?$char_traits@D@std@@V?$allocator@D@2@@2@_N_J_KNVallocator@2@Uadl_serializer@nlohmann@@@nlohmann@@@std@@@2@$0A@@std@@@std@@@?$_Tree@V?$_Tmap_traits@V?$basic_string@DU?$char_traits@D@std@@V?$allocator@D@2@@std@@V?$basic_json@Vmap@std@@Vvector@2@V?$basic_string@DU?$char_traits@D@std@@V?$allocator@D@2@@2@_N_J_KNVallocator@2@Uadl_serializer@nlohmann@@@nlohmann@@U?$less@V?$basic_string@DU?$char_traits@D@std@@V?$allocator@D@2@@std@@@2@V?$allocator@U?$pair@$$CBV?$basic_string@DU?$char_traits@D@std@@V?$allocator@D@2@@std@@V?$basic_json@Vmap@std@@Vvector@2@V?$basic_string@DU?$char_traits@D@std@@V?$allocator@D@2@@2@_N_J_KNVallocator@2@Uadl_serializer@nlohmann@@@nlohmann@@@std@@@2@$0A@@std@@@std@@IEAAPEAU?$_Tree_node@U?$pair@$$CBV?$basic_string@DU?$char_traits@D@std@@V?$allocator@D@2@@std@@V?$basic_json@Vmap@std@@Vvector@2@V?$basic_string@DU?$char_traits@D@std@@V?$allocator@D@2@@2@_N_J_KNVallocator@2@Uadl_serializer@nlohmann@@@nlohmann@@@std@@PEAX@1@PEAU21@0U_Copy_tag@01@@Z@4HA 000000018001c20c     bento_sdk:asset_database.obj
 0004:00001218       $pdata$?dtor$9@?0???$create@V?$map@V?$basic_string@DU?$char_traits@D@std@@V?$allocator@D@2@@std@@V?$basic_json@Vmap@std@@Vvector@2@V?$basic_string@DU?$char_traits@D@std@@V?$allocator@D@2@@2@_N_J_KNVallocator@2@Uadl_serializer@nlohmann@@@nlohmann@@U?$less@V?$basic_string@DU?$char_traits@D@std@@V?$allocator@D@2@@std@@@2@V?$allocator@U?$pair@$$CBV?$basic_string@DU?$char_traits@D@std@@V?$allocator@D@2@@std@@V?$basic_json@Vmap@std@@Vvector@2@V?$basic_string@DU?$char_traits@D@std@@V?$allocator@D@2@@2@_N_J_KNVallocator@2@Uadl_serializer@nlohmann@@@nlohmann@@@std@@@2@@std@@$$V@?$basic_json@Vmap@std@@Vvector@2@V?$basic_string@DU?$char_traits@D@std@@V?$allocator@D@2@@2@_N_J_KNVallocator@2@Uadl_serializer@nlohmann@@@nlohmann@@CAPEAV?$map@V?$basic_string@DU?$char_traits@D@std@@V?$allocator@D@2@@std@@V?$basic_json@Vmap@std@@Vvector@2@V?$basic_string@DU?$char_traits@D@std@@V?$allocator@D@2@@2@_N_J_KNVallocator@2@Uadl_serializer@nlohmann@@@nlohmann@@U?$less@V?$basic_string@DU?$char_traits@D@std@@V?$allocator@D@2@@std@@@2@V?$allocator@U?$pair@$$CBV?$basic_string@DU?$char_traits@D@std@@V?$allocator@D@2@@std@@V?$basic_json@Vmap@std@@Vvector@2@V?$basic_string@DU?$char_traits@D@std@@V?$allocator@D@2@@2@_N_J_KNVallocator@2@Uadl_serializer@nlohmann@@@nlohmann@@@std@@@2@@std@@XZ@4HA 000000018001c218     bento_sdk:asset_database.obj
 0004:00001224       $pdata$?dtor$11@?0???0?$basic_json@Vmap@std@@Vvector@2@V?$basic_string@DU?$char_traits@D@std@@V?$allocator@D@2@@2@_N_J_KNVallocator@2@Uadl_serializer@nlohmann@@@nlohmann@@QEAA@AEBV01@@Z@4HA 000000018001c224     bento_sdk:asset_database.obj
 0004:00001230       $pdata$?dtor$231@?0???0?$basic_json@Vmap@std@@Vvector@2@V?$basic_string@DU?$char_traits@D@std@@V?$allocator@D@2@@2@_N_J_KNVallocator@2@Uadl_serializer@nlohmann@@@nlohmann@@QEAA@AEBV01@@Z@4HA 000000018001c230     bento_sdk:asset_database.obj
 0004:0000123c       $pdata$?dtor$256@?0???0?$basic_json@Vmap@std@@Vvector@2@V?$basic_string@DU?$char_traits@D@std@@V?$allocator@D@2@@2@_N_J_KNVallocator@2@Uadl_serializer@nlohmann@@@nlohmann@@QEAA@AEBV01@@Z@4HA 000000018001c23c     bento_sdk:asset_database.obj
 0004:00001248       $pdata$?dtor$289@?0???0?$basic_json@Vmap@std@@Vvector@2@V?$basic_string@DU?$char_traits@D@std@@V?$allocator@D@2@@2@_N_J_KNVallocator@2@Uadl_serializer@nlohmann@@@nlohmann@@QEAA@AEBV01@@Z@4HA 000000018001c248     bento_sdk:asset_database.obj
 0004:00001254       $pdata$?dtor$99@?0???0?$basic_json@Vmap@std@@Vvector@2@V?$basic_string@DU?$char_traits@D@std@@V?$allocator@D@2@@2@_N_J_KNVallocator@2@Uadl_serializer@nlohmann@@@nlohmann@@QEAA@V?$initializer_list@V?$json_ref@V?$basic_json@Vmap@std@@Vvector@2@V?$basic_string@DU?$char_traits@D@std@@V?$allocator@D@2@@2@_N_J_KNVallocator@2@Uadl_serializer@nlohmann@@@nlohmann@@@detail@nlohmann@@@std@@_NW4value_t@detail@1@@Z@4HA 000000018001c254     bento_sdk:asset_database.obj
 0004:00001260       $pdata$?dtor$143@?0???0?$basic_json@Vmap@std@@Vvector@2@V?$basic_string@DU?$char_traits@D@std@@V?$allocator@D@2@@2@_N_J_KNVallocator@2@Uadl_serializer@nlohmann@@@nlohmann@@QEAA@V?$initializer_list@V?$json_ref@V?$basic_json@Vmap@std@@Vvector@2@V?$basic_string@DU?$char_traits@D@std@@V?$allocator@D@2@@2@_N_J_KNVallocator@2@Uadl_serializer@nlohmann@@@nlohmann@@@detail@nlohmann@@@std@@_NW4value_t@detail@1@@Z@4HA 000000018001c260     bento_sdk:asset_database.obj
 0004:0000126c       $pdata$?dtor$37@?0???0json_value@?$basic_json@Vmap@std@@Vvector@2@V?$basic_string@DU?$char_traits@D@std@@V?$allocator@D@2@@2@_N_J_KNVallocator@2@Uadl_serializer@nlohmann@@@nlohmann@@QEAA@W4value_t@detail@2@@Z@4HA 000000018001c26c     bento_sdk:asset_database.obj
 0004:00001278       $pdata$?dtor$73@?0???A?$basic_json@Vmap@std@@Vvector@2@V?$basic_string@DU?$char_traits@D@std@@V?$allocator@D@2@@2@_N_J_KNVallocator@2@Uadl_serializer@nlohmann@@@nlohmann@@QEAAAEAV01@AEBV?$basic_string@DU?$char_traits@D@std@@V?$allocator@D@2@@std@@@Z@4HA 000000018001c278     bento_sdk:asset_database.obj
 0004:00001284       $pdata$?dtor$0@?0??dump@?$basic_json@Vmap@std@@Vvector@2@V?$basic_string@DU?$char_traits@D@std@@V?$allocator@D@2@@2@_N_J_KNVallocator@2@Uadl_serializer@nlohmann@@@nlohmann@@QEBA?AV?$basic_string@DU?$char_traits@D@std@@V?$allocator@D@2@@std@@HD_N@Z@4HA 000000018001c284     bento_sdk:asset_database.obj
 0004:00001290       $pdata$?dtor$23@?0??dump_escaped@?$serializer@V?$basic_json@Vmap@std@@Vvector@2@V?$basic_string@DU?$char_traits@D@std@@V?$allocator@D@2@@2@_N_J_KNVallocator@2@Uadl_serializer@nlohmann@@@nlohmann@@@detail@nlohmann@@AEAAXAEBV?$basic_string@DU?$char_traits@D@std@@V?$allocator@D@2@@std@@_N@Z@4HA 000000018001c290     bento_sdk:asset_database.obj
 0004:0000129c       $pdata$?dtor$106@?0??dump_escaped@?$serializer@V?$basic_json@Vmap@std@@Vvector@2@V?$basic_string@DU?$char_traits@D@std@@V?$allocator@D@2@@2@_N_J_KNVallocator@2@Uadl_serializer@nlohmann@@@nlohmann@@@detail@nlohmann@@AEAAXAEBV?$basic_string@DU?$char_traits@D@std@@V?$allocator@D@2@@std@@_N@Z@4HA 000000018001c29c     bento_sdk:asset_database.obj
 0004:000012a8       $pdata$?dtor$12@?0??resize@?$Vector@UTAsset@bento@@@bento@@QEAAXI@Z@4HA 000000018001c2a8     bento_sdk:asset_database.obj
 0004:000012b4       $pdata$?dtor$17@?0??resize@?$Vector@UTAsset@bento@@@bento@@QEAAXI@Z@4HA 000000018001c2b4     bento_sdk:asset_database.obj
 0004:000012c0       $pdata$?dtor$3@?0??to_string@bento@@YAXAEAVDynamicString@1@AEBVTAssetDatabase@1@@Z@4HA 000000018001c2c0     bento_sdk:asset_database.obj
 0004:000012cc       $pdata$?dtor$7@?0??to_string@bento@@YAXAEAVDynamicString@1@AEBVTAssetDatabase@1@@Z@4HA 000000018001c2cc     bento_sdk:asset_database.obj
 0004:000012d8       $pdata$?dtor$12@?0??to_string@bento@@YAXAEAVDynamicString@1@AEBVTAssetDatabase@1@@Z@4HA 000000018001c2d8     bento_sdk:asset_database.obj
 0004:000012e4       $pdata$?dtor$16@?0??to_string@bento@@YAXAEAVDynamicString@1@AEBVTAssetDatabase@1@@Z@4HA 000000018001c2e4     bento_sdk:asset_database.obj
 0004:000012f0       $pdata$?dtor$18@?0??to_string@bento@@YAXAEAVDynamicString@1@AEBVTAssetDatabase@1@@Z@4HA 000000018001c2f0     bento_sdk:asset_database.obj
 0004:000012fc       $pdata$?dtor$17@?0??collect_files_with_extension@file_system@bento@@YAXPEBD0AEAV?$Vector@VDynamicString@bento@@@2@@Z@4HA 000000018001c2fc     bento_sdk:file_system.obj
 0004:00001308       $pdata$?dtor$1@?0??push_back@?$Vector@VDynamicString@bento@@@bento@@QEAAXAEBVDynamicString@2@@Z@4HA 000000018001c308     bento_sdk:file_system.obj
 0004:00001314       $pdata$__scrt_is_nonwritable_in_current_image$filt$0 000000018001c314     MSVCRT:utility.obj
 0004:00001320       $pdata$?fin$0@?0??dllmain_crt_process_attach@@YAHQEAUHINSTANCE__@@QEAX@Z@4HA 000000018001c320     MSVCRT:dll_dllmain.obj
 0004:0000132c       $pdata$?fin$0@?0??dllmain_crt_process_detach@@YAH_N@Z@4HA 000000018001c32c     MSVCRT:dll_dllmain.obj
 0004:00001338       $pdata$?filt$0@?0??dllmain_dispatch@@YAHQEAUHINSTANCE__@@KQEAX@Z@4HA 000000018001c338     MSVCRT:dll_dllmain.obj
 0004:00001344       $pdata$?fin$0@?0???_M@YAXPEAX_K1P6AX0@Z@Z@4HA 000000018001c344     MSVCRT:ehvecdtr.obj
 0004:00001350       $pdata$?filt$0@?0??__ArrayUnwind@@YAXPEAX_K1P6AX0@Z@Z@4HA 000000018001c350     MSVCRT:ehvecdtr.obj
 0005:00000000       __spec_table               000000018001d000     MSVCRT:_svml_ssinf4_sse2_.obj
 0005:00000560       MMSA7                      000000018001d560     MSVCRT:_svml_ssinf4_sse2_.obj
 0005:00000570       MMSA3                      000000018001d570     MSVCRT:_svml_ssinf4_sse2_.obj
 0005:00000580       MMSA5                      000000018001d580     MSVCRT:_svml_ssinf4_sse2_.obj
 0005:00000590       MMSA9                      000000018001d590     MSVCRT:_svml_ssinf4_sse2_.obj
 0005:000005a0       MMSPI3                     000000018001d5a0     MSVCRT:_svml_ssinf4_sse2_.obj
 0005:000005b0       MMSPI4                     000000018001d5b0     MSVCRT:_svml_ssinf4_sse2_.obj
 0005:000005c0       MMSPI2                     000000018001d5c0     MSVCRT:_svml_ssinf4_sse2_.obj
 0005:000005d0       MMSPI1                     000000018001d5d0     MSVCRT:_svml_ssinf4_sse2_.obj
 0005:000005e0       MMIHUGE                    000000018001d5e0     MSVCRT:_svml_ssinf4_sse2_.obj
 0005:000005f0       MMSINVPI                   000000018001d5f0     MSVCRT:_svml_ssinf4_sse2_.obj
 0005:00000600       MMIABSMASK                 000000018001d600     MSVCRT:_svml_ssinf4_sse2_.obj
 0005:00000610       dbSignMask                 000000018001d610     MSVCRT:_svml_ssinf4_sse2_.obj
 0005:00000620       PI02C_4                    000000018001d620     MSVCRT:_svml_ssinf4_sse2_.obj
 0005:00000630       PI02C_3                    000000018001d630     MSVCRT:_svml_ssinf4_sse2_.obj
 0005:00000640       PI02C_2                    000000018001d640     MSVCRT:_svml_ssinf4_sse2_.obj
 0005:00000650       PI02C_1                    000000018001d650     MSVCRT:_svml_ssinf4_sse2_.obj
 0005:00000660       PI02C_0                    000000018001d660     MSVCRT:_svml_ssinf4_sse2_.obj
 0005:00000670       dbRS                       000000018001d670     MSVCRT:_svml_ssinf4_sse2_.obj
 0005:00000680       MSK_LOW_BIT                000000018001d680     MSVCRT:_svml_ssinf4_sse2_.obj
 0005:00000690       dbiOne                     000000018001d690     MSVCRT:_svml_ssinf4_sse2_.obj
 0005:000006a0       dbInvPio2                  000000018001d6a0     MSVCRT:_svml_ssinf4_sse2_.obj
 0005:000006b0       flAllOnes                  000000018001d6b0     MSVCRT:_svml_ssinf4_sse2_.obj
 0005:000006c0       flTwoPow30                 000000018001d6c0     MSVCRT:_svml_ssinf4_sse2_.obj
 0005:000006d0       MMISIGNMASK                000000018001d6d0     MSVCRT:_svml_ssinf4_sse2_.obj
 0006:00000060       $R000000                   000000018001e060     * linker generated manifest res *
