 testCompiler

 Timestamp is 5bd76284 (Mon Oct 29 20:41:56 2018)

 Preferred load address is 0000000140000000

 Start         Length     Name                   Class
 0001:00000000 00000040H .text$di                CODE
 0001:00000040 0000c200H .text$mn                CODE
 0001:0000c240 000000e0H .text$mn$00             CODE
 0001:0000c320 000009a0H .text$x                 CODE
 0001:0000ccc0 0000001cH .text$yd                CODE
 0002:00000000 000003e0H .idata$5                DATA
 0002:000003e0 00000020H .00cfg                  DATA
 0002:00000400 00000008H .CRT$XCA                DATA
 0002:00000408 00000008H .CRT$XCAA               DATA
 0002:00000410 00000010H .CRT$XCU                DATA
 0002:00000420 00000008H .CRT$XCZ                DATA
 0002:00000428 00000008H .CRT$XIA                DATA
 0002:00000430 00000008H .CRT$XIAA               DATA
 0002:00000438 00000008H .CRT$XIAC               DATA
 0002:00000440 00000008H .CRT$XIZ                DATA
 0002:00000448 00000008H .CRT$XPA                DATA
 0002:00000450 00000008H .CRT$XPZ                DATA
 0002:00000458 00000008H .CRT$XTA                DATA
 0002:00000460 00000020H .CRT$XTZ                DATA
 0002:00000468 00000000H .gfids$y                DATA
 0002:00000480 00001670H .rdata                  DATA
 0002:00001af0 000001f4H .rdata$r                DATA
 0002:00001ce4 00000354H .rdata$zzzdbg           DATA
 0002:00002038 00000008H .rtc$IAA                DATA
 0002:00002040 00000008H .rtc$IZZ                DATA
 0002:00002048 00000008H .rtc$TAA                DATA
 0002:00002050 00000010H .rtc$TZZ                DATA
 0002:00002060 00002628H .xdata                  DATA
 0002:00004688 0000020cH .xdata$x                DATA
 0002:00004894 00000000H .edata                  DATA
 0002:00004894 000000dcH .idata$2                DATA
 0002:00004970 00000018H .idata$3                DATA
 0002:00004988 000003e0H .idata$4                DATA
 0002:00004d68 00000e3aH .idata$6                DATA
 0003:00000000 00000058H .data                   DATA
 0003:00000058 00000168H .data$r                 DATA
 0003:000001c0 00000600H .bss                    DATA
 0004:00000000 00001038H .pdata                  DATA
 0005:00000000 00000060H .rsrc$01                DATA
 0005:00000060 00000180H .rsrc$02                DATA

  Address         Publics by Value              Rva+Base               Lib:Object

 0000:00000000       __hybrid_auxiliary_iat     0000000000000000     <absolute>
 0000:00000000       __hybrid_code_map_count    0000000000000000     <absolute>
 0000:00000000       __dynamic_value_reloc_table 0000000000000000     <absolute>
 0000:00000000       __guard_longjmp_table      0000000000000000     <absolute>
 0000:00000000       __guard_iat_count          0000000000000000     <absolute>
 0000:00000000       __guard_fids_count         0000000000000000     <absolute>
 0000:00000000       __guard_longjmp_count      0000000000000000     <absolute>
 0000:00000000       __enclave_config           0000000000000000     <absolute>
 0000:00000000       __guard_fids_table         0000000000000000     <absolute>
 0000:00000000       __guard_iat_table          0000000000000000     <absolute>
 0000:00000000       __hybrid_code_map          0000000000000000     <absolute>
 0000:00000000       ___safe_se_handler_table   0000000000000000     <absolute>
 0000:00000000       ___safe_se_handler_count   0000000000000000     <absolute>
 0000:00000100       __guard_flags              0000000000000100     <absolute>
 0000:00000000       __ImageBase                0000000140000000     <linker-defined>
 0001:00000040       ??0?$Vector@VDynamicString@bento@@@bento@@QEAA@AEAVIAllocator@1@@Z 0000000140001040 f i testCompiler.obj
 0001:00000060       ??1?$Vector@D@bento@@QEAA@XZ 0000000140001060 f i testCompiler.obj
 0001:000000a0       ??1?$Vector@VDynamicString@bento@@@bento@@QEAA@XZ 00000001400010a0 f i testCompiler.obj
 0001:000000e0       ??1DynamicString@bento@@QEAA@XZ 00000001400010e0 f i testCompiler.obj
 0001:00000120       ??1TCompilerOptions@noiseless@@QEAA@XZ 0000000140001120 f i testCompiler.obj
 0001:00000180       ??3@YAXPEAX0@Z             0000000140001180 f i testCompiler.obj
 0001:00000190       ?clear@?$Vector@D@bento@@QEAAXXZ 0000000140001190 f i testCompiler.obj
 0001:000001a0       ?clear@?$Vector@VDynamicString@bento@@@bento@@QEAAXXZ 00000001400011a0 f i testCompiler.obj
 0001:00000220       ?free@?$Vector@D@bento@@QEAAXXZ 0000000140001220 f i testCompiler.obj
 0001:00000250       ?free@?$Vector@VDynamicString@bento@@@bento@@QEAAXXZ 0000000140001250 f i testCompiler.obj
 0001:00000280       ?reserve@?$Vector@VDynamicString@bento@@@bento@@QEAAXI@Z 0000000140001280 f i testCompiler.obj
 0001:000002f0       ?resize@?$Vector@VDynamicString@bento@@@bento@@QEAAXI@Z 00000001400012f0 f i testCompiler.obj
 0001:00000440       main                       0000000140001440 f   testCompiler.obj
 0001:00000610       ?build_from_args@asset_compiler@noiseless@@YAXAEAUTCompilerOptions@2@AEBV?$Vector@VDynamicString@bento@@@bento@@@Z 0000000140001610 f   noiseless_sdk:compiler_options.obj
 0001:00000730       ??0?$Vector@D@bento@@QEAA@AEAVIAllocator@1@@Z 0000000140001730 f i noiseless_sdk:compiler.obj
 0001:00000750       ??1TKernelSource@noiseless@@QEAA@XZ 0000000140001750 f i noiseless_sdk:compiler.obj
 0001:00000790       ?compile@asset_compiler@noiseless@@YA_NAEBUTCompilerOptions@2@AEAVTAssetDatabase@bento@@@Z 0000000140001790 f   noiseless_sdk:compiler.obj
 0001:00000990       ?write@asset_compiler@noiseless@@YAXAEBUTCompilerOptions@2@AEBVTAssetDatabase@bento@@@Z 0000000140001990 f   noiseless_sdk:compiler.obj
 0001:00000a40       ??$pack_bytes@I@bento@@YAXAEAV?$Vector@D@0@AEBI@Z 0000000140001a40 f i noiseless_sdk:kernel_source.obj
 0001:00000a50       ??$pack_vector_bytes@D@bento@@YAXAEAV?$Vector@D@0@AEBV10@@Z 0000000140001a50 f i noiseless_sdk:kernel_source.obj
 0001:00000aa0       ??$unpack_bytes@I@bento@@YAXAEAPEBDAEAI@Z 0000000140001aa0 f i noiseless_sdk:kernel_source.obj
 0001:00000ab0       ??$unpack_vector_bytes@D@bento@@YAXAEAPEBDAEAV?$Vector@D@0@@Z 0000000140001ab0 f i noiseless_sdk:kernel_source.obj
 0001:00000b70       ?pack_type@bento@@YAXAEAV?$Vector@D@1@AEBUTKernelSource@noiseless@@@Z 0000000140001b70 f   noiseless_sdk:kernel_source.obj
 0001:00000bd0       ?reserve@?$Vector@D@bento@@QEAAXI@Z 0000000140001bd0 f i noiseless_sdk:kernel_source.obj
 0001:00000c40       ?resize@?$Vector@D@bento@@QEAAXI@Z 0000000140001c40 f i noiseless_sdk:kernel_source.obj
 0001:00000ce0       ?unpack_type@bento@@YA_NAEAPEBDAEAUTKernelSource@noiseless@@@Z 0000000140001ce0 f   noiseless_sdk:kernel_source.obj
 0001:00000dc0       ?read_shader_source@noiseless@@YA_NPEBDAEAUTKernelSource@1@@Z 0000000140001dc0 f   noiseless_sdk:kernel_source_helpers.obj
 0001:00000dd0       ??$_Getvals@_W@?$time_get@DV?$istreambuf_iterator@DU?$char_traits@D@std@@@std@@@std@@IEAAX_WAEBV_Locinfo@1@@Z 0000000140001dd0 f i noiseless_sdk:asset_database_helpers.obj
 0001:00000ea0       ??$_Getvals@_W@?$time_get@_WV?$istreambuf_iterator@_WU?$char_traits@_W@std@@@std@@@std@@IEAAX_WAEBV_Locinfo@1@@Z 0000000140001ea0 f i noiseless_sdk:asset_database_helpers.obj
 0001:00000f70       ??1DiskSerializer@bento@@QEAA@XZ 0000000140001f70 f i noiseless_sdk:asset_database_helpers.obj
 0001:00000fb0       ?_Maklocwcs@std@@YAPEA_WPEB_W@Z 0000000140001fb0 f i noiseless_sdk:asset_database_helpers.obj
 0001:00001020       ?read_database@noiseless@@YA_NPEBDAEAVTAssetDatabase@bento@@@Z 0000000140002020 f   noiseless_sdk:asset_database_helpers.obj
 0001:00001190       ?write_database@noiseless@@YA_NPEBDAEBVTAssetDatabase@bento@@@Z 0000000140002190 f   noiseless_sdk:asset_database_helpers.obj
 0001:000012e0       ?write_database_debug@noiseless@@YA_NPEBDAEBVTAssetDatabase@bento@@@Z 00000001400022e0 f   noiseless_sdk:asset_database_helpers.obj
 0001:00001420       ?common_allocator@bento@@YAPEAVIAllocator@1@XZ 0000000140002420 f   bento_sdk:common.obj
 0001:00001430       ??0DynamicString@bento@@QEAA@AEAVIAllocator@1@@Z 0000000140002430 f   bento_sdk:dynamic_string.obj
 0001:000014d0       ??0DynamicString@bento@@QEAA@AEAVIAllocator@1@I@Z 00000001400024d0 f   bento_sdk:dynamic_string.obj
 0001:00001520       ??0DynamicString@bento@@QEAA@AEAVIAllocator@1@PEBD@Z 0000000140002520 f   bento_sdk:dynamic_string.obj
 0001:000015a0       ??0DynamicString@bento@@QEAA@AEBV01@@Z 00000001400025a0 f   bento_sdk:dynamic_string.obj
 0001:00001620       ??4DynamicString@bento@@QEAAAEAV01@AEBV01@@Z 0000000140002620 f   bento_sdk:dynamic_string.obj
 0001:00001680       ??4DynamicString@bento@@QEAAAEAV01@PEBD@Z 0000000140002680 f   bento_sdk:dynamic_string.obj
 0001:000016e0       ??8DynamicString@bento@@QEBA_NPEBD@Z 00000001400026e0 f   bento_sdk:dynamic_string.obj
 0001:00001710       ??9DynamicString@bento@@QEBA_NPEBD@Z 0000000140002710 f   bento_sdk:dynamic_string.obj
 0001:00001740       ??YDynamicString@bento@@QEAAAEAV01@AEBV01@@Z 0000000140002740 f   bento_sdk:dynamic_string.obj
 0001:000017b0       ??YDynamicString@bento@@QEAAAEAV01@PEBD@Z 00000001400027b0 f   bento_sdk:dynamic_string.obj
 0001:00001810       ?find_last_of@bento@@YAIPEBDD@Z 0000000140002810 f   bento_sdk:dynamic_string.obj
 0001:00001850       ?pack_type@bento@@YAXAEAV?$Vector@D@1@AEBVDynamicString@1@@Z 0000000140002850 f   bento_sdk:dynamic_string.obj
 0001:000018a0       ?resize@DynamicString@bento@@QEAAXI@Z 00000001400028a0 f   bento_sdk:dynamic_string.obj
 0001:00001950       ?size@DynamicString@bento@@QEBAIXZ 0000000140002950 f   bento_sdk:dynamic_string.obj
 0001:00001960       ?strlen32@bento@@YAIPEBD@Z 0000000140002960 f   bento_sdk:dynamic_string.obj
 0001:00001970       ?substr@string@bento@@YA?AVDynamicString@2@AEBV32@II@Z 0000000140002970 f   bento_sdk:dynamic_string.obj
 0001:00001a10       ?to_lower_case@string@bento@@YAXAEAVDynamicString@2@@Z 0000000140002a10 f   bento_sdk:dynamic_string.obj
 0001:00001a60       ?unpack_type@bento@@YAXAEAPEBDAEAVDynamicString@1@@Z 0000000140002a60 f   bento_sdk:dynamic_string.obj
 0001:00001ab0       ??$?6DU?$char_traits@D@std@@D@std@@YAAEAV?$basic_ostream@DU?$char_traits@D@std@@@0@AEAV10@AEBU?$_Fillobj@D@0@@Z 0000000140002ab0 f i bento_sdk:asset_database.obj
 0001:00001ad0       ??$?6DU?$char_traits@D@std@@_J@std@@YAAEAV?$basic_ostream@DU?$char_traits@D@std@@@0@AEAV10@AEBU?$_Smanip@_J@0@@Z 0000000140002ad0 f i bento_sdk:asset_database.obj
 0001:00001b10       ??$?HDU?$char_traits@D@std@@V?$allocator@D@1@@std@@YA?AV?$basic_string@DU?$char_traits@D@std@@V?$allocator@D@2@@0@$$QEAV10@0@Z 0000000140002b10 f i bento_sdk:asset_database.obj
 0001:00001ba0       ??$?HDU?$char_traits@D@std@@V?$allocator@D@1@@std@@YA?AV?$basic_string@DU?$char_traits@D@std@@V?$allocator@D@2@@0@$$QEAV10@QEBD@Z 0000000140002ba0 f i bento_sdk:asset_database.obj
 0001:00001c00       ??$?HDU?$char_traits@D@std@@V?$allocator@D@1@@std@@YA?AV?$basic_string@DU?$char_traits@D@std@@V?$allocator@D@2@@0@QEBD$$QEAV10@@Z 0000000140002c00 f i bento_sdk:asset_database.obj
 0001:00001c60       ??$?HDU?$char_traits@D@std@@V?$allocator@D@1@@std@@YA?AV?$basic_string@DU?$char_traits@D@std@@V?$allocator@D@2@@0@QEBDAEBV10@@Z 0000000140002c60 f i bento_sdk:asset_database.obj
 0001:00001e50       ??$_Allocate@U?$_Default_allocate_traits@$00@std@@@std@@YAPEAX_K0_K@Z 0000000140002e50 f i bento_sdk:asset_database.obj
 0001:00001ed0       ??$_Copy_nodes@U_Copy_tag@?$_Tree@V?$_Tmap_traits@V?$basic_string@DU?$char_traits@D@std@@V?$allocator@D@2@@std@@V?$basic_json@Vmap@std@@Vvector@2@V?$basic_string@DU?$char_traits@D@std@@V?$allocator@D@2@@2@_N_J_KNVallocator@2@Uadl_serializer@nlohmann@@@nlohmann@@U?$less@V?$basic_string@DU?$char_traits@D@std@@V?$allocator@D@2@@std@@@2@V?$allocator@U?$pair@$$CBV?$basic_string@DU?$char_traits@D@std@@V?$allocator@D@2@@std@@V?$basic_json@Vmap@std@@Vvector@2@V?$basic_string@DU?$char_traits@D@std@@V?$allocator@D@2@@2@_N_J_KNVallocator@2@Uadl_serializer@nlohmann@@@nlohmann@@@std@@@2@$0A@@std@@@std@@@?$_Tree@V?$_Tmap_traits@V?$basic_string@DU?$char_traits@D@std@@V?$allocator@D@2@@std@@V?$basic_json@Vmap@std@@Vvector@2@V?$basic_string@DU?$char_traits@D@std@@V?$allocator@D@2@@2@_N_J_KNVallocator@2@Uadl_serializer@nlohmann@@@nlohmann@@U?$less@V?$basic_string@DU?$char_traits@D@std@@V?$allocator@D@2@@std@@@2@V?$allocator@U?$pair@$$CBV?$basic_string@DU?$char_traits@D@std@@V?$allocator@D@2@@std@@V?$basic_json@Vmap@std@@Vvector@2@V?$basic_string@DU?$char_traits@D@std@@V?$allocator@D@2@@2@_N_J_KNVallocator@2@Uadl_serializer@nlohmann@@@nlohmann@@@std@@@2@$0A@@std@@@std@@IEAAPEAU?$_Tree_node@U?$pair@$$CBV?$basic_string@DU?$char_traits@D@std@@V?$allocator@D@2@@std@@V?$basic_json@Vmap@std@@Vvector@2@V?$basic_string@DU?$char_traits@D@std@@V?$allocator@D@2@@2@_N_J_KNVallocator@2@Uadl_serializer@nlohmann@@@nlohmann@@@std@@PEAX@1@PEAU21@0U_Copy_tag@01@@Z 0000000140002ed0 f i bento_sdk:asset_database.obj
 0001:00001fd0       ??$_Enable_shared_from_this1@V?$output_string_adapter@DV?$basic_string@DU?$char_traits@D@std@@V?$allocator@D@2@@std@@@detail@nlohmann@@V123@@std@@YAXAEBV?$shared_ptr@V?$output_string_adapter@DV?$basic_string@DU?$char_traits@D@std@@V?$allocator@D@2@@std@@@detail@nlohmann@@@0@PEAV?$output_string_adapter@DV?$basic_string@DU?$char_traits@D@std@@V?$allocator@D@2@@std@@@detail@nlohmann@@U?$integral_constant@_N$0A@@0@@Z 0000000140002fd0 f i bento_sdk:asset_database.obj
 0001:00001fe0       ??$_Enable_shared_from_this@V?$output_string_adapter@DV?$basic_string@DU?$char_traits@D@std@@V?$allocator@D@2@@std@@@detail@nlohmann@@V123@@std@@YAXAEBV?$shared_ptr@V?$output_string_adapter@DV?$basic_string@DU?$char_traits@D@std@@V?$allocator@D@2@@std@@@detail@nlohmann@@@0@PEAV?$output_string_adapter@DV?$basic_string@DU?$char_traits@D@std@@V?$allocator@D@2@@std@@@detail@nlohmann@@@Z 0000000140002fe0 f i bento_sdk:asset_database.obj
 0001:00001ff0       ??$_Insert_at@AEAU?$pair@$$CBV?$basic_string@DU?$char_traits@D@std@@V?$allocator@D@2@@std@@V?$basic_json@Vmap@std@@Vvector@2@V?$basic_string@DU?$char_traits@D@std@@V?$allocator@D@2@@2@_N_J_KNVallocator@2@Uadl_serializer@nlohmann@@@nlohmann@@@std@@PEAU?$_Tree_node@U?$pair@$$CBV?$basic_string@DU?$char_traits@D@std@@V?$allocator@D@2@@std@@V?$basic_json@Vmap@std@@Vvector@2@V?$basic_string@DU?$char_traits@D@std@@V?$allocator@D@2@@2@_N_J_KNVallocator@2@Uadl_serializer@nlohmann@@@nlohmann@@@std@@PEAX@2@@?$_Tree@V?$_Tmap_traits@V?$basic_string@DU?$char_traits@D@std@@V?$allocator@D@2@@std@@V?$basic_json@Vmap@std@@Vvector@2@V?$basic_string@DU?$char_traits@D@std@@V?$allocator@D@2@@2@_N_J_KNVallocator@2@Uadl_serializer@nlohmann@@@nlohmann@@U?$less@V?$basic_string@DU?$char_traits@D@std@@V?$allocator@D@2@@std@@@2@V?$allocator@U?$pair@$$CBV?$basic_string@DU?$char_traits@D@std@@V?$allocator@D@2@@std@@V?$basic_json@Vmap@std@@Vvector@2@V?$basic_string@DU?$char_traits@D@std@@V?$allocator@D@2@@2@_N_J_KNVallocator@2@Uadl_serializer@nlohmann@@@nlohmann@@@std@@@2@$0A@@std@@@std@@IEAA?AV?$_Tree_iterator@V?$_Tree_val@U?$_Tree_simple_types@U?$pair@$$CBV?$basic_string@DU?$char_traits@D@std@@V?$allocator@D@2@@std@@V?$basic_json@Vmap@std@@Vvector@2@V?$basic_string@DU?$char_traits@D@std@@V?$allocator@D@2@@2@_N_J_KNVallocator@2@Uadl_serializer@nlohmann@@@nlohmann@@@std@@@std@@@std@@@1@_NPEAU?$_Tree_node@U?$pair@$$CBV?$basic_string@DU?$char_traits@D@std@@V?$allocator@D@2@@std@@V?$basic_json@Vmap@std@@Vvector@2@V?$basic_string@DU?$char_traits@D@std@@V?$allocator@D@2@@2@_N_J_KNVallocator@2@Uadl_serializer@nlohmann@@@nlohmann@@@std@@PEAX@1@AEAU?$pair@$$CBV?$basic_string@DU?$char_traits@D@std@@V?$allocator@D@2@@std@@V?$basic_json@Vmap@std@@Vvector@2@V?$basic_string@DU?$char_traits@D@std@@V?$allocator@D@2@@2@_N_J_KNVallocator@2@Uadl_serializer@nlohmann@@@nlohmann@@@1@1@Z 0000000140002ff0 f i bento_sdk:asset_database.obj
 0001:000022c0       ??$_Insert_hint@AEAU?$pair@$$CBV?$basic_string@DU?$char_traits@D@std@@V?$allocator@D@2@@std@@V?$basic_json@Vmap@std@@Vvector@2@V?$basic_string@DU?$char_traits@D@std@@V?$allocator@D@2@@2@_N_J_KNVallocator@2@Uadl_serializer@nlohmann@@@nlohmann@@@std@@PEAU?$_Tree_node@U?$pair@$$CBV?$basic_string@DU?$char_traits@D@std@@V?$allocator@D@2@@std@@V?$basic_json@Vmap@std@@Vvector@2@V?$basic_string@DU?$char_traits@D@std@@V?$allocator@D@2@@2@_N_J_KNVallocator@2@Uadl_serializer@nlohmann@@@nlohmann@@@std@@PEAX@2@@?$_Tree@V?$_Tmap_traits@V?$basic_string@DU?$char_traits@D@std@@V?$allocator@D@2@@std@@V?$basic_json@Vmap@std@@Vvector@2@V?$basic_string@DU?$char_traits@D@std@@V?$allocator@D@2@@2@_N_J_KNVallocator@2@Uadl_serializer@nlohmann@@@nlohmann@@U?$less@V?$basic_string@DU?$char_traits@D@std@@V?$allocator@D@2@@std@@@2@V?$allocator@U?$pair@$$CBV?$basic_string@DU?$char_traits@D@std@@V?$allocator@D@2@@std@@V?$basic_json@Vmap@std@@Vvector@2@V?$basic_string@DU?$char_traits@D@std@@V?$allocator@D@2@@2@_N_J_KNVallocator@2@Uadl_serializer@nlohmann@@@nlohmann@@@std@@@2@$0A@@std@@@std@@IEAA?AV?$_Tree_iterator@V?$_Tree_val@U?$_Tree_simple_types@U?$pair@$$CBV?$basic_string@DU?$char_traits@D@std@@V?$allocator@D@2@@std@@V?$basic_json@Vmap@std@@Vvector@2@V?$basic_string@DU?$char_traits@D@std@@V?$allocator@D@2@@2@_N_J_KNVallocator@2@Uadl_serializer@nlohmann@@@nlohmann@@@std@@@std@@@std@@@1@V?$_Tree_const_iterator@V?$_Tree_val@U?$_Tree_simple_types@U?$pair@$$CBV?$basic_string@DU?$char_traits@D@std@@V?$allocator@D@2@@std@@V?$basic_json@Vmap@std@@Vvector@2@V?$basic_string@DU?$char_traits@D@std@@V?$allocator@D@2@@2@_N_J_KNVallocator@2@Uadl_serializer@nlohmann@@@nlohmann@@@std@@@std@@@std@@@1@AEAU?$pair@$$CBV?$basic_string@DU?$char_traits@D@std@@V?$allocator@D@2@@std@@V?$basic_json@Vmap@std@@Vvector@2@V?$basic_string@DU?$char_traits@D@std@@V?$allocator@D@2@@2@_N_J_KNVallocator@2@Uadl_serializer@nlohmann@@@nlohmann@@@1@PEAU?$_Tree_node@U?$pair@$$CBV?$basic_string@DU?$char_traits@D@std@@V?$allocator@D@2@@std@@V?$basic_json@Vmap@std@@Vvector@2@V?$basic_string@DU?$char_traits@D@std@@V?$allocator@D@2@@2@_N_J_KNVallocator@2@Uadl_serializer@nlohmann@@@nlohmann@@@std@@PEAX@1@@Z 00000001400032c0 f i bento_sdk:asset_database.obj
 0001:00002570       ??$_Insert_nohint@AEAU?$pair@$$CBV?$basic_string@DU?$char_traits@D@std@@V?$allocator@D@2@@std@@V?$basic_json@Vmap@std@@Vvector@2@V?$basic_string@DU?$char_traits@D@std@@V?$allocator@D@2@@2@_N_J_KNVallocator@2@Uadl_serializer@nlohmann@@@nlohmann@@@std@@PEAU?$_Tree_node@U?$pair@$$CBV?$basic_string@DU?$char_traits@D@std@@V?$allocator@D@2@@std@@V?$basic_json@Vmap@std@@Vvector@2@V?$basic_string@DU?$char_traits@D@std@@V?$allocator@D@2@@2@_N_J_KNVallocator@2@Uadl_serializer@nlohmann@@@nlohmann@@@std@@PEAX@2@@?$_Tree@V?$_Tmap_traits@V?$basic_string@DU?$char_traits@D@std@@V?$allocator@D@2@@std@@V?$basic_json@Vmap@std@@Vvector@2@V?$basic_string@DU?$char_traits@D@std@@V?$allocator@D@2@@2@_N_J_KNVallocator@2@Uadl_serializer@nlohmann@@@nlohmann@@U?$less@V?$basic_string@DU?$char_traits@D@std@@V?$allocator@D@2@@std@@@2@V?$allocator@U?$pair@$$CBV?$basic_string@DU?$char_traits@D@std@@V?$allocator@D@2@@std@@V?$basic_json@Vmap@std@@Vvector@2@V?$basic_string@DU?$char_traits@D@std@@V?$allocator@D@2@@2@_N_J_KNVallocator@2@Uadl_serializer@nlohmann@@@nlohmann@@@std@@@2@$0A@@std@@@std@@IEAA?AU?$pair@V?$_Tree_iterator@V?$_Tree_val@U?$_Tree_simple_types@U?$pair@$$CBV?$basic_string@DU?$char_traits@D@std@@V?$allocator@D@2@@std@@V?$basic_json@Vmap@std@@Vvector@2@V?$basic_string@DU?$char_traits@D@std@@V?$allocator@D@2@@2@_N_J_KNVallocator@2@Uadl_serializer@nlohmann@@@nlohmann@@@std@@@std@@@std@@@std@@_N@1@_NAEAU?$pair@$$CBV?$basic_string@DU?$char_traits@D@std@@V?$allocator@D@2@@std@@V?$basic_json@Vmap@std@@Vvector@2@V?$basic_string@DU?$char_traits@D@std@@V?$allocator@D@2@@2@_N_J_KNVallocator@2@Uadl_serializer@nlohmann@@@nlohmann@@@1@PEAU?$_Tree_node@U?$pair@$$CBV?$basic_string@DU?$char_traits@D@std@@V?$allocator@D@2@@std@@V?$basic_json@Vmap@std@@Vvector@2@V?$basic_string@DU?$char_traits@D@std@@V?$allocator@D@2@@2@_N_J_KNVallocator@2@Uadl_serializer@nlohmann@@@nlohmann@@@std@@PEAX@1@@Z 0000000140003570 f i bento_sdk:asset_database.obj
 0001:00002880       ??$_UIntegral_to_buff@DI@std@@YAPEADPEADI@Z 0000000140003880 f i bento_sdk:asset_database.obj
 0001:000028c0       ??$_UIntegral_to_buff@D_K@std@@YAPEADPEAD_K@Z 00000001400038c0 f i bento_sdk:asset_database.obj
 0001:00002900       ??$__vcrt_va_start_verify_argument_type@QEBD@@YAXXZ 0000000140003900 f i bento_sdk:asset_database.obj
 0001:00002910       ??$compute_boundaries@N@dtoa_impl@detail@nlohmann@@YA?AUboundaries@012@N@Z 0000000140003910 f i bento_sdk:asset_database.obj
 0001:00002a60       ??$construct@V?$basic_json@Vmap@std@@Vvector@2@V?$basic_string@DU?$char_traits@D@std@@V?$allocator@D@2@@2@_N_J_KNVallocator@2@Uadl_serializer@nlohmann@@@nlohmann@@@?$external_constructor@$02@detail@nlohmann@@SAXAEAV?$basic_json@Vmap@std@@Vvector@2@V?$basic_string@DU?$char_traits@D@std@@V?$allocator@D@2@@2@_N_J_KNVallocator@2@Uadl_serializer@nlohmann@@@2@$$QEAV?$basic_string@DU?$char_traits@D@std@@V?$allocator@D@2@@std@@@Z 0000000140003a60 f i bento_sdk:asset_database.obj
 0001:00002ac0       ??$create@V?$map@V?$basic_string@DU?$char_traits@D@std@@V?$allocator@D@2@@std@@V?$basic_json@Vmap@std@@Vvector@2@V?$basic_string@DU?$char_traits@D@std@@V?$allocator@D@2@@2@_N_J_KNVallocator@2@Uadl_serializer@nlohmann@@@nlohmann@@U?$less@V?$basic_string@DU?$char_traits@D@std@@V?$allocator@D@2@@std@@@2@V?$allocator@U?$pair@$$CBV?$basic_string@DU?$char_traits@D@std@@V?$allocator@D@2@@std@@V?$basic_json@Vmap@std@@Vvector@2@V?$basic_string@DU?$char_traits@D@std@@V?$allocator@D@2@@2@_N_J_KNVallocator@2@Uadl_serializer@nlohmann@@@nlohmann@@@std@@@2@@std@@$$V@?$basic_json@Vmap@std@@Vvector@2@V?$basic_string@DU?$char_traits@D@std@@V?$allocator@D@2@@2@_N_J_KNVallocator@2@Uadl_serializer@nlohmann@@@nlohmann@@CAPEAV?$map@V?$basic_string@DU?$char_traits@D@std@@V?$allocator@D@2@@std@@V?$basic_json@Vmap@std@@Vvector@2@V?$basic_string@DU?$char_traits@D@std@@V?$allocator@D@2@@2@_N_J_KNVallocator@2@Uadl_serializer@nlohmann@@@nlohmann@@U?$less@V?$basic_string@DU?$char_traits@D@std@@V?$allocator@D@2@@std@@@2@V?$allocator@U?$pair@$$CBV?$basic_string@DU?$char_traits@D@std@@V?$allocator@D@2@@std@@V?$basic_json@Vmap@std@@Vvector@2@V?$basic_string@DU?$char_traits@D@std@@V?$allocator@D@2@@2@_N_J_KNVallocator@2@Uadl_serializer@nlohmann@@@nlohmann@@@std@@@2@@std@@XZ 0000000140003ac0 f i bento_sdk:asset_database.obj
 0001:00002b40       ??$emplace@V?$basic_string@DU?$char_traits@D@std@@V?$allocator@D@2@@std@@V?$basic_json@Vmap@std@@Vvector@2@V?$basic_string@DU?$char_traits@D@std@@V?$allocator@D@2@@2@_N_J_KNVallocator@2@Uadl_serializer@nlohmann@@@nlohmann@@@?$_Tree@V?$_Tmap_traits@V?$basic_string@DU?$char_traits@D@std@@V?$allocator@D@2@@std@@V?$basic_json@Vmap@std@@Vvector@2@V?$basic_string@DU?$char_traits@D@std@@V?$allocator@D@2@@2@_N_J_KNVallocator@2@Uadl_serializer@nlohmann@@@nlohmann@@U?$less@V?$basic_string@DU?$char_traits@D@std@@V?$allocator@D@2@@std@@@2@V?$allocator@U?$pair@$$CBV?$basic_string@DU?$char_traits@D@std@@V?$allocator@D@2@@std@@V?$basic_json@Vmap@std@@Vvector@2@V?$basic_string@DU?$char_traits@D@std@@V?$allocator@D@2@@2@_N_J_KNVallocator@2@Uadl_serializer@nlohmann@@@nlohmann@@@std@@@2@$0A@@std@@@std@@QEAA?AU?$pair@V?$_Tree_iterator@V?$_Tree_val@U?$_Tree_simple_types@U?$pair@$$CBV?$basic_string@DU?$char_traits@D@std@@V?$allocator@D@2@@std@@V?$basic_json@Vmap@std@@Vvector@2@V?$basic_string@DU?$char_traits@D@std@@V?$allocator@D@2@@2@_N_J_KNVallocator@2@Uadl_serializer@nlohmann@@@nlohmann@@@std@@@std@@@std@@@std@@_N@1@$$QEAV?$basic_string@DU?$char_traits@D@std@@V?$allocator@D@2@@1@$$QEAV?$basic_json@Vmap@std@@Vvector@2@V?$basic_string@DU?$char_traits@D@std@@V?$allocator@D@2@@2@_N_J_KNVallocator@2@Uadl_serializer@nlohmann@@@nlohmann@@@Z 0000000140003b40 f i bento_sdk:asset_database.obj
 0001:00002c10       ??$grisu2@N@dtoa_impl@detail@nlohmann@@YAXPEADAEAH1N@Z 0000000140003c10 f i bento_sdk:asset_database.obj
 0001:00002db0       ??$pack_bytes@_K@bento@@YAXAEAV?$Vector@D@0@AEB_K@Z 0000000140003db0 f i bento_sdk:asset_database.obj
 0001:00002dc0       ??$pack_vector_types@UTAsset@bento@@@bento@@YAXAEAV?$Vector@D@0@AEBV?$Vector@UTAsset@bento@@@0@@Z 0000000140003dc0 f i bento_sdk:asset_database.obj
 0001:00002ea0       ??$reinterpret_bits@_KN@dtoa_impl@detail@nlohmann@@YA_KN@Z 0000000140003ea0 f i bento_sdk:asset_database.obj
 0001:00002eb0       ??$setfill@D@std@@YA?AU?$_Fillobj@D@0@D@Z 0000000140003eb0 f i bento_sdk:asset_database.obj
 0001:00002ec0       ??$to_chars@N@detail@nlohmann@@YAPEADPEAD0N@Z 0000000140003ec0 f i bento_sdk:asset_database.obj
 0001:000030b0       ??$to_json@V?$basic_json@Vmap@std@@Vvector@2@V?$basic_string@DU?$char_traits@D@std@@V?$allocator@D@2@@2@_N_J_KNVallocator@2@Uadl_serializer@nlohmann@@@nlohmann@@$$BY04D$0A@@detail@nlohmann@@YAXAEAV?$basic_json@Vmap@std@@Vvector@2@V?$basic_string@DU?$char_traits@D@std@@V?$allocator@D@2@@2@_N_J_KNVallocator@2@Uadl_serializer@nlohmann@@@1@AEAY04$$CBD@Z 00000001400040b0 f i bento_sdk:asset_database.obj
 0001:00003150       ??$to_json@V?$basic_json@Vmap@std@@Vvector@2@V?$basic_string@DU?$char_traits@D@std@@V?$allocator@D@2@@2@_N_J_KNVallocator@2@Uadl_serializer@nlohmann@@@nlohmann@@@detail@nlohmann@@YAXAEAV?$basic_json@Vmap@std@@Vvector@2@V?$basic_string@DU?$char_traits@D@std@@V?$allocator@D@2@@2@_N_J_KNVallocator@2@Uadl_serializer@nlohmann@@@1@$$QEAV?$basic_string@DU?$char_traits@D@std@@V?$allocator@D@2@@std@@@Z 0000000140004150 f i bento_sdk:asset_database.obj
 0001:000031b0       ??$to_json@V?$basic_json@Vmap@std@@Vvector@2@V?$basic_string@DU?$char_traits@D@std@@V?$allocator@D@2@@2@_N_J_KNVallocator@2@Uadl_serializer@nlohmann@@@nlohmann@@I$0A@@detail@nlohmann@@YAXAEAV?$basic_json@Vmap@std@@Vvector@2@V?$basic_string@DU?$char_traits@D@std@@V?$allocator@D@2@@2@_N_J_KNVallocator@2@Uadl_serializer@nlohmann@@@1@I@Z 00000001400041b0 f i bento_sdk:asset_database.obj
 0001:000031c0       ??$to_json@V?$basic_json@Vmap@std@@Vvector@2@V?$basic_string@DU?$char_traits@D@std@@V?$allocator@D@2@@2@_N_J_KNVallocator@2@Uadl_serializer@nlohmann@@@nlohmann@@PEBD$0A@@detail@nlohmann@@YAXAEAV?$basic_json@Vmap@std@@Vvector@2@V?$basic_string@DU?$char_traits@D@std@@V?$allocator@D@2@@2@_N_J_KNVallocator@2@Uadl_serializer@nlohmann@@@1@AEBQEBD@Z 00000001400041c0 f i bento_sdk:asset_database.obj
 0001:00003260       ??$unpack_bytes@_K@bento@@YAXAEAPEBDAEA_K@Z 0000000140004260 f i bento_sdk:asset_database.obj
 0001:00003270       ??$unpack_vector_types@UTAsset@bento@@@bento@@YAXAEAPEBDAEAV?$Vector@UTAsset@bento@@@0@@Z 0000000140004270 f i bento_sdk:asset_database.obj
 0001:00003350       ??0?$Vector@UTAsset@bento@@@bento@@QEAA@AEAVIAllocator@1@@Z 0000000140004350 f i bento_sdk:asset_database.obj
 0001:00003370       ??0?$basic_json@Vmap@std@@Vvector@2@V?$basic_string@DU?$char_traits@D@std@@V?$allocator@D@2@@2@_N_J_KNVallocator@2@Uadl_serializer@nlohmann@@@nlohmann@@QEAA@AEBV01@@Z 0000000140004370 f i bento_sdk:asset_database.obj
 0001:00003620       ??0?$basic_json@Vmap@std@@Vvector@2@V?$basic_string@DU?$char_traits@D@std@@V?$allocator@D@2@@2@_N_J_KNVallocator@2@Uadl_serializer@nlohmann@@@nlohmann@@QEAA@V?$initializer_list@V?$json_ref@V?$basic_json@Vmap@std@@Vvector@2@V?$basic_string@DU?$char_traits@D@std@@V?$allocator@D@2@@2@_N_J_KNVallocator@2@Uadl_serializer@nlohmann@@@nlohmann@@@detail@nlohmann@@@std@@_NW4value_t@detail@1@@Z 0000000140004620 f i bento_sdk:asset_database.obj
 0001:000038f0       ??0?$basic_string@DU?$char_traits@D@std@@V?$allocator@D@2@@std@@QEAA@AEBV01@@Z 00000001400048f0 f i bento_sdk:asset_database.obj
 0001:00003990       ??0?$basic_string@DU?$char_traits@D@std@@V?$allocator@D@2@@std@@QEAA@QEBD@Z 0000000140004990 f i bento_sdk:asset_database.obj
 0001:000039d0       ??0?$basic_string@DU?$char_traits@D@std@@V?$allocator@D@2@@std@@QEAA@_KD@Z 00000001400049d0 f i bento_sdk:asset_database.obj
 0001:00003b20       ??0TAssetDatabase@bento@@QEAA@AEAVIAllocator@1@@Z 0000000140004b20 f   bento_sdk:asset_database.obj
 0001:00003b40       ??0exception@detail@nlohmann@@QEAA@AEBV012@@Z 0000000140004b40 f i bento_sdk:asset_database.obj
 0001:00003b80       ??0exception@stdext@@QEAA@AEBV01@@Z 0000000140004b80 f i bento_sdk:asset_database.obj
 0001:00003ba0       ??0json_value@?$basic_json@Vmap@std@@Vvector@2@V?$basic_string@DU?$char_traits@D@std@@V?$allocator@D@2@@2@_N_J_KNVallocator@2@Uadl_serializer@nlohmann@@@nlohmann@@QEAA@W4value_t@detail@2@@Z 0000000140004ba0 f i bento_sdk:asset_database.obj
 0001:00003d20       ??0other_error@detail@nlohmann@@QEAA@AEBV012@@Z 0000000140004d20 f i bento_sdk:asset_database.obj
 0001:00003d70       ??0type_error@detail@nlohmann@@QEAA@AEBV012@@Z 0000000140004d70 f i bento_sdk:asset_database.obj
 0001:00003dc0       ??1?$Vector@UTAsset@bento@@@bento@@QEAA@XZ 0000000140004dc0 f i bento_sdk:asset_database.obj
 0001:00003e00       ??1?$_Tree_comp_alloc@V?$_Tmap_traits@V?$basic_string@DU?$char_traits@D@std@@V?$allocator@D@2@@std@@V?$basic_json@Vmap@std@@Vvector@2@V?$basic_string@DU?$char_traits@D@std@@V?$allocator@D@2@@2@_N_J_KNVallocator@2@Uadl_serializer@nlohmann@@@nlohmann@@U?$less@V?$basic_string@DU?$char_traits@D@std@@V?$allocator@D@2@@std@@@2@V?$allocator@U?$pair@$$CBV?$basic_string@DU?$char_traits@D@std@@V?$allocator@D@2@@std@@V?$basic_json@Vmap@std@@Vvector@2@V?$basic_string@DU?$char_traits@D@std@@V?$allocator@D@2@@2@_N_J_KNVallocator@2@Uadl_serializer@nlohmann@@@nlohmann@@@std@@@2@$0A@@std@@@std@@QEAA@XZ 0000000140004e00 f i bento_sdk:asset_database.obj
 0001:00003e10       ??1?$basic_json@Vmap@std@@Vvector@2@V?$basic_string@DU?$char_traits@D@std@@V?$allocator@D@2@@2@_N_J_KNVallocator@2@Uadl_serializer@nlohmann@@@nlohmann@@QEAA@XZ 0000000140004e10 f i bento_sdk:asset_database.obj
 0001:00003e20       ??1?$basic_string@DU?$char_traits@D@std@@V?$allocator@D@2@@std@@QEAA@XZ 0000000140004e20 f i bento_sdk:asset_database.obj
 0001:00003e30       ??1?$basic_stringbuf@DU?$char_traits@D@std@@V?$allocator@D@2@@std@@UEAA@XZ 0000000140004e30 f i bento_sdk:asset_database.obj
 0001:00003f00       ??1?$basic_stringstream@DU?$char_traits@D@std@@V?$allocator@D@2@@std@@UEAA@XZ 0000000140004f00 f i bento_sdk:asset_database.obj
 0001:00003f60       ??1?$json_ref@V?$basic_json@Vmap@std@@Vvector@2@V?$basic_string@DU?$char_traits@D@std@@V?$allocator@D@2@@2@_N_J_KNVallocator@2@Uadl_serializer@nlohmann@@@nlohmann@@@detail@nlohmann@@QEAA@XZ 0000000140004f60 f i bento_sdk:asset_database.obj
 0001:00003f70       ??1?$output_adapter@DV?$basic_string@DU?$char_traits@D@std@@V?$allocator@D@2@@std@@@detail@nlohmann@@QEAA@XZ 0000000140004f70 f i bento_sdk:asset_database.obj
 0001:00003fc0       ??1?$output_adapter_protocol@D@detail@nlohmann@@UEAA@XZ 0000000140004fc0 f i bento_sdk:asset_database.obj
 0001:00003fd0       ??1?$serializer@V?$basic_json@Vmap@std@@Vvector@2@V?$basic_string@DU?$char_traits@D@std@@V?$allocator@D@2@@2@_N_J_KNVallocator@2@Uadl_serializer@nlohmann@@@nlohmann@@@detail@nlohmann@@QEAA@XZ 0000000140004fd0 f i bento_sdk:asset_database.obj
 0001:00004030       ??1?$shared_ptr@U?$output_adapter_protocol@D@detail@nlohmann@@@std@@QEAA@XZ 0000000140005030 f i bento_sdk:asset_database.obj
 0001:00004140       ??1TAssetDatabase@bento@@QEAA@XZ 0000000140005140 f   bento_sdk:asset_database.obj
 0001:00004180       ??1_Ref_count_base@std@@UEAA@XZ 0000000140005180 f i bento_sdk:asset_database.obj
 0001:00004190       ??1exception@stdext@@UEAA@XZ 0000000140005190 f i bento_sdk:asset_database.obj
 0001:000041a0       ??1other_error@detail@nlohmann@@UEAA@XZ 00000001400051a0 f i bento_sdk:asset_database.obj
 0001:000041b0       ??1type_error@detail@nlohmann@@UEAA@XZ 00000001400051b0 f i bento_sdk:asset_database.obj
 0001:000041c0       ??4?$Vector@D@bento@@QEAAXAEBV01@@Z 00000001400051c0 f i bento_sdk:asset_database.obj
 0001:00004220       ??A?$basic_json@Vmap@std@@Vvector@2@V?$basic_string@DU?$char_traits@D@std@@V?$allocator@D@2@@2@_N_J_KNVallocator@2@Uadl_serializer@nlohmann@@@nlohmann@@QEAAAEAV01@AEBV?$basic_string@DU?$char_traits@D@std@@V?$allocator@D@2@@std@@@Z 0000000140005220 f i bento_sdk:asset_database.obj
 0001:000043d0       ??_D?$basic_stringstream@DU?$char_traits@D@std@@V?$allocator@D@2@@std@@QEAAXXZ 00000001400053d0 f i bento_sdk:asset_database.obj
 0001:00004430       ??_E?$basic_stringstream@DU?$char_traits@D@std@@V?$allocator@D@2@@std@@$4PPPPPPPM@A@EAAPEAXI@Z 0000000140005430 f i bento_sdk:asset_database.obj
 0001:00004440       ??_G?$_Ref_count_obj@V?$output_string_adapter@DV?$basic_string@DU?$char_traits@D@std@@V?$allocator@D@2@@std@@@detail@nlohmann@@@std@@UEAAPEAXI@Z 0000000140005440 f i bento_sdk:asset_database.obj
 0001:00004440       ??_E?$_Ref_count_obj@V?$output_string_adapter@DV?$basic_string@DU?$char_traits@D@std@@V?$allocator@D@2@@std@@@detail@nlohmann@@@std@@UEAAPEAXI@Z 0000000140005440 f i bento_sdk:asset_database.obj
 0001:00004470       ??_E?$basic_stringbuf@DU?$char_traits@D@std@@V?$allocator@D@2@@std@@UEAAPEAXI@Z 0000000140005470 f i bento_sdk:asset_database.obj
 0001:00004470       ??_G?$basic_stringbuf@DU?$char_traits@D@std@@V?$allocator@D@2@@std@@UEAAPEAXI@Z 0000000140005470 f i bento_sdk:asset_database.obj
 0001:000044b0       ??_E?$basic_stringstream@DU?$char_traits@D@std@@V?$allocator@D@2@@std@@UEAAPEAXI@Z 00000001400054b0 f i bento_sdk:asset_database.obj
 0001:000044b0       ??_G?$basic_stringstream@DU?$char_traits@D@std@@V?$allocator@D@2@@std@@UEAAPEAXI@Z 00000001400054b0 f i bento_sdk:asset_database.obj
 0001:00004550       ??_G?$output_adapter_protocol@D@detail@nlohmann@@UEAAPEAXI@Z 0000000140005550 f i bento_sdk:asset_database.obj
 0001:00004550       ??_E?$output_adapter_protocol@D@detail@nlohmann@@UEAAPEAXI@Z 0000000140005550 f i bento_sdk:asset_database.obj
 0001:00004580       ??_E?$output_string_adapter@DV?$basic_string@DU?$char_traits@D@std@@V?$allocator@D@2@@std@@@detail@nlohmann@@UEAAPEAXI@Z 0000000140005580 f i bento_sdk:asset_database.obj
 0001:00004580       ??_G?$output_string_adapter@DV?$basic_string@DU?$char_traits@D@std@@V?$allocator@D@2@@std@@@detail@nlohmann@@UEAAPEAXI@Z 0000000140005580 f i bento_sdk:asset_database.obj
 0001:000045b0       ??_E_Ref_count_base@std@@UEAAPEAXI@Z 00000001400055b0 f i bento_sdk:asset_database.obj
 0001:000045b0       ??_G_Ref_count_base@std@@UEAAPEAXI@Z 00000001400055b0 f i bento_sdk:asset_database.obj
 0001:000045e0       ??_Gexception@detail@nlohmann@@UEAAPEAXI@Z 00000001400055e0 f i bento_sdk:asset_database.obj
 0001:000045e0       ??_Eexception@detail@nlohmann@@UEAAPEAXI@Z 00000001400055e0 f i bento_sdk:asset_database.obj
 0001:00004610       ??_Eexception@stdext@@UEAAPEAXI@Z 0000000140005610 f i bento_sdk:asset_database.obj
 0001:00004610       ??_Gexception@stdext@@UEAAPEAXI@Z 0000000140005610 f i bento_sdk:asset_database.obj
 0001:00004640       ??_Gother_error@detail@nlohmann@@UEAAPEAXI@Z 0000000140005640 f i bento_sdk:asset_database.obj
 0001:00004640       ??_Eother_error@detail@nlohmann@@UEAAPEAXI@Z 0000000140005640 f i bento_sdk:asset_database.obj
 0001:00004670       ??_Eruntime_error@std@@UEAAPEAXI@Z 0000000140005670 f i bento_sdk:asset_database.obj
 0001:00004670       ??_Gruntime_error@std@@UEAAPEAXI@Z 0000000140005670 f i bento_sdk:asset_database.obj
 0001:000046a0       ??_Gtype_error@detail@nlohmann@@UEAAPEAXI@Z 00000001400056a0 f i bento_sdk:asset_database.obj
 0001:000046a0       ??_Etype_error@detail@nlohmann@@UEAAPEAXI@Z 00000001400056a0 f i bento_sdk:asset_database.obj
 0001:000046d0       ?_Become_small@?$basic_string@DU?$char_traits@D@std@@V?$allocator@D@2@@std@@QEAAXXZ 00000001400056d0 f i bento_sdk:asset_database.obj
 0001:00004750       ?_Buy@?$vector@V?$basic_json@Vmap@std@@Vvector@2@V?$basic_string@DU?$char_traits@D@std@@V?$allocator@D@2@@2@_N_J_KNVallocator@2@Uadl_serializer@nlohmann@@@nlohmann@@V?$allocator@V?$basic_json@Vmap@std@@Vvector@2@V?$basic_string@DU?$char_traits@D@std@@V?$allocator@D@2@@2@_N_J_KNVallocator@2@Uadl_serializer@nlohmann@@@nlohmann@@@std@@@std@@AEAA_N_K@Z 0000000140005750 f i bento_sdk:asset_database.obj
 0001:000047c0       ?_Delete_this@?$_Ref_count_obj@V?$output_string_adapter@DV?$basic_string@DU?$char_traits@D@std@@V?$allocator@D@2@@std@@@detail@nlohmann@@@std@@EEAAXXZ 00000001400057c0 f i bento_sdk:asset_database.obj
 0001:000047e0       ?_Destroy@?$_Ref_count_obj@V?$output_string_adapter@DV?$basic_string@DU?$char_traits@D@std@@V?$allocator@D@2@@std@@@detail@nlohmann@@@std@@EEAAXXZ 00000001400057e0 f i bento_sdk:asset_database.obj
 0001:000047f0       ?_Destroy_if_node@?$_Tree@V?$_Tmap_traits@V?$basic_string@DU?$char_traits@D@std@@V?$allocator@D@2@@std@@V?$basic_json@Vmap@std@@Vvector@2@V?$basic_string@DU?$char_traits@D@std@@V?$allocator@D@2@@2@_N_J_KNVallocator@2@Uadl_serializer@nlohmann@@@nlohmann@@U?$less@V?$basic_string@DU?$char_traits@D@std@@V?$allocator@D@2@@std@@@2@V?$allocator@U?$pair@$$CBV?$basic_string@DU?$char_traits@D@std@@V?$allocator@D@2@@std@@V?$basic_json@Vmap@std@@Vvector@2@V?$basic_string@DU?$char_traits@D@std@@V?$allocator@D@2@@2@_N_J_KNVallocator@2@Uadl_serializer@nlohmann@@@nlohmann@@@std@@@2@$0A@@std@@@std@@IEAAXPEAU?$_Tree_node@U?$pair@$$CBV?$basic_string@DU?$char_traits@D@std@@V?$allocator@D@2@@std@@V?$basic_json@Vmap@std@@Vvector@2@V?$basic_string@DU?$char_traits@D@std@@V?$allocator@D@2@@2@_N_J_KNVallocator@2@Uadl_serializer@nlohmann@@@nlohmann@@@std@@PEAX@2@@Z 00000001400057f0 f i bento_sdk:asset_database.obj
 0001:00004830       ?_Doraise@exception@stdext@@MEBAXXZ 0000000140005830 f i bento_sdk:asset_database.obj
 0001:00004840       ?_Doraise@runtime_error@std@@MEBAXXZ 0000000140005840 f i bento_sdk:asset_database.obj
 0001:00004860       ?_Erase@?$_Tree@V?$_Tmap_traits@V?$basic_string@DU?$char_traits@D@std@@V?$allocator@D@2@@std@@V?$basic_json@Vmap@std@@Vvector@2@V?$basic_string@DU?$char_traits@D@std@@V?$allocator@D@2@@2@_N_J_KNVallocator@2@Uadl_serializer@nlohmann@@@nlohmann@@U?$less@V?$basic_string@DU?$char_traits@D@std@@V?$allocator@D@2@@std@@@2@V?$allocator@U?$pair@$$CBV?$basic_string@DU?$char_traits@D@std@@V?$allocator@D@2@@std@@V?$basic_json@Vmap@std@@Vvector@2@V?$basic_string@DU?$char_traits@D@std@@V?$allocator@D@2@@2@_N_J_KNVallocator@2@Uadl_serializer@nlohmann@@@nlohmann@@@std@@@2@$0A@@std@@@std@@IEAAXPEAU?$_Tree_node@U?$pair@$$CBV?$basic_string@DU?$char_traits@D@std@@V?$allocator@D@2@@std@@V?$basic_json@Vmap@std@@Vvector@2@V?$basic_string@DU?$char_traits@D@std@@V?$allocator@D@2@@2@_N_J_KNVallocator@2@Uadl_serializer@nlohmann@@@nlohmann@@@std@@PEAX@2@@Z 0000000140005860 f i bento_sdk:asset_database.obj
 0001:000048e0       ?_Fail@?$_Default_allocate_traits@$00@std@@SAXXZ 00000001400058e0 f i bento_sdk:asset_database.obj
 0001:000048f0       ?_Get_deleter@_Ref_count_base@std@@UEBAPEAXAEBVtype_info@@@Z 00000001400058f0 f i bento_sdk:asset_database.obj
 0001:00004900       ?_Tidy@?$vector@V?$basic_json@Vmap@std@@Vvector@2@V?$basic_string@DU?$char_traits@D@std@@V?$allocator@D@2@@2@_N_J_KNVallocator@2@Uadl_serializer@nlohmann@@@nlohmann@@V?$allocator@V?$basic_json@Vmap@std@@Vvector@2@V?$basic_string@DU?$char_traits@D@std@@V?$allocator@D@2@@2@_N_J_KNVallocator@2@Uadl_serializer@nlohmann@@@nlohmann@@@std@@@std@@AEAAXXZ 0000000140005900 f i bento_sdk:asset_database.obj
 0001:000049d0       ?_Tidy_deallocate@?$basic_string@DU?$char_traits@D@std@@V?$allocator@D@2@@std@@QEAAXXZ 00000001400059d0 f i bento_sdk:asset_database.obj
 0001:00004a50       ?_Xlen@?$basic_string@DU?$char_traits@D@std@@V?$allocator@D@2@@std@@SAXXZ 0000000140005a50 f i bento_sdk:asset_database.obj
 0001:00004a70       ?_Xlength@?$vector@V?$basic_json@Vmap@std@@Vvector@2@V?$basic_string@DU?$char_traits@D@std@@V?$allocator@D@2@@2@_N_J_KNVallocator@2@Uadl_serializer@nlohmann@@@nlohmann@@V?$allocator@V?$basic_json@Vmap@std@@Vvector@2@V?$basic_string@DU?$char_traits@D@std@@V?$allocator@D@2@@2@_N_J_KNVallocator@2@Uadl_serializer@nlohmann@@@nlohmann@@@std@@@std@@CAXXZ 0000000140005a70 f i bento_sdk:asset_database.obj
 0001:00004a90       ?_Xran@?$_String_val@U?$_Simple_types@D@std@@@std@@SAXXZ 0000000140005a90 f i bento_sdk:asset_database.obj
 0001:00004ab0       ?append@?$basic_string@DU?$char_traits@D@std@@V?$allocator@D@2@@std@@QEAAAEAV12@QEBD_K@Z 0000000140005ab0 f i bento_sdk:asset_database.obj
 0001:00004c30       ?append@?$basic_string@DU?$char_traits@D@std@@V?$allocator@D@2@@std@@QEAAAEAV12@_KD@Z 0000000140005c30 f i bento_sdk:asset_database.obj
 0001:00004dc0       ?assign@?$basic_string@DU?$char_traits@D@std@@V?$allocator@D@2@@std@@QEAAAEAV12@QEBD_K@Z 0000000140005dc0 f i bento_sdk:asset_database.obj
 0001:00004ef0       ?back@?$basic_string@DU?$char_traits@D@std@@V?$allocator@D@2@@std@@QEBAAEBDXZ 0000000140005ef0 f i bento_sdk:asset_database.obj
 0001:00004f10       ?clear@?$Vector@UTAsset@bento@@@bento@@QEAAXXZ 0000000140005f10 f i bento_sdk:asset_database.obj
 0001:00004fc0       ?compare@?$basic_string@DU?$char_traits@D@std@@V?$allocator@D@2@@std@@QEBAHAEBV12@@Z 0000000140005fc0 f i bento_sdk:asset_database.obj
 0001:00005030       ?create@other_error@detail@nlohmann@@SA?AV123@HAEBV?$basic_string@DU?$char_traits@D@std@@V?$allocator@D@2@@std@@@Z 0000000140006030 f i bento_sdk:asset_database.obj
 0001:00005240       ?create@type_error@detail@nlohmann@@SA?AV123@HAEBV?$basic_string@DU?$char_traits@D@std@@V?$allocator@D@2@@std@@@Z 0000000140006240 f i bento_sdk:asset_database.obj
 0001:00005450       ?destroy@json_value@?$basic_json@Vmap@std@@Vvector@2@V?$basic_string@DU?$char_traits@D@std@@V?$allocator@D@2@@2@_N_J_KNVallocator@2@Uadl_serializer@nlohmann@@@nlohmann@@QEAAXW4value_t@detail@3@@Z 0000000140006450 f i bento_sdk:asset_database.obj
 0001:00005520       ?dump@?$basic_json@Vmap@std@@Vvector@2@V?$basic_string@DU?$char_traits@D@std@@V?$allocator@D@2@@2@_N_J_KNVallocator@2@Uadl_serializer@nlohmann@@@nlohmann@@QEBA?AV?$basic_string@DU?$char_traits@D@std@@V?$allocator@D@2@@std@@HD_N@Z 0000000140006520 f i bento_sdk:asset_database.obj
 0001:000057a0       ?dump@?$serializer@V?$basic_json@Vmap@std@@Vvector@2@V?$basic_string@DU?$char_traits@D@std@@V?$allocator@D@2@@2@_N_J_KNVallocator@2@Uadl_serializer@nlohmann@@@nlohmann@@@detail@nlohmann@@QEAAXAEBV?$basic_json@Vmap@std@@Vvector@2@V?$basic_string@DU?$char_traits@D@std@@V?$allocator@D@2@@2@_N_J_KNVallocator@2@Uadl_serializer@nlohmann@@@3@_N1II@Z 00000001400067a0 f i bento_sdk:asset_database.obj
 0001:00006010       ?dump_escaped@?$serializer@V?$basic_json@Vmap@std@@Vvector@2@V?$basic_string@DU?$char_traits@D@std@@V?$allocator@D@2@@2@_N_J_KNVallocator@2@Uadl_serializer@nlohmann@@@nlohmann@@@detail@nlohmann@@AEAAXAEBV?$basic_string@DU?$char_traits@D@std@@V?$allocator@D@2@@std@@_N@Z 0000000140007010 f i bento_sdk:asset_database.obj
 0001:00006640       ?format_buffer@dtoa_impl@detail@nlohmann@@YAPEADPEADHHHH@Z 0000000140007640 f i bento_sdk:asset_database.obj
 0001:00006800       ?free@?$Vector@UTAsset@bento@@@bento@@QEAAXXZ 0000000140007800 f i bento_sdk:asset_database.obj
 0001:00006830       ?grisu2@dtoa_impl@detail@nlohmann@@YAXPEADAEAH1Udiyfp@123@22@Z 0000000140007830 f i bento_sdk:asset_database.obj
 0001:00006a80       ?grisu2_digit_gen@dtoa_impl@detail@nlohmann@@YAXPEADAEAH1Udiyfp@123@22@Z 0000000140007a80 f i bento_sdk:asset_database.obj
 0001:00006cd0       ?hex@std@@YAAEAVios_base@1@AEAV21@@Z 0000000140007cd0 f i bento_sdk:asset_database.obj
 0001:00006cf0       ?insert@?$basic_string@DU?$char_traits@D@std@@V?$allocator@D@2@@std@@QEAAAEAV12@_KQEBD0@Z 0000000140007cf0 f i bento_sdk:asset_database.obj
 0001:00006e00       ?insert_asset@TAssetDatabase@bento@@QEAAXPEBD0IAEAV?$Vector@D@2@@Z 0000000140007e00 f   bento_sdk:asset_database.obj
 0001:00006ed0       ?name@exception@detail@nlohmann@@KA?AV?$basic_string@DU?$char_traits@D@std@@V?$allocator@D@2@@std@@AEBV45@H@Z 0000000140007ed0 f i bento_sdk:asset_database.obj
 0001:00007250       ?overflow@?$basic_stringbuf@DU?$char_traits@D@std@@V?$allocator@D@2@@std@@MEAAHH@Z 0000000140008250 f i bento_sdk:asset_database.obj
 0001:000074d0       ?pack_type@bento@@YAXAEAV?$Vector@D@1@AEBUTAsset@1@@Z 00000001400084d0 f   bento_sdk:asset_database.obj
 0001:00007550       ?pack_type@bento@@YAXAEAV?$Vector@D@1@AEBVTAssetDatabase@1@@Z 0000000140008550 f   bento_sdk:asset_database.obj
 0001:00007640       ?pbackfail@?$basic_stringbuf@DU?$char_traits@D@std@@V?$allocator@D@2@@std@@MEAAHH@Z 0000000140008640 f i bento_sdk:asset_database.obj
 0001:00007690       ?push_back@?$basic_string@DU?$char_traits@D@std@@V?$allocator@D@2@@std@@QEAAXD@Z 0000000140008690 f i bento_sdk:asset_database.obj
 0001:000077f0       ?request_asset@TAssetDatabase@bento@@QEBAPEBUTAsset@2@PEBD@Z 00000001400087f0 f   bento_sdk:asset_database.obj
 0001:00007860       ?request_asset@TAssetDatabase@bento@@QEBAPEBUTAsset@2@_K@Z 0000000140008860 f   bento_sdk:asset_database.obj
 0001:00007890       ?reserve@?$Vector@UTAsset@bento@@@bento@@QEAAXI@Z 0000000140008890 f i bento_sdk:asset_database.obj
 0001:00007900       ?resize@?$Vector@UTAsset@bento@@@bento@@QEAAXI@Z 0000000140008900 f i bento_sdk:asset_database.obj
 0001:00007af0       ?seekoff@?$basic_stringbuf@DU?$char_traits@D@std@@V?$allocator@D@2@@std@@MEAA?AV?$fpos@U_Mbstatet@@@2@_JHH@Z 0000000140008af0 f i bento_sdk:asset_database.obj
 0001:00007ca0       ?seekpos@?$basic_stringbuf@DU?$char_traits@D@std@@V?$allocator@D@2@@std@@MEAA?AV?$fpos@U_Mbstatet@@@2@V32@H@Z 0000000140008ca0 f i bento_sdk:asset_database.obj
 0001:00007db0       ?str@?$basic_stringstream@DU?$char_traits@D@std@@V?$allocator@D@2@@std@@QEBA?AV?$basic_string@DU?$char_traits@D@std@@V?$allocator@D@2@@2@XZ 0000000140008db0 f i bento_sdk:asset_database.obj
 0001:00007ea0       ?to_string@bento@@YAXAEAVDynamicString@1@AEBVTAssetDatabase@1@@Z 0000000140008ea0 f   bento_sdk:asset_database.obj
 0001:00008610       ?to_string@std@@YA?AV?$basic_string@DU?$char_traits@D@std@@V?$allocator@D@2@@1@_K@Z 0000000140009610 f i bento_sdk:asset_database.obj
 0001:000086b0       ?type_name@?$basic_json@Vmap@std@@Vvector@2@V?$basic_string@DU?$char_traits@D@std@@V?$allocator@D@2@@2@_N_J_KNVallocator@2@Uadl_serializer@nlohmann@@@nlohmann@@QEBAPEBDXZ 00000001400096b0 f i bento_sdk:asset_database.obj
 0001:00008730       ?underflow@?$basic_stringbuf@DU?$char_traits@D@std@@V?$allocator@D@2@@std@@MEAAHXZ 0000000140009730 f i bento_sdk:asset_database.obj
 0001:000087a0       ?unpack_type@bento@@YAXAEAPEBDAEAUTAsset@1@@Z 00000001400097a0 f   bento_sdk:asset_database.obj
 0001:00008830       ?unpack_type@bento@@YA_NAEAPEBDAEAVTAssetDatabase@1@@Z 0000000140009830 f   bento_sdk:asset_database.obj
 0001:00008940       ?uppercase@std@@YAAEAVios_base@1@AEAV21@@Z 0000000140009940 f i bento_sdk:asset_database.obj
 0001:00008950       ?what@exception@detail@nlohmann@@UEBAPEBDXZ 0000000140009950 f i bento_sdk:asset_database.obj
 0001:00008960       ?what@exception@stdext@@UEBAPEBDXZ 0000000140009960 f i bento_sdk:asset_database.obj
 0001:00008980       ?write_character@?$output_string_adapter@DV?$basic_string@DU?$char_traits@D@std@@V?$allocator@D@2@@std@@@detail@nlohmann@@UEAAXD@Z 0000000140009980 f i bento_sdk:asset_database.obj
 0001:00008990       ?write_characters@?$output_string_adapter@DV?$basic_string@DU?$char_traits@D@std@@V?$allocator@D@2@@std@@@detail@nlohmann@@UEAAXPEBD_K@Z 0000000140009990 f i bento_sdk:asset_database.obj
 0001:000089a0       __local_stdio_printf_options 00000001400099a0 f i bento_sdk:asset_database.obj
 0001:000089b0       snprintf                   00000001400099b0 f i bento_sdk:asset_database.obj
 0001:00008a10       ?default_logger@bento@@YAPEAVILogger@1@XZ 0000000140009a10 f   bento_sdk:log.obj
 0001:00008a20       ?reset_logger@bento@@YAXXZ 0000000140009a20 f   bento_sdk:log.obj
 0001:00008a30       ?set_default_logger@bento@@YAXPEAVILogger@1@@Z 0000000140009a30 f   bento_sdk:log.obj
 0001:00008a40       ?add_extension@path@bento@@YA?AVDynamicString@2@PEBD0AEAVIAllocator@2@@Z 0000000140009a40 f   bento_sdk:file_system.obj
 0001:00008a60       ?collect_files_with_extension@file_system@bento@@YAXPEBD0AEAV?$Vector@VDynamicString@bento@@@2@@Z 0000000140009a60 f   bento_sdk:file_system.obj
 0001:00008f40       ?directory@path@bento@@YA?AVDynamicString@2@PEBDAEAVIAllocator@2@@Z 0000000140009f40 f   bento_sdk:file_system.obj
 0001:00008fb0       ?extension@path@bento@@YA?AVDynamicString@2@PEBDAEAVIAllocator@2@@Z 0000000140009fb0 f   bento_sdk:file_system.obj
 0001:00009040       ?filename@path@bento@@YA?AVDynamicString@2@PEBDAEAVIAllocator@2@@Z 000000014000a040 f   bento_sdk:file_system.obj
 0001:000090f0       ?internal_join@path@bento@@YA?AVDynamicString@2@PEBD0DAEAVIAllocator@2@@Z 000000014000a0f0 f i bento_sdk:file_system.obj
 0001:000091a0       ?join@path@bento@@YA?AVDynamicString@2@PEBD0AEAVIAllocator@2@@Z 000000014000a1a0 f   bento_sdk:file_system.obj
 0001:000091c0       ?path_is_file@file_system@bento@@YA_NPEBD@Z 000000014000a1c0 f   bento_sdk:file_system.obj
 0001:00009210       ?push_back@?$Vector@D@bento@@QEAAXAEBD@Z 000000014000a210 f i bento_sdk:file_system.obj
 0001:00009260       ?push_back@?$Vector@VDynamicString@bento@@@bento@@QEAAXAEBVDynamicString@2@@Z 000000014000a260 f i bento_sdk:file_system.obj
 0001:00009320       ?read_file@bento@@YA_NPEBDAEAV?$Vector@D@1@W4FileType@1@@Z 000000014000a320 f   bento_sdk:file_system.obj
 0001:00009430       ?strip_extension@path@bento@@YA?AVDynamicString@2@PEBDAEAVIAllocator@2@@Z 000000014000a430 f   bento_sdk:file_system.obj
 0001:000094a0       ?write_file@bento@@YA_NPEBD0IW4FileType@1@@Z 000000014000a4a0 f   bento_sdk:file_system.obj
 0001:00009800       ?pack_buffer@bento@@YAXAEAV?$Vector@D@1@IPEBD@Z 000000014000a800 f   bento_sdk:stream.obj
 0001:000098b0       ?unpack_buffer@bento@@YAXAEAPEBDIPEAD@Z 000000014000a8b0 f   bento_sdk:stream.obj
 0001:000098f0       ??0DiskSerializer@bento@@QEAA@AEAVIAllocator@1@PEBD@Z 000000014000a8f0 f   bento_sdk:disk_serializer.obj
 0001:00009920       ?internal_read_buffer@DiskSerializer@bento@@AEAA_NAEAV?$Vector@D@2@PEBD1@Z 000000014000a920 f   bento_sdk:disk_serializer.obj
 0001:00009a10       ?internal_read_string@DiskSerializer@bento@@AEAA_NAEAVDynamicString@2@PEBD1@Z 000000014000aa10 f   bento_sdk:disk_serializer.obj
 0001:00009b60       ?internal_write_buffer@DiskSerializer@bento@@AEAA_NAEBV?$Vector@D@2@PEBD1@Z 000000014000ab60 f   bento_sdk:disk_serializer.obj
 0001:00009c50       ?internal_write_string@DiskSerializer@bento@@AEAA_NAEBVDynamicString@2@PEBD1@Z 000000014000ac50 f   bento_sdk:disk_serializer.obj
 0001:00009d60       ??0SystemAllocator@bento@@QEAA@XZ 000000014000ad60 f   bento_sdk:system_allocator.obj
 0001:00009d90       ??1SystemAllocator@bento@@UEAA@XZ 000000014000ad90 f   bento_sdk:system_allocator.obj
 0001:00009da0       ??_GSystemAllocator@bento@@UEAAPEAXI@Z 000000014000ada0 f i bento_sdk:system_allocator.obj
 0001:00009da0       ??_ESystemAllocator@bento@@UEAAPEAXI@Z 000000014000ada0 f i bento_sdk:system_allocator.obj
 0001:00009de0       ?allocate@SystemAllocator@bento@@UEAAPEAX_K0@Z 000000014000ade0 f   bento_sdk:system_allocator.obj
 0001:00009df0       ?deallocate@SystemAllocator@bento@@UEAAXPEAX@Z 000000014000adf0 f   bento_sdk:system_allocator.obj
 0001:00009e00       ?reallocate@SystemAllocator@bento@@UEAAPEAXPEAX_K11@Z 000000014000ae00 f   bento_sdk:system_allocator.obj
 0001:00009e80       ?murmur_hash@bento@@YAIPEBXII@Z 000000014000ae80 f   bento_sdk:hash.obj
 0001:00009f10       ?murmur_hash_64@bento@@YA_KPEBXII@Z 000000014000af10 f   bento_sdk:hash.obj
 0001:0000a030       ??$?6U?$char_traits@D@std@@@std@@YAAEAV?$basic_ostream@DU?$char_traits@D@std@@@0@AEAV10@PEBD@Z 000000014000b030 f i bento_sdk:system_logger.obj
 0001:0000a200       ??0SystemLogger@bento@@QEAA@XZ 000000014000b200 f   bento_sdk:system_logger.obj
 0001:0000a210       ??1ILogger@bento@@UEAA@XZ  000000014000b210 f i bento_sdk:system_logger.obj
 0001:0000a220       ??1SystemLogger@bento@@UEAA@XZ 000000014000b220 f   bento_sdk:system_logger.obj
 0001:0000a230       ??1_Sentry_base@?$basic_ostream@DU?$char_traits@D@std@@@std@@QEAA@XZ 000000014000b230 f i bento_sdk:system_logger.obj
 0001:0000a260       ??1sentry@?$basic_ostream@DU?$char_traits@D@std@@@std@@QEAA@XZ 000000014000b260 f i bento_sdk:system_logger.obj
 0001:0000a2a0       ??_EILogger@bento@@UEAAPEAXI@Z 000000014000b2a0 f i bento_sdk:system_logger.obj
 0001:0000a2a0       ??_GILogger@bento@@UEAAPEAXI@Z 000000014000b2a0 f i bento_sdk:system_logger.obj
 0001:0000a2d0       ??_GSystemLogger@bento@@UEAAPEAXI@Z 000000014000b2d0 f i bento_sdk:system_logger.obj
 0001:0000a2d0       ??_ESystemLogger@bento@@UEAAPEAXI@Z 000000014000b2d0 f i bento_sdk:system_logger.obj
 0001:0000a300       ?level_to_string@bento@@YAPEBDW4Type@LogLevel@1@@Z 000000014000b300 f   bento_sdk:system_logger.obj
 0001:0000a340       ?log@SystemLogger@bento@@UEAAXW4Type@LogLevel@2@PEBD1@Z 000000014000b340 f   bento_sdk:system_logger.obj
 0001:0000a3f0       ??0IAllocator@bento@@QEAA@XZ 000000014000b3f0 f   bento_sdk:allocator.obj
 0001:0000a400       ??1IAllocator@bento@@UEAA@XZ 000000014000b400 f   bento_sdk:allocator.obj
 0001:0000a410       ??_EIAllocator@bento@@UEAAPEAXI@Z 000000014000b410 f i bento_sdk:allocator.obj
 0001:0000a410       ??_GIAllocator@bento@@UEAAPEAXI@Z 000000014000b410 f i bento_sdk:allocator.obj
 0001:0000a43b       ?_Xbad_alloc@std@@YAXXZ    000000014000b43b f   msvcprt:MSVCP140.dll
 0001:0000a441       _Mbrtowc                   000000014000b441 f   msvcprt:MSVCP140.dll
 0001:0000a447       ?_Getcvt@_Locinfo@std@@QEBA?AU_Cvtvec@@XZ 000000014000b447 f   msvcprt:MSVCP140.dll
 0001:0000a44d       ?_W_Getdays@_Locinfo@std@@QEBAPEBGXZ 000000014000b44d f   msvcprt:MSVCP140.dll
 0001:0000a453       ?_W_Getmonths@_Locinfo@std@@QEBAPEBGXZ 000000014000b453 f   msvcprt:MSVCP140.dll
 0001:0000a4f0       __std_reverse_trivially_swappable_1 000000014000b4f0 f   msvcprt:vector_algorithms.obj
 0001:0000a5cc       __std_reverse_trivially_swappable_2 000000014000b5cc f   msvcprt:vector_algorithms.obj
 0001:0000a6ac       __std_reverse_trivially_swappable_4 000000014000b6ac f   msvcprt:vector_algorithms.obj
 0001:0000a770       __std_reverse_trivially_swappable_8 000000014000b770 f   msvcprt:vector_algorithms.obj
 0001:0000a82a       ?_Xlength_error@std@@YAXPEBD@Z 000000014000b82a f   msvcprt:MSVCP140.dll
 0001:0000a830       ?_Xout_of_range@std@@YAXPEBD@Z 000000014000b830 f   msvcprt:MSVCP140.dll
 0001:0000a836       ??0?$basic_streambuf@DU?$char_traits@D@std@@@std@@IEAA@XZ 000000014000b836 f   msvcprt:MSVCP140.dll
 0001:0000a83c       ??1?$basic_streambuf@DU?$char_traits@D@std@@@std@@UEAA@XZ 000000014000b83c f   msvcprt:MSVCP140.dll
 0001:0000a842       ??1?$basic_ios@DU?$char_traits@D@std@@@std@@UEAA@XZ 000000014000b842 f   msvcprt:MSVCP140.dll
 0001:0000a848       ??0?$basic_ios@DU?$char_traits@D@std@@@std@@IEAA@XZ 000000014000b848 f   msvcprt:MSVCP140.dll
 0001:0000a84e       ??6?$basic_ostream@DU?$char_traits@D@std@@@std@@QEAAAEAV01@P6AAEAVios_base@1@AEAV21@@Z@Z 000000014000b84e f   msvcprt:MSVCP140.dll
 0001:0000a854       ??6?$basic_ostream@DU?$char_traits@D@std@@@std@@QEAAAEAV01@H@Z 000000014000b854 f   msvcprt:MSVCP140.dll
 0001:0000a85a       ??0?$basic_iostream@DU?$char_traits@D@std@@@std@@QEAA@PEAV?$basic_streambuf@DU?$char_traits@D@std@@@1@@Z 000000014000b85a f   msvcprt:MSVCP140.dll
 0001:0000a860       ??1?$basic_iostream@DU?$char_traits@D@std@@@std@@UEAA@XZ 000000014000b860 f   msvcprt:MSVCP140.dll
 0001:0000a866       ?setw@std@@YA?AU?$_Smanip@_J@1@_J@Z 000000014000b866 f   msvcprt:MSVCP140.dll
 0001:0000a86c       ?_Lock@?$basic_streambuf@DU?$char_traits@D@std@@@std@@UEAAXXZ 000000014000b86c f   msvcprt:MSVCP140.dll
 0001:0000a872       ?_Unlock@?$basic_streambuf@DU?$char_traits@D@std@@@std@@UEAAXXZ 000000014000b872 f   msvcprt:MSVCP140.dll
 0001:0000a878       ?imbue@?$basic_streambuf@DU?$char_traits@D@std@@@std@@MEAAXAEBVlocale@2@@Z 000000014000b878 f   msvcprt:MSVCP140.dll
 0001:0000a87e       ?setbuf@?$basic_streambuf@DU?$char_traits@D@std@@@std@@MEAAPEAV12@PEAD_J@Z 000000014000b87e f   msvcprt:MSVCP140.dll
 0001:0000a884       ?showmanyc@?$basic_streambuf@DU?$char_traits@D@std@@@std@@MEAA_JXZ 000000014000b884 f   msvcprt:MSVCP140.dll
 0001:0000a88a       ?sync@?$basic_streambuf@DU?$char_traits@D@std@@@std@@MEAAHXZ 000000014000b88a f   msvcprt:MSVCP140.dll
 0001:0000a890       ?uflow@?$basic_streambuf@DU?$char_traits@D@std@@@std@@MEAAHXZ 000000014000b890 f   msvcprt:MSVCP140.dll
 0001:0000a896       ?xsgetn@?$basic_streambuf@DU?$char_traits@D@std@@@std@@MEAA_JPEAD_J@Z 000000014000b896 f   msvcprt:MSVCP140.dll
 0001:0000a89c       ?xsputn@?$basic_streambuf@DU?$char_traits@D@std@@@std@@MEAA_JPEBD_J@Z 000000014000b89c f   msvcprt:MSVCP140.dll
 0001:0000a8a2       ?sputc@?$basic_streambuf@DU?$char_traits@D@std@@@std@@QEAAHD@Z 000000014000b8a2 f   msvcprt:MSVCP140.dll
 0001:0000a8a8       ?sputn@?$basic_streambuf@DU?$char_traits@D@std@@@std@@QEAA_JPEBD_J@Z 000000014000b8a8 f   msvcprt:MSVCP140.dll
 0001:0000a8ae       ?setstate@?$basic_ios@DU?$char_traits@D@std@@@std@@QEAAXH_N@Z 000000014000b8ae f   msvcprt:MSVCP140.dll
 0001:0000a8b4       ?_Osfx@?$basic_ostream@DU?$char_traits@D@std@@@std@@QEAAXXZ 000000014000b8b4 f   msvcprt:MSVCP140.dll
 0001:0000a8ba       ?flush@?$basic_ostream@DU?$char_traits@D@std@@@std@@QEAAAEAV12@XZ 000000014000b8ba f   msvcprt:MSVCP140.dll
 0001:0000a8c0       ??3@YAXPEAX_K@Z            000000014000b8c0 f   MSVCRT:delete_scalar_size.obj
 0001:0000ab44       ?configure_argv@__scrt_narrow_argv_policy@@SAHXZ 000000014000bb44 f i MSVCRT:exe_main.obj
 0001:0000ab58       ?initialize_environment@__scrt_narrow_environment_policy@@SAHXZ 000000014000bb58 f i MSVCRT:exe_main.obj
 0001:0000ab98       ?set_app_type@__scrt_main_policy@@SAXXZ 000000014000bb98 f i MSVCRT:exe_main.obj
 0001:0000aba4       ?set_commode@__scrt_file_policy@@SAXXZ 000000014000bba4 f i MSVCRT:exe_main.obj
 0001:0000abc0       ?set_fmode@__scrt_file_policy@@SAXXZ 000000014000bbc0 f i MSVCRT:exe_main.obj
 0001:0000abd4       mainCRTStartup             000000014000bbd4 f   MSVCRT:exe_main.obj
 0001:0000abe8       __GSHandlerCheck           000000014000bbe8 f   MSVCRT:_gshandler_.obj
 0001:0000ac08       __GSHandlerCheckCommon     000000014000bc08 f   MSVCRT:_gshandler_.obj
 0001:0000ac80       __security_check_cookie    000000014000bc80 f   MSVCRT:_amdsecgs_.obj
 0001:0000aca4       ??$__crt_fast_decode_pointer@PEAP6AXXZ@@YAPEAP6AXXZQEAP6AXXZ@Z 000000014000bca4 f i MSVCRT:utility.obj
 0001:0000acbc       ??$__crt_fast_encode_pointer@PEAP6AXXZ@@YAPEAP6AXXZQEAP6AXXZ@Z 000000014000bcbc f i MSVCRT:utility.obj
 0001:0000acdc       ?__crt_rotate_pointer_value@@YA_K_KH@Z 000000014000bcdc f i MSVCRT:utility.obj
 0001:0000ad64       NtCurrentTeb               000000014000bd64 f i MSVCRT:utility.obj
 0001:0000ad70       __scrt_acquire_startup_lock 000000014000bd70 f   MSVCRT:utility.obj
 0001:0000adac       __scrt_dllmain_after_initialize_c 000000014000bdac f   MSVCRT:utility.obj
 0001:0000ade0       __scrt_dllmain_before_initialize_c 000000014000bde0 f   MSVCRT:utility.obj
 0001:0000adf8       __scrt_dllmain_crt_thread_attach 000000014000bdf8 f   MSVCRT:utility.obj
 0001:0000ae20       __scrt_dllmain_crt_thread_detach 000000014000be20 f   MSVCRT:utility.obj
 0001:0000ae38       __scrt_dllmain_exception_filter 000000014000be38 f   MSVCRT:utility.obj
 0001:0000ae9c       __scrt_dllmain_uninitialize_c 000000014000be9c f   MSVCRT:utility.obj
 0001:0000aecc       __scrt_dllmain_uninitialize_critical 000000014000becc f   MSVCRT:utility.obj
 0001:0000aee0       __scrt_initialize_crt      000000014000bee0 f   MSVCRT:utility.obj
 0001:0000af2c       __scrt_initialize_onexit_tables 000000014000bf2c f   MSVCRT:utility.obj
 0001:0000b00c       __scrt_is_nonwritable_in_current_image 000000014000c00c f   MSVCRT:utility.obj
 0001:0000b0a8       __scrt_release_startup_lock 000000014000c0a8 f   MSVCRT:utility.obj
 0001:0000b0cc       __scrt_uninitialize_crt    000000014000c0cc f   MSVCRT:utility.obj
 0001:0000b0f8       _onexit                    000000014000c0f8 f   MSVCRT:utility.obj
 0001:0000b148       at_quick_exit              000000014000c148 f   MSVCRT:utility.obj
 0001:0000b180       atexit                     000000014000c180 f   MSVCRT:utility.obj
 0001:0000b198       ??_M@YAXPEAX_K1P6AX0@Z@Z   000000014000c198 f   MSVCRT:ehvecdtr.obj
 0001:0000b204       ??_M@YAXPEAX_KHP6AX0@Z@Z   000000014000c204 f   MSVCRT:ehvecdtr.obj
 0001:0000b228       ?__ArrayUnwind@@YAXPEAX_K1P6AX0@Z@Z 000000014000c228 f   MSVCRT:ehvecdtr.obj
 0001:0000b28c       ??2@YAPEAX_K@Z             000000014000c28c f   MSVCRT:new_scalar.obj
 0001:0000b2c8       __GSHandlerCheck_EH        000000014000c2c8 f   MSVCRT:gshandlereh.obj
 0001:0000b348       ??1type_info@@UEAA@XZ      000000014000c348 f   MSVCRT:std_type_info_static.obj
 0001:0000b354       ??_Etype_info@@UEAAPEAXI@Z 000000014000c354 f i MSVCRT:std_type_info_static.obj
 0001:0000b354       ??_Gtype_info@@UEAAPEAXI@Z 000000014000c354 f i MSVCRT:std_type_info_static.obj
 0001:0000b380       __isa_available_init       000000014000c380 f   MSVCRT:_cpu_disp_.obj
 0001:0000b53c       ??3@YAXPEAX@Z              000000014000c53c f   MSVCRT:delete_scalar.obj
 0001:0000b5b0       __security_init_cookie     000000014000c5b0 f   MSVCRT:gs_support.obj
 0001:0000b660       _matherr                   000000014000c660 f   MSVCRT:matherr.obj
 0001:0000b664       _get_startup_argv_mode     000000014000c664 f   MSVCRT:argv_mode.obj
 0001:0000b66c       _get_startup_commit_mode   000000014000c66c f   MSVCRT:commit_mode.obj
 0001:0000b670       _get_startup_file_mode     000000014000c670 f   MSVCRT:file_mode.obj
 0001:0000b678       _get_startup_new_mode      000000014000c678 f   MSVCRT:new_mode.obj
 0001:0000b67c       _get_startup_thread_locale_mode 000000014000c67c f   MSVCRT:thread_locale.obj
 0001:0000b680       ?__scrt_initialize_type_info@@YAXXZ 000000014000c680 f   MSVCRT:tncleanup.obj
 0001:0000b690       ?__scrt_uninitialize_type_info@@YAXXZ 000000014000c690 f   MSVCRT:tncleanup.obj
 0001:0000b69c       _should_initialize_environment 000000014000c69c f   MSVCRT:env_mode.obj
 0001:0000b6a0       _initialize_invalid_parameter_handler 000000014000c6a0 f   MSVCRT:invalid_parameter_handler.obj
 0001:0000b6a4       _initialize_denormal_control 000000014000c6a4 f   MSVCRT:denormal_control.obj
 0001:0000b6a8       __local_stdio_scanf_options 000000014000c6a8 f i MSVCRT:default_local_stdio_options.obj
 0001:0000b6b0       __scrt_initialize_default_local_stdio_options 000000014000c6b0 f   MSVCRT:default_local_stdio_options.obj
 0001:0000b6cc       __scrt_is_user_matherr_present 000000014000c6cc f   MSVCRT:matherr_detection.obj
 0001:0000b6d8       __scrt_get_dyn_tls_init_callback 000000014000c6d8 f   MSVCRT:dyn_tls_init.obj
 0001:0000b6e0       __scrt_get_dyn_tls_dtor_callback 000000014000c6e0 f   MSVCRT:dyn_tls_dtor.obj
 0001:0000b6e8       __crt_debugger_hook        000000014000c6e8 f   MSVCRT:utility_desktop.obj
 0001:0000b6f0       __scrt_fastfail            000000014000c6f0 f   MSVCRT:utility_desktop.obj
 0001:0000b83c       __scrt_get_show_window_mode 000000014000c83c f   MSVCRT:utility_desktop.obj
 0001:0000b878       __scrt_initialize_winrt    000000014000c878 f   MSVCRT:utility_desktop.obj
 0001:0000b87c       __scrt_is_managed_app      000000014000c87c f   MSVCRT:utility_desktop.obj
 0001:0000b8d0       __scrt_set_unhandled_exception_filter 000000014000c8d0 f   MSVCRT:utility_desktop.obj
 0001:0000b8e0       __scrt_unhandled_exception_filter 000000014000c8e0 f   MSVCRT:utility_desktop.obj
 0001:0000b918       _RTC_Initialize            000000014000c918 f   MSVCRT:_initsect_.obj
 0001:0000b964       _RTC_Terminate             000000014000c964 f   MSVCRT:_initsect_.obj
 0001:0000b9b0       _guard_check_icall         000000014000c9b0 f i MSVCRT:checkcfg.obj
 0001:0000b9b8       __raise_securityfailure    000000014000c9b8 f   MSVCRT:gs_report.obj
 0001:0000b9ec       __report_gsfailure         000000014000c9ec f   MSVCRT:gs_report.obj
 0001:0000bac0       __report_rangecheckfailure 000000014000cac0 f   MSVCRT:gs_report.obj
 0001:0000bad4       __report_securityfailure   000000014000cad4 f   MSVCRT:gs_report.obj
 0001:0000bb70       __report_securityfailureEx 000000014000cb70 f   MSVCRT:gs_report.obj
 0001:0000bd64       __scrt_is_ucrt_dll_in_use  000000014000cd64 f   MSVCRT:ucrt_detection.obj
 0001:0000bd70       ??0bad_alloc@std@@AEAA@QEBD@Z 000000014000cd70 f i MSVCRT:throw_bad_alloc.obj
 0001:0000bd88       ??0bad_alloc@std@@QEAA@AEBV01@@Z 000000014000cd88 f i MSVCRT:throw_bad_alloc.obj
 0001:0000bdc8       ??0bad_alloc@std@@QEAA@XZ  000000014000cdc8 f i MSVCRT:throw_bad_alloc.obj
 0001:0000bde8       ??0bad_array_new_length@std@@QEAA@AEBV01@@Z 000000014000cde8 f i MSVCRT:throw_bad_alloc.obj
 0001:0000be28       ??0bad_array_new_length@std@@QEAA@XZ 000000014000ce28 f i MSVCRT:throw_bad_alloc.obj
 0001:0000be48       ??0exception@std@@QEAA@AEBV01@@Z 000000014000ce48 f i MSVCRT:throw_bad_alloc.obj
 0001:0000be80       ??0exception@std@@QEAA@QEBDH@Z 000000014000ce80 f i MSVCRT:throw_bad_alloc.obj
 0001:0000be98       ??1bad_alloc@std@@UEAA@XZ  000000014000ce98 f i MSVCRT:throw_bad_alloc.obj
 0001:0000beac       ??1bad_array_new_length@std@@UEAA@XZ 000000014000ceac f i MSVCRT:throw_bad_alloc.obj
 0001:0000bec0       ??1exception@std@@UEAA@XZ  000000014000cec0 f i MSVCRT:throw_bad_alloc.obj
 0001:0000bed4       ??_Ebad_alloc@std@@UEAAPEAXI@Z 000000014000ced4 f i MSVCRT:throw_bad_alloc.obj
 0001:0000bed4       ??_Gbad_alloc@std@@UEAAPEAXI@Z 000000014000ced4 f i MSVCRT:throw_bad_alloc.obj
 0001:0000bf18       ??_Ebad_array_new_length@std@@UEAAPEAXI@Z 000000014000cf18 f i MSVCRT:throw_bad_alloc.obj
 0001:0000bf18       ??_Gbad_array_new_length@std@@UEAAPEAXI@Z 000000014000cf18 f i MSVCRT:throw_bad_alloc.obj
 0001:0000bf5c       ??_Eexception@std@@UEAAPEAXI@Z 000000014000cf5c f i MSVCRT:throw_bad_alloc.obj
 0001:0000bf5c       ??_Gexception@std@@UEAAPEAXI@Z 000000014000cf5c f i MSVCRT:throw_bad_alloc.obj
 0001:0000bfa0       ?__scrt_throw_std_bad_alloc@@YAXXZ 000000014000cfa0 f   MSVCRT:throw_bad_alloc.obj
 0001:0000bfc0       ?__scrt_throw_std_bad_array_new_length@@YAXXZ 000000014000cfc0 f   MSVCRT:throw_bad_alloc.obj
 0001:0000bfe0       ?what@exception@std@@UEBAPEBDXZ 000000014000cfe0 f i MSVCRT:throw_bad_alloc.obj
 0001:0000bff4       _guard_check_icall_nop     000000014000cff4 f i MSVCRT:guard_support.obj
 0001:0000bff8       ReadNoFence64              000000014000cff8 f i MSVCRT:guard_support.obj
 0001:0000bffc       ReadPointerNoFence         000000014000cffc f i MSVCRT:guard_support.obj
 0001:0000c000       __guard_ss_common_verify_stub 000000014000d000 f i MSVCRT:guard_support.obj
 0001:0000c004       _guard_icall_checks_enforced 000000014000d004 f i MSVCRT:guard_support.obj
 0001:0000c01c       _guard_rf_checks_enforced  000000014000d01c f i MSVCRT:guard_support.obj
 0001:0000c040       __std_terminate            000000014000d040 f   vcruntime:VCRUNTIME140.dll
 0001:0000c046       __CxxFrameHandler3         000000014000d046 f   vcruntime:VCRUNTIME140.dll
 0001:0000c04c       memcpy                     000000014000d04c f   vcruntime:VCRUNTIME140.dll
 0001:0000c052       _purecall                  000000014000d052 f   vcruntime:VCRUNTIME140.dll
 0001:0000c058       memmove                    000000014000d058 f   vcruntime:VCRUNTIME140.dll
 0001:0000c05e       _CxxThrowException         000000014000d05e f   vcruntime:VCRUNTIME140.dll
 0001:0000c064       memcmp                     000000014000d064 f   vcruntime:VCRUNTIME140.dll
 0001:0000c06a       memset                     000000014000d06a f   vcruntime:VCRUNTIME140.dll
 0001:0000c070       __C_specific_handler       000000014000d070 f   vcruntime:VCRUNTIME140.dll
 0001:0000c076       __std_type_info_destroy_list 000000014000d076 f   vcruntime:VCRUNTIME140.dll
 0001:0000c07c       __std_exception_copy       000000014000d07c f   vcruntime:VCRUNTIME140.dll
 0001:0000c082       __std_exception_destroy    000000014000d082 f   vcruntime:VCRUNTIME140.dll
 0001:0000c088       calloc                     000000014000d088 f   ucrt:api-ms-win-crt-heap-l1-1-0.dll
 0001:0000c08e       tolower                    000000014000d08e f   ucrt:api-ms-win-crt-string-l1-1-0.dll
 0001:0000c094       _invalid_parameter_noinfo_noreturn 000000014000d094 f   ucrt:api-ms-win-crt-runtime-l1-1-0.dll
 0001:0000c09a       _invoke_watson             000000014000d09a f   ucrt:api-ms-win-crt-runtime-l1-1-0.dll
 0001:0000c0a0       _dsign                     000000014000d0a0 f   ucrt:api-ms-win-crt-math-l1-1-0.dll
 0001:0000c0a6       _dtest                     000000014000d0a6 f   ucrt:api-ms-win-crt-math-l1-1-0.dll
 0001:0000c0ac       __stdio_common_vsprintf    000000014000d0ac f   ucrt:api-ms-win-crt-stdio-l1-1-0.dll
 0001:0000c0b2       localeconv                 000000014000d0b2 f   ucrt:api-ms-win-crt-locale-l1-1-0.dll
 0001:0000c0b8       _set_errno                 000000014000d0b8 f   ucrt:api-ms-win-crt-runtime-l1-1-0.dll
 0001:0000c0be       free                       000000014000d0be f   ucrt:api-ms-win-crt-heap-l1-1-0.dll
 0001:0000c0c4       malloc                     000000014000d0c4 f   ucrt:api-ms-win-crt-heap-l1-1-0.dll
 0001:0000c0ca       mbstowcs_s                 000000014000d0ca f   ucrt:api-ms-win-crt-convert-l1-1-0.dll
 0001:0000c0d0       wcstombs_s                 000000014000d0d0 f   ucrt:api-ms-win-crt-convert-l1-1-0.dll
 0001:0000c0d6       fclose                     000000014000d0d6 f   ucrt:api-ms-win-crt-stdio-l1-1-0.dll
 0001:0000c0dc       fopen                      000000014000d0dc f   ucrt:api-ms-win-crt-stdio-l1-1-0.dll
 0001:0000c0e2       fread                      000000014000d0e2 f   ucrt:api-ms-win-crt-stdio-l1-1-0.dll
 0001:0000c0e8       fseek                      000000014000d0e8 f   ucrt:api-ms-win-crt-stdio-l1-1-0.dll
 0001:0000c0ee       ftell                      000000014000d0ee f   ucrt:api-ms-win-crt-stdio-l1-1-0.dll
 0001:0000c0f4       fwrite                     000000014000d0f4 f   ucrt:api-ms-win-crt-stdio-l1-1-0.dll
 0001:0000c0fa       _stat64i32                 000000014000d0fa f   ucrt:api-ms-win-crt-filesystem-l1-1-0.dll
 0001:0000c100       _aligned_free              000000014000d100 f   ucrt:api-ms-win-crt-heap-l1-1-0.dll
 0001:0000c106       _aligned_malloc            000000014000d106 f   ucrt:api-ms-win-crt-heap-l1-1-0.dll
 0001:0000c10c       _seh_filter_exe            000000014000d10c f   ucrt:api-ms-win-crt-runtime-l1-1-0.dll
 0001:0000c112       _set_app_type              000000014000d112 f   ucrt:api-ms-win-crt-runtime-l1-1-0.dll
 0001:0000c118       __setusermatherr           000000014000d118 f   ucrt:api-ms-win-crt-math-l1-1-0.dll
 0001:0000c11e       _configure_narrow_argv     000000014000d11e f   ucrt:api-ms-win-crt-runtime-l1-1-0.dll
 0001:0000c124       _initialize_narrow_environment 000000014000d124 f   ucrt:api-ms-win-crt-runtime-l1-1-0.dll
 0001:0000c12a       _get_initial_narrow_environment 000000014000d12a f   ucrt:api-ms-win-crt-runtime-l1-1-0.dll
 0001:0000c130       _initterm                  000000014000d130 f   ucrt:api-ms-win-crt-runtime-l1-1-0.dll
 0001:0000c136       _initterm_e                000000014000d136 f   ucrt:api-ms-win-crt-runtime-l1-1-0.dll
 0001:0000c13c       exit                       000000014000d13c f   ucrt:api-ms-win-crt-runtime-l1-1-0.dll
 0001:0000c142       _exit                      000000014000d142 f   ucrt:api-ms-win-crt-runtime-l1-1-0.dll
 0001:0000c148       _set_fmode                 000000014000d148 f   ucrt:api-ms-win-crt-stdio-l1-1-0.dll
 0001:0000c14e       __p___argc                 000000014000d14e f   ucrt:api-ms-win-crt-runtime-l1-1-0.dll
 0001:0000c154       __p___argv                 000000014000d154 f   ucrt:api-ms-win-crt-runtime-l1-1-0.dll
 0001:0000c15a       _cexit                     000000014000d15a f   ucrt:api-ms-win-crt-runtime-l1-1-0.dll
 0001:0000c160       _c_exit                    000000014000d160 f   ucrt:api-ms-win-crt-runtime-l1-1-0.dll
 0001:0000c166       _register_thread_local_exe_atexit_callback 000000014000d166 f   ucrt:api-ms-win-crt-runtime-l1-1-0.dll
 0001:0000c16c       _configthreadlocale        000000014000d16c f   ucrt:api-ms-win-crt-locale-l1-1-0.dll
 0001:0000c172       _set_new_mode              000000014000d172 f   ucrt:api-ms-win-crt-heap-l1-1-0.dll
 0001:0000c178       __p__commode               000000014000d178 f   ucrt:api-ms-win-crt-stdio-l1-1-0.dll
 0001:0000c17e       _seh_filter_dll            000000014000d17e f   ucrt:api-ms-win-crt-runtime-l1-1-0.dll
 0001:0000c184       _initialize_onexit_table   000000014000d184 f   ucrt:api-ms-win-crt-runtime-l1-1-0.dll
 0001:0000c18a       _register_onexit_function  000000014000d18a f   ucrt:api-ms-win-crt-runtime-l1-1-0.dll
 0001:0000c190       _execute_onexit_table      000000014000d190 f   ucrt:api-ms-win-crt-runtime-l1-1-0.dll
 0001:0000c196       _crt_atexit                000000014000d196 f   ucrt:api-ms-win-crt-runtime-l1-1-0.dll
 0001:0000c19c       _crt_at_quick_exit         000000014000d19c f   ucrt:api-ms-win-crt-runtime-l1-1-0.dll
 0001:0000c1a2       terminate                  000000014000d1a2 f   ucrt:api-ms-win-crt-runtime-l1-1-0.dll
 0001:0000c1a8       _callnewh                  000000014000d1a8 f   ucrt:api-ms-win-crt-heap-l1-1-0.dll
 0001:0000c1ae       FindClose                  000000014000d1ae f   kernel32:KERNEL32.dll
 0001:0000c1b4       FindFirstFileW             000000014000d1b4 f   kernel32:KERNEL32.dll
 0001:0000c1ba       FindNextFileW              000000014000d1ba f   kernel32:KERNEL32.dll
 0001:0000c1c0       GetFullPathNameW           000000014000d1c0 f   kernel32:KERNEL32.dll
 0001:0000c1c6       QueryPerformanceCounter    000000014000d1c6 f   kernel32:KERNEL32.dll
 0001:0000c1cc       GetCurrentProcessId        000000014000d1cc f   kernel32:KERNEL32.dll
 0001:0000c1d2       GetCurrentThreadId         000000014000d1d2 f   kernel32:KERNEL32.dll
 0001:0000c1d8       GetSystemTimeAsFileTime    000000014000d1d8 f   kernel32:KERNEL32.dll
 0001:0000c1de       InitializeSListHead        000000014000d1de f   kernel32:KERNEL32.dll
 0001:0000c1e4       RtlCaptureContext          000000014000d1e4 f   kernel32:KERNEL32.dll
 0001:0000c1ea       RtlLookupFunctionEntry     000000014000d1ea f   kernel32:KERNEL32.dll
 0001:0000c1f0       RtlVirtualUnwind           000000014000d1f0 f   kernel32:KERNEL32.dll
 0001:0000c1f6       IsDebuggerPresent          000000014000d1f6 f   kernel32:KERNEL32.dll
 0001:0000c1fc       UnhandledExceptionFilter   000000014000d1fc f   kernel32:KERNEL32.dll
 0001:0000c202       SetUnhandledExceptionFilter 000000014000d202 f   kernel32:KERNEL32.dll
 0001:0000c208       GetStartupInfoW            000000014000d208 f   kernel32:KERNEL32.dll
 0001:0000c20e       IsProcessorFeaturePresent  000000014000d20e f   kernel32:KERNEL32.dll
 0001:0000c214       GetModuleHandleW           000000014000d214 f   kernel32:KERNEL32.dll
 0001:0000c21a       GetCurrentProcess          000000014000d21a f   kernel32:KERNEL32.dll
 0001:0000c220       TerminateProcess           000000014000d220 f   kernel32:KERNEL32.dll
 0001:0000c228       __acrt_initialize          000000014000d228 f   MSVCRT:ucrt_stubs.obj
 0001:0000c228       __vcrt_initialize          000000014000d228 f   MSVCRT:ucrt_stubs.obj
 0001:0000c228       __scrt_stub_for_acrt_initialize 000000014000d228 f   MSVCRT:ucrt_stubs.obj
 0001:0000c22c       __acrt_thread_attach       000000014000d22c f   MSVCRT:ucrt_stubs.obj
 0001:0000c22c       __scrt_stub_for_acrt_thread_attach 000000014000d22c f   MSVCRT:ucrt_stubs.obj
 0001:0000c22c       __vcrt_thread_attach       000000014000d22c f   MSVCRT:ucrt_stubs.obj
 0001:0000c230       __scrt_stub_for_acrt_thread_detach 000000014000d230 f   MSVCRT:ucrt_stubs.obj
 0001:0000c230       __acrt_thread_detach       000000014000d230 f   MSVCRT:ucrt_stubs.obj
 0001:0000c230       __vcrt_thread_detach       000000014000d230 f   MSVCRT:ucrt_stubs.obj
 0001:0000c234       __vcrt_uninitialize        000000014000d234 f   MSVCRT:ucrt_stubs.obj
 0001:0000c234       __acrt_uninitialize        000000014000d234 f   MSVCRT:ucrt_stubs.obj
 0001:0000c234       __scrt_stub_for_acrt_uninitialize 000000014000d234 f   MSVCRT:ucrt_stubs.obj
 0001:0000c238       __scrt_stub_for_acrt_uninitialize_critical 000000014000d238 f   MSVCRT:ucrt_stubs.obj
 0001:0000c238       __vcrt_uninitialize_critical 000000014000d238 f   MSVCRT:ucrt_stubs.obj
 0001:0000c238       __acrt_uninitialize_critical 000000014000d238 f   MSVCRT:ucrt_stubs.obj
 0001:0000c23c       _is_c_termination_complete 000000014000d23c f   MSVCRT:ucrt_stubs.obj
 0001:0000c23c       __scrt_stub_for_is_c_termination_complete 000000014000d23c f   MSVCRT:ucrt_stubs.obj
 0001:0000c250       _guard_dispatch_icall_nop  000000014000d250 f   MSVCRT:_guard_dispatch_.obj
 0001:0000c270       __guard_ss_verify_failure  000000014000d270 f   MSVCRT:_rfgfailure_.obj
 0001:0000c27b       __guard_ss_verify_failure_rcx 000000014000d27b     MSVCRT:_rfgfailure_.obj
 0001:0000c281       __guard_ss_verify_failure_rdx 000000014000d281     MSVCRT:_rfgfailure_.obj
 0001:0000c287       __guard_ss_verify_failure_r8 000000014000d287     MSVCRT:_rfgfailure_.obj
 0001:0000c28d       __guard_ss_verify_failure_r9 000000014000d28d     MSVCRT:_rfgfailure_.obj
 0001:0000c293       __guard_ss_verify_failure_r10 000000014000d293     MSVCRT:_rfgfailure_.obj
 0001:0000c2a0       __guard_ss_verify_failure_default 000000014000d2a0 f   MSVCRT:_rfgfailure_.obj
 0001:0000c300       __guard_ss_verify_sp       000000014000d300 f   MSVCRT:_rfgfailure_.obj
 0001:0000c310       __guard_ss_verify_sp_default 000000014000d310 f   MSVCRT:_rfgfailure_.obj
 0002:00000000       __imp_FindClose            000000014000e000     kernel32:KERNEL32.dll
 0002:00000008       __imp_FindFirstFileW       000000014000e008     kernel32:KERNEL32.dll
 0002:00000010       __imp_FindNextFileW        000000014000e010     kernel32:KERNEL32.dll
 0002:00000018       __imp_GetFullPathNameW     000000014000e018     kernel32:KERNEL32.dll
 0002:00000020       __imp_QueryPerformanceCounter 000000014000e020     kernel32:KERNEL32.dll
 0002:00000028       __imp_GetCurrentProcessId  000000014000e028     kernel32:KERNEL32.dll
 0002:00000030       __imp_GetCurrentThreadId   000000014000e030     kernel32:KERNEL32.dll
 0002:00000038       __imp_GetSystemTimeAsFileTime 000000014000e038     kernel32:KERNEL32.dll
 0002:00000040       __imp_InitializeSListHead  000000014000e040     kernel32:KERNEL32.dll
 0002:00000048       __imp_RtlCaptureContext    000000014000e048     kernel32:KERNEL32.dll
 0002:00000050       __imp_RtlLookupFunctionEntry 000000014000e050     kernel32:KERNEL32.dll
 0002:00000058       __imp_RtlVirtualUnwind     000000014000e058     kernel32:KERNEL32.dll
 0002:00000060       __imp_IsDebuggerPresent    000000014000e060     kernel32:KERNEL32.dll
 0002:00000068       __imp_UnhandledExceptionFilter 000000014000e068     kernel32:KERNEL32.dll
 0002:00000070       __imp_SetUnhandledExceptionFilter 000000014000e070     kernel32:KERNEL32.dll
 0002:00000078       __imp_GetStartupInfoW      000000014000e078     kernel32:KERNEL32.dll
 0002:00000080       __imp_IsProcessorFeaturePresent 000000014000e080     kernel32:KERNEL32.dll
 0002:00000088       __imp_GetModuleHandleW     000000014000e088     kernel32:KERNEL32.dll
 0002:00000090       __imp_GetCurrentProcess    000000014000e090     kernel32:KERNEL32.dll
 0002:00000098       __imp_TerminateProcess     000000014000e098     kernel32:KERNEL32.dll
 0002:000000a0       \177KERNEL32_NULL_THUNK_DATA 000000014000e0a0     kernel32:KERNEL32.dll
 0002:000000a8       __imp_?sync@?$basic_streambuf@DU?$char_traits@D@std@@@std@@MEAAHXZ 000000014000e0a8     msvcprt:MSVCP140.dll
 0002:000000b0       __imp_?uflow@?$basic_streambuf@DU?$char_traits@D@std@@@std@@MEAAHXZ 000000014000e0b0     msvcprt:MSVCP140.dll
 0002:000000b8       __imp_?xsgetn@?$basic_streambuf@DU?$char_traits@D@std@@@std@@MEAA_JPEAD_J@Z 000000014000e0b8     msvcprt:MSVCP140.dll
 0002:000000c0       __imp_?xsputn@?$basic_streambuf@DU?$char_traits@D@std@@@std@@MEAA_JPEBD_J@Z 000000014000e0c0     msvcprt:MSVCP140.dll
 0002:000000c8       __imp_?_BADOFF@std@@3_JB   000000014000e0c8     msvcprt:MSVCP140.dll
 0002:000000d0       __imp_?showmanyc@?$basic_streambuf@DU?$char_traits@D@std@@@std@@MEAA_JXZ 000000014000e0d0     msvcprt:MSVCP140.dll
 0002:000000d8       __imp_?sputn@?$basic_streambuf@DU?$char_traits@D@std@@@std@@QEAA_JPEBD_J@Z 000000014000e0d8     msvcprt:MSVCP140.dll
 0002:000000e0       __imp_?setstate@?$basic_ios@DU?$char_traits@D@std@@@std@@QEAAXH_N@Z 000000014000e0e0     msvcprt:MSVCP140.dll
 0002:000000e8       __imp_?_Osfx@?$basic_ostream@DU?$char_traits@D@std@@@std@@QEAAXXZ 000000014000e0e8     msvcprt:MSVCP140.dll
 0002:000000f0       __imp_?flush@?$basic_ostream@DU?$char_traits@D@std@@@std@@QEAAAEAV12@XZ 000000014000e0f0     msvcprt:MSVCP140.dll
 0002:000000f8       __imp_?cout@std@@3V?$basic_ostream@DU?$char_traits@D@std@@@1@A 000000014000e0f8     msvcprt:MSVCP140.dll
 0002:00000100       __imp_?setbuf@?$basic_streambuf@DU?$char_traits@D@std@@@std@@MEAAPEAV12@PEAD_J@Z 000000014000e100     msvcprt:MSVCP140.dll
 0002:00000108       __imp_?imbue@?$basic_streambuf@DU?$char_traits@D@std@@@std@@MEAAXAEBVlocale@2@@Z 000000014000e108     msvcprt:MSVCP140.dll
 0002:00000110       __imp_?_Unlock@?$basic_streambuf@DU?$char_traits@D@std@@@std@@UEAAXXZ 000000014000e110     msvcprt:MSVCP140.dll
 0002:00000118       __imp_?_Lock@?$basic_streambuf@DU?$char_traits@D@std@@@std@@UEAAXXZ 000000014000e118     msvcprt:MSVCP140.dll
 0002:00000120       __imp_?setw@std@@YA?AU?$_Smanip@_J@1@_J@Z 000000014000e120     msvcprt:MSVCP140.dll
 0002:00000128       __imp_??1?$basic_iostream@DU?$char_traits@D@std@@@std@@UEAA@XZ 000000014000e128     msvcprt:MSVCP140.dll
 0002:00000130       __imp_??0?$basic_iostream@DU?$char_traits@D@std@@@std@@QEAA@PEAV?$basic_streambuf@DU?$char_traits@D@std@@@1@@Z 000000014000e130     msvcprt:MSVCP140.dll
 0002:00000138       __imp_??6?$basic_ostream@DU?$char_traits@D@std@@@std@@QEAAAEAV01@H@Z 000000014000e138     msvcprt:MSVCP140.dll
 0002:00000140       __imp_??6?$basic_ostream@DU?$char_traits@D@std@@@std@@QEAAAEAV01@P6AAEAVios_base@1@AEAV21@@Z@Z 000000014000e140     msvcprt:MSVCP140.dll
 0002:00000148       __imp_??0?$basic_ios@DU?$char_traits@D@std@@@std@@IEAA@XZ 000000014000e148     msvcprt:MSVCP140.dll
 0002:00000150       __imp_??1?$basic_ios@DU?$char_traits@D@std@@@std@@UEAA@XZ 000000014000e150     msvcprt:MSVCP140.dll
 0002:00000158       __imp_??1?$basic_streambuf@DU?$char_traits@D@std@@@std@@UEAA@XZ 000000014000e158     msvcprt:MSVCP140.dll
 0002:00000160       __imp_??0?$basic_streambuf@DU?$char_traits@D@std@@@std@@IEAA@XZ 000000014000e160     msvcprt:MSVCP140.dll
 0002:00000168       __imp_?_Xout_of_range@std@@YAXPEBD@Z 000000014000e168     msvcprt:MSVCP140.dll
 0002:00000170       __imp_?_Xlength_error@std@@YAXPEBD@Z 000000014000e170     msvcprt:MSVCP140.dll
 0002:00000178       __imp_?_W_Getmonths@_Locinfo@std@@QEBAPEBGXZ 000000014000e178     msvcprt:MSVCP140.dll
 0002:00000180       __imp_?_W_Getdays@_Locinfo@std@@QEBAPEBGXZ 000000014000e180     msvcprt:MSVCP140.dll
 0002:00000188       __imp_?_Getcvt@_Locinfo@std@@QEBA?AU_Cvtvec@@XZ 000000014000e188     msvcprt:MSVCP140.dll
 0002:00000190       __imp__Mbrtowc             000000014000e190     msvcprt:MSVCP140.dll
 0002:00000198       __imp_?sputc@?$basic_streambuf@DU?$char_traits@D@std@@@std@@QEAAHD@Z 000000014000e198     msvcprt:MSVCP140.dll
 0002:000001a0       __imp_?_Xbad_alloc@std@@YAXXZ 000000014000e1a0     msvcprt:MSVCP140.dll
 0002:000001a8       \177MSVCP140_NULL_THUNK_DATA 000000014000e1a8     msvcprt:MSVCP140.dll
 0002:000001b0       __imp_memset               000000014000e1b0     vcruntime:VCRUNTIME140.dll
 0002:000001b8       __imp___C_specific_handler 000000014000e1b8     vcruntime:VCRUNTIME140.dll
 0002:000001c0       __imp___std_type_info_destroy_list 000000014000e1c0     vcruntime:VCRUNTIME140.dll
 0002:000001c8       __imp___std_exception_copy 000000014000e1c8     vcruntime:VCRUNTIME140.dll
 0002:000001d0       __imp__CxxThrowException   000000014000e1d0     vcruntime:VCRUNTIME140.dll
 0002:000001d8       __imp___std_exception_destroy 000000014000e1d8     vcruntime:VCRUNTIME140.dll
 0002:000001e0       __imp___std_terminate      000000014000e1e0     vcruntime:VCRUNTIME140.dll
 0002:000001e8       __imp___CxxFrameHandler3   000000014000e1e8     vcruntime:VCRUNTIME140.dll
 0002:000001f0       __imp_memcpy               000000014000e1f0     vcruntime:VCRUNTIME140.dll
 0002:000001f8       __imp__purecall            000000014000e1f8     vcruntime:VCRUNTIME140.dll
 0002:00000200       __imp_memmove              000000014000e200     vcruntime:VCRUNTIME140.dll
 0002:00000208       __imp_memcmp               000000014000e208     vcruntime:VCRUNTIME140.dll
 0002:00000210       \177VCRUNTIME140_NULL_THUNK_DATA 000000014000e210     vcruntime:VCRUNTIME140.dll
 0002:00000218       __imp_wcstombs_s           000000014000e218     ucrt:api-ms-win-crt-convert-l1-1-0.dll
 0002:00000220       __imp_mbstowcs_s           000000014000e220     ucrt:api-ms-win-crt-convert-l1-1-0.dll
 0002:00000228       \177api-ms-win-crt-convert-l1-1-0_NULL_THUNK_DATA 000000014000e228     ucrt:api-ms-win-crt-convert-l1-1-0.dll
 0002:00000230       __imp__stat64i32           000000014000e230     ucrt:api-ms-win-crt-filesystem-l1-1-0.dll
 0002:00000238       \177api-ms-win-crt-filesystem-l1-1-0_NULL_THUNK_DATA 000000014000e238     ucrt:api-ms-win-crt-filesystem-l1-1-0.dll
 0002:00000240       __imp_malloc               000000014000e240     ucrt:api-ms-win-crt-heap-l1-1-0.dll
 0002:00000248       __imp_free                 000000014000e248     ucrt:api-ms-win-crt-heap-l1-1-0.dll
 0002:00000250       __imp__aligned_malloc      000000014000e250     ucrt:api-ms-win-crt-heap-l1-1-0.dll
 0002:00000258       __imp__callnewh            000000014000e258     ucrt:api-ms-win-crt-heap-l1-1-0.dll
 0002:00000260       __imp__aligned_free        000000014000e260     ucrt:api-ms-win-crt-heap-l1-1-0.dll
 0002:00000268       __imp_calloc               000000014000e268     ucrt:api-ms-win-crt-heap-l1-1-0.dll
 0002:00000270       __imp__set_new_mode        000000014000e270     ucrt:api-ms-win-crt-heap-l1-1-0.dll
 0002:00000278       \177api-ms-win-crt-heap-l1-1-0_NULL_THUNK_DATA 000000014000e278     ucrt:api-ms-win-crt-heap-l1-1-0.dll
 0002:00000280       __imp__configthreadlocale  000000014000e280     ucrt:api-ms-win-crt-locale-l1-1-0.dll
 0002:00000288       __imp_localeconv           000000014000e288     ucrt:api-ms-win-crt-locale-l1-1-0.dll
 0002:00000290       \177api-ms-win-crt-locale-l1-1-0_NULL_THUNK_DATA 000000014000e290     ucrt:api-ms-win-crt-locale-l1-1-0.dll
 0002:00000298       __imp___setusermatherr     000000014000e298     ucrt:api-ms-win-crt-math-l1-1-0.dll
 0002:000002a0       __imp__dsign               000000014000e2a0     ucrt:api-ms-win-crt-math-l1-1-0.dll
 0002:000002a8       __imp__dtest               000000014000e2a8     ucrt:api-ms-win-crt-math-l1-1-0.dll
 0002:000002b0       \177api-ms-win-crt-math-l1-1-0_NULL_THUNK_DATA 000000014000e2b0     ucrt:api-ms-win-crt-math-l1-1-0.dll
 0002:000002b8       __imp__seh_filter_dll      000000014000e2b8     ucrt:api-ms-win-crt-runtime-l1-1-0.dll
 0002:000002c0       __imp__initialize_onexit_table 000000014000e2c0     ucrt:api-ms-win-crt-runtime-l1-1-0.dll
 0002:000002c8       __imp__register_onexit_function 000000014000e2c8     ucrt:api-ms-win-crt-runtime-l1-1-0.dll
 0002:000002d0       __imp__execute_onexit_table 000000014000e2d0     ucrt:api-ms-win-crt-runtime-l1-1-0.dll
 0002:000002d8       __imp__crt_atexit          000000014000e2d8     ucrt:api-ms-win-crt-runtime-l1-1-0.dll
 0002:000002e0       __imp__crt_at_quick_exit   000000014000e2e0     ucrt:api-ms-win-crt-runtime-l1-1-0.dll
 0002:000002e8       __imp___p___argc           000000014000e2e8     ucrt:api-ms-win-crt-runtime-l1-1-0.dll
 0002:000002f0       __imp_exit                 000000014000e2f0     ucrt:api-ms-win-crt-runtime-l1-1-0.dll
 0002:000002f8       __imp__initterm_e          000000014000e2f8     ucrt:api-ms-win-crt-runtime-l1-1-0.dll
 0002:00000300       __imp__initterm            000000014000e300     ucrt:api-ms-win-crt-runtime-l1-1-0.dll
 0002:00000308       __imp__get_initial_narrow_environment 000000014000e308     ucrt:api-ms-win-crt-runtime-l1-1-0.dll
 0002:00000310       __imp__exit                000000014000e310     ucrt:api-ms-win-crt-runtime-l1-1-0.dll
 0002:00000318       __imp__initialize_narrow_environment 000000014000e318     ucrt:api-ms-win-crt-runtime-l1-1-0.dll
 0002:00000320       __imp___p___argv           000000014000e320     ucrt:api-ms-win-crt-runtime-l1-1-0.dll
 0002:00000328       __imp__configure_narrow_argv 000000014000e328     ucrt:api-ms-win-crt-runtime-l1-1-0.dll
 0002:00000330       __imp__register_thread_local_exe_atexit_callback 000000014000e330     ucrt:api-ms-win-crt-runtime-l1-1-0.dll
 0002:00000338       __imp_terminate            000000014000e338     ucrt:api-ms-win-crt-runtime-l1-1-0.dll
 0002:00000340       __imp__cexit               000000014000e340     ucrt:api-ms-win-crt-runtime-l1-1-0.dll
 0002:00000348       __imp__invoke_watson       000000014000e348     ucrt:api-ms-win-crt-runtime-l1-1-0.dll
 0002:00000350       __imp__invalid_parameter_noinfo_noreturn 000000014000e350     ucrt:api-ms-win-crt-runtime-l1-1-0.dll
 0002:00000358       __imp__set_app_type        000000014000e358     ucrt:api-ms-win-crt-runtime-l1-1-0.dll
 0002:00000360       __imp__seh_filter_exe      000000014000e360     ucrt:api-ms-win-crt-runtime-l1-1-0.dll
 0002:00000368       __imp__set_errno           000000014000e368     ucrt:api-ms-win-crt-runtime-l1-1-0.dll
 0002:00000370       __imp__c_exit              000000014000e370     ucrt:api-ms-win-crt-runtime-l1-1-0.dll
 0002:00000378       \177api-ms-win-crt-runtime-l1-1-0_NULL_THUNK_DATA 000000014000e378     ucrt:api-ms-win-crt-runtime-l1-1-0.dll
 0002:00000380       __imp_fclose               000000014000e380     ucrt:api-ms-win-crt-stdio-l1-1-0.dll
 0002:00000388       __imp_fwrite               000000014000e388     ucrt:api-ms-win-crt-stdio-l1-1-0.dll
 0002:00000390       __imp_fopen                000000014000e390     ucrt:api-ms-win-crt-stdio-l1-1-0.dll
 0002:00000398       __imp___p__commode         000000014000e398     ucrt:api-ms-win-crt-stdio-l1-1-0.dll
 0002:000003a0       __imp__set_fmode           000000014000e3a0     ucrt:api-ms-win-crt-stdio-l1-1-0.dll
 0002:000003a8       __imp_fseek                000000014000e3a8     ucrt:api-ms-win-crt-stdio-l1-1-0.dll
 0002:000003b0       __imp_ftell                000000014000e3b0     ucrt:api-ms-win-crt-stdio-l1-1-0.dll
 0002:000003b8       __imp___stdio_common_vsprintf 000000014000e3b8     ucrt:api-ms-win-crt-stdio-l1-1-0.dll
 0002:000003c0       __imp_fread                000000014000e3c0     ucrt:api-ms-win-crt-stdio-l1-1-0.dll
 0002:000003c8       \177api-ms-win-crt-stdio-l1-1-0_NULL_THUNK_DATA 000000014000e3c8     ucrt:api-ms-win-crt-stdio-l1-1-0.dll
 0002:000003d0       __imp_tolower              000000014000e3d0     ucrt:api-ms-win-crt-string-l1-1-0.dll
 0002:000003d8       \177api-ms-win-crt-string-l1-1-0_NULL_THUNK_DATA 000000014000e3d8     ucrt:api-ms-win-crt-string-l1-1-0.dll
 0002:000003e0       __guard_check_icall_fptr   000000014000e3e0     MSVCRT:guard_support.obj
 0002:000003e8       __guard_dispatch_icall_fptr 000000014000e3e8     MSVCRT:guard_support.obj
 0002:000003f0       __guard_ss_verify_failure_fptr 000000014000e3f0     MSVCRT:guard_support.obj
 0002:000003f8       __guard_ss_verify_sp_fptr  000000014000e3f8     MSVCRT:guard_support.obj
 0002:00000400       __xc_a                     000000014000e400     MSVCRT:initializers.obj
 0002:00000420       __xc_z                     000000014000e420     MSVCRT:initializers.obj
 0002:00000428       __xi_a                     000000014000e428     MSVCRT:initializers.obj
 0002:00000440       __xi_z                     000000014000e440     MSVCRT:initializers.obj
 0002:00000448       __xp_a                     000000014000e448     MSVCRT:initializers.obj
 0002:00000450       __xp_z                     000000014000e450     MSVCRT:initializers.obj
 0002:00000458       __xt_a                     000000014000e458     MSVCRT:initializers.obj
 0002:00000460       __xt_z                     000000014000e460     MSVCRT:initializers.obj
 0002:00000598       ??_C@_00CNPNBAHC@?$AA@     000000014000e598     testCompiler.obj
 0002:000005a0       ??_C@_0N@KEFHJLDD@?9?9source?9dir?$AA@ 000000014000e5a0     noiseless_sdk:compiler_options.obj
 0002:000005b0       ??_C@_0CC@FPAIANIJ@please?5provide?5a?5source?5director@ 000000014000e5b0     noiseless_sdk:compiler_options.obj
 0002:000005d8       ??_C@_0P@NILDAEHK@ASSET_COMPILER?$AA@ 000000014000e5d8     noiseless_sdk:compiler_options.obj
 0002:000005e8       ??_C@_0N@KJONLHOK@?9?9output?9dir?$AA@ 000000014000e5e8     noiseless_sdk:compiler_options.obj
 0002:000005f8       ??_C@_0CD@HBNJDEBE@please?5provide?5an?5output?5directo@ 000000014000e5f8     noiseless_sdk:compiler_options.obj
 0002:00000620       ??_C@_0BN@HJFNIJIK@unrecognized?5compiler?5option?$AA@ 000000014000e620     noiseless_sdk:compiler_options.obj
 0002:000006b8       ??_C@_02INHECGIH@kl?$AA@   000000014000e6b8     noiseless_sdk:compiler.obj
 0002:000006c0       ??_C@_0BJ@PMLLKPNF@Failed?5to?5compile?5shader?$AA@ 000000014000e6c0     noiseless_sdk:compiler.obj
 0002:000006e0       ??_C@_0BA@LOGFPCHE@?1asset_database?$AA@ 000000014000e6e0     noiseless_sdk:compiler.obj
 0002:000006f4       ??_C@_03EFDENKFM@adb?$AA@  000000014000e6f4     noiseless_sdk:asset_database_helpers.obj
 0002:000006f8       ??_C@_04CLCAKCEI@json?$AA@ 000000014000e6f8     noiseless_sdk:asset_database_helpers.obj
 0002:000007a0       ??_C@_1BK@MHIKGOKE@?$AA?3?$AAA?$AAM?$AA?3?$AAa?$AAm?$AA?3?$AAP?$AAM?$AA?3?$AAp?$AAm?$AA?$AA@ 000000014000e7a0     noiseless_sdk:asset_database_helpers.obj
 0002:00000bb0       ??_7exception@stdext@@6B@  000000014000ebb0     bento_sdk:asset_database.obj
 0002:00000bc8       ??_C@_0BC@BDKFLDHL@unknown?5exception?$AA@ 000000014000ebc8     bento_sdk:asset_database.obj
 0002:00000be0       ??_C@_07CIFAGBMG@unknown?$AA@ 000000014000ebe0     bento_sdk:asset_database.obj
 0002:00000be8       ??_7runtime_error@std@@6B@ 000000014000ebe8     bento_sdk:asset_database.obj
 0002:00000c00       ??_C@_05LAPONLG@false?$AA@ 000000014000ec00     bento_sdk:asset_database.obj
 0002:00000c08       ??_C@_04LOAJBDKD@true?$AA@ 000000014000ec08     bento_sdk:asset_database.obj
 0002:00000c10       ??_7_Ref_count_base@std@@6B@ 000000014000ec10     bento_sdk:asset_database.obj
 0002:00000c30       ??_7exception@detail@nlohmann@@6B@ 000000014000ec30     bento_sdk:asset_database.obj
 0002:00000c48       ??_C@_02PBFOLPKM@?$FN?5?$AA@ 000000014000ec48     bento_sdk:asset_database.obj
 0002:00000c4c       ??_C@_01LFCBOECM@?4?$AA@   000000014000ec4c     bento_sdk:asset_database.obj
 0002:00000c50       ??_C@_0BB@DHAIOKED@?$FLjson?4exception?4?$AA@ 000000014000ec50     bento_sdk:asset_database.obj
 0002:00000c68       ??_7type_error@detail@nlohmann@@6B@ 000000014000ec68     bento_sdk:asset_database.obj
 0002:00000c80       ??_C@_0L@CJHFOHFM@type_error?$AA@ 000000014000ec80     bento_sdk:asset_database.obj
 0002:00000c90       ??_7other_error@detail@nlohmann@@6B@ 000000014000ec90     bento_sdk:asset_database.obj
 0002:00000ca8       ??_C@_0M@DLKELGHM@other_error?$AA@ 000000014000eca8     bento_sdk:asset_database.obj
 0002:00000cc0       ?kCachedPowers@?1??get_cached_power_for_binary_exponent@dtoa_impl@detail@nlohmann@@YA?AUcached_power@234@H@Z@4QBU5234@B 000000014000ecc0     bento_sdk:asset_database.obj
 0002:000011b0       ??_C@_04MEMAJGDJ@name?$AA@ 000000014000f1b0     bento_sdk:asset_database.obj
 0002:000011b8       ??_C@_04LNEJFJGI@path?$AA@ 000000014000f1b8     bento_sdk:asset_database.obj
 0002:000011c0       ??_C@_04GPMDFGEJ@type?$AA@ 000000014000f1c0     bento_sdk:asset_database.obj
 0002:000011c8       ??_C@_04IAGNFIBA@size?$AA@ 000000014000f1c8     bento_sdk:asset_database.obj
 0002:000011d0       ??_C@_0BM@NCLJBPEP@cannot?5use?5operator?$FL?$FN?5with?5?$AA@ 000000014000f1d0     bento_sdk:asset_database.obj
 0002:000011f0       ??_C@_0CL@PMFMHANH@cannot?5create?5object?5from?5initia@ 000000014000f1f0     bento_sdk:asset_database.obj
 0002:00001220       ??_C@_0CP@JKJLJCEB@961c151d2e87f2686a955a9be24d316f@ 000000014000f220     bento_sdk:asset_database.obj
 0002:00001250       ??_7?$output_adapter_protocol@D@detail@nlohmann@@6B@ 000000014000f250     bento_sdk:asset_database.obj
 0002:00001268       ??_C@_02MCILKGOH@?$HL?$HN?$AA@ 000000014000f268     bento_sdk:asset_database.obj
 0002:0000126c       ??_C@_02KCPFEJNG@?$HL?6?$AA@ 000000014000f26c     bento_sdk:asset_database.obj
 0002:00001270       ??_C@_03GIPIADLC@?$CC?3?5?$AA@ 000000014000f270     bento_sdk:asset_database.obj
 0002:00001274       ??_C@_02MLAGHBOD@?0?6?$AA@ 000000014000f274     bento_sdk:asset_database.obj
 0002:00001278       ??_C@_02BONOGKBK@?$CC?3?$AA@ 000000014000f278     bento_sdk:asset_database.obj
 0002:0000127c       ??_C@_02GPECMEKF@?$FL?$FN?$AA@ 000000014000f27c     bento_sdk:asset_database.obj
 0002:00001280       ??_C@_02JKLIAPDG@?$FL?6?$AA@ 000000014000f280     bento_sdk:asset_database.obj
 0002:00001288       ??_C@_0M@MKMGJFPL@?$DMdiscarded?$DO?$AA@ 000000014000f288     bento_sdk:asset_database.obj
 0002:00001294       ??_C@_04MLLLIHIP@null?$AA@ 000000014000f294     bento_sdk:asset_database.obj
 0002:000012a0       ??_7?$output_string_adapter@DV?$basic_string@DU?$char_traits@D@std@@V?$allocator@D@2@@std@@@detail@nlohmann@@6B@ 000000014000f2a0     bento_sdk:asset_database.obj
 0002:000012b8       ??_C@_06IEOJBDIK@object?$AA@ 000000014000f2b8     bento_sdk:asset_database.obj
 0002:000012c0       ??_C@_05HIFJDKLD@array?$AA@ 000000014000f2c0     bento_sdk:asset_database.obj
 0002:000012c8       ??_C@_06ICGJLFIM@string?$AA@ 000000014000f2c8     bento_sdk:asset_database.obj
 0002:000012d0       ??_C@_07GOBOHMJA@boolean?$AA@ 000000014000f2d0     bento_sdk:asset_database.obj
 0002:000012d8       ??_C@_09BHELGMBL@discarded?$AA@ 000000014000f2d8     bento_sdk:asset_database.obj
 0002:000012e4       ??_C@_06EBGNBFIA@number?$AA@ 000000014000f2e4     bento_sdk:asset_database.obj
 0002:000012f0       ??_7?$basic_stringbuf@DU?$char_traits@D@std@@V?$allocator@D@2@@std@@6B@ 000000014000f2f0     bento_sdk:asset_database.obj
 0002:00001368       ??_7?$basic_stringstream@DU?$char_traits@D@std@@V?$allocator@D@2@@std@@6B@ 000000014000f368     bento_sdk:asset_database.obj
 0002:00001370       ??_8?$basic_stringstream@DU?$char_traits@D@std@@V?$allocator@D@2@@std@@7B?$basic_istream@DU?$char_traits@D@std@@@1@@ 000000014000f370     bento_sdk:asset_database.obj
 0002:00001378       ??_8?$basic_stringstream@DU?$char_traits@D@std@@V?$allocator@D@2@@std@@7B?$basic_ostream@DU?$char_traits@D@std@@@1@@ 000000014000f378     bento_sdk:asset_database.obj
 0002:00001380       ??_C@_06OAIHNJFH@?2u?$CF04x?$AA@ 000000014000f380     bento_sdk:asset_database.obj
 0002:00001388       ??_C@_0N@MOBGICJD@?2u?$CF04x?2u?$CF04x?$AA@ 000000014000f388     bento_sdk:asset_database.obj
 0002:00001398       ??_C@_04LBPDBBJF@?3?50x?$AA@ 000000014000f398     bento_sdk:asset_database.obj
 0002:000013a0       ??_C@_0BN@FGKMDFDN@invalid?5UTF?98?5byte?5at?5index?5?$AA@ 000000014000f3a0     bento_sdk:asset_database.obj
 0002:000013c0       ??_C@_0CH@OBGEFBNA@incomplete?5UTF?98?5string?$DL?5last?5by@ 000000014000f3c0     bento_sdk:asset_database.obj
 0002:000013f0       ?utf8d@?1??decode@?$serializer@V?$basic_json@Vmap@std@@Vvector@2@V?$basic_string@DU?$char_traits@D@std@@V?$allocator@D@2@@2@_N_J_KNVallocator@2@Uadl_serializer@nlohmann@@@nlohmann@@@detail@nlohmann@@CAEAEAEAEAIE@Z@4V?$array@E$0BJA@@std@@B 000000014000f3f0     bento_sdk:asset_database.obj
 0002:00001580       ??_C@_0BD@OLBABOEK@vector?$DMT?$DO?5too?5long?$AA@ 000000014000f580     bento_sdk:asset_database.obj
 0002:00001598       ??_C@_0BI@CFPLBAOH@invalid?5string?5position?$AA@ 000000014000f598     bento_sdk:asset_database.obj
 0002:000015b0       ??_7?$_Ref_count_obj@V?$output_string_adapter@DV?$basic_string@DU?$char_traits@D@std@@V?$allocator@D@2@@std@@@detail@nlohmann@@@std@@6B@ 000000014000f5b0     bento_sdk:asset_database.obj
 0002:000015d0       ??_C@_0BA@JFNIOLAK@string?5too?5long?$AA@ 000000014000f5d0     bento_sdk:asset_database.obj
 0002:000015e0       ??_C@_0BE@JONHPENG@map?1set?$DMT?$DO?5too?5long?$AA@ 000000014000f5e0     bento_sdk:asset_database.obj
 0002:00001600       __xmm@000000000000000f0000000000000000 000000014000f600     bento_sdk:asset_database.obj
 0002:00001610       __xmm@80000000000000008000000000000000 000000014000f610     bento_sdk:asset_database.obj
 0002:00001670       ??_C@_0BE@KOGKLJGM@Error?5in?5directory?4?$AA@ 000000014000f670     bento_sdk:file_system.obj
 0002:00001688       ??_C@_0M@FLBCLFHO@FILE_SYSTEM?$AA@ 000000014000f688     bento_sdk:file_system.obj
 0002:00001694       ??_C@_02DJGKEECL@?4?4?$AA@ 000000014000f694     bento_sdk:file_system.obj
 0002:00001698       ??_C@_01KMDKNFGN@?1?$AA@   000000014000f698     bento_sdk:file_system.obj
 0002:000016a0       ??_C@_0BP@OGGHFCKA@Error?5while?5closing?5directory?4?$AA@ 000000014000f6a0     bento_sdk:file_system.obj
 0002:000016c0       ??_C@_02GMLFBBN@wb?$AA@    000000014000f6c0     bento_sdk:file_system.obj
 0002:000016c4       ??_C@_01NOFIACDB@w?$AA@    000000014000f6c4     bento_sdk:file_system.obj
 0002:000016c8       ??_C@_02JDPG@rb?$AA@       000000014000f6c8     bento_sdk:file_system.obj
 0002:00001770       ??_7SystemAllocator@bento@@6B@ 000000014000f770     bento_sdk:system_allocator.obj
 0002:00001808       ??_7ILogger@bento@@6B@     000000014000f808     bento_sdk:system_logger.obj
 0002:00001818       ??_7SystemLogger@bento@@6B@ 000000014000f818     bento_sdk:system_logger.obj
 0002:00001828       ??_C@_07NJGAEJFG@?$FLDEBUG?$FN?$AA@ 000000014000f828     bento_sdk:system_logger.obj
 0002:00001830       ??_C@_06EGHJMOEF@?$FLINFO?$FN?$AA@ 000000014000f830     bento_sdk:system_logger.obj
 0002:00001838       ??_C@_09HLHFDKBC@?$FLWARNING?$FN?$AA@ 000000014000f838     bento_sdk:system_logger.obj
 0002:00001848       ??_C@_07CEGNDBCD@?$FLERROR?$FN?$AA@ 000000014000f848     bento_sdk:system_logger.obj
 0002:00001850       ??_C@_01EEMJAFIK@?6?$AA@   000000014000f850     bento_sdk:system_logger.obj
 0002:00001854       ??_C@_01LBDDMOBJ@?$FN?$AA@ 000000014000f854     bento_sdk:system_logger.obj
 0002:00001858       ??_C@_01OHGJGJJP@?$FL?$AA@ 000000014000f858     bento_sdk:system_logger.obj
 0002:00001860       ??_7IAllocator@bento@@6B@  000000014000f860     bento_sdk:allocator.obj
 0002:00001880       __xmm@000102030405060708090a0b0c0d0e0f 000000014000f880     msvcprt:vector_algorithms.obj
 0002:00001890       __xmm@010003020504070609080b0a0d0c0f0e 000000014000f890     msvcprt:vector_algorithms.obj
 0002:000018a0       __ymm@000102030405060708090a0b0c0d0e0f000102030405060708090a0b0c0d0e0f 000000014000f8a0     msvcprt:vector_algorithms.obj
 0002:000018c0       __ymm@010003020504070609080b0a0d0c0f0e010003020504070609080b0a0d0c0f0e 000000014000f8c0     msvcprt:vector_algorithms.obj
 0002:000018e8       ??_7type_info@@6B@         000000014000f8e8     MSVCRT:std_type_info_static.obj
 0002:00001908       ??_7exception@std@@6B@     000000014000f908     MSVCRT:throw_bad_alloc.obj
 0002:00001918       ??_C@_0BC@EOODALEL@Unknown?5exception?$AA@ 000000014000f918     MSVCRT:throw_bad_alloc.obj
 0002:00001938       ??_7bad_alloc@std@@6B@     000000014000f938     MSVCRT:throw_bad_alloc.obj
 0002:00001948       ??_C@_0P@GHFPNOJB@bad?5allocation?$AA@ 000000014000f948     MSVCRT:throw_bad_alloc.obj
 0002:00001960       ??_7bad_array_new_length@std@@6B@ 000000014000f960     MSVCRT:throw_bad_alloc.obj
 0002:00001970       ??_C@_0BF@KINCDENJ@bad?5array?5new?5length?$AA@ 000000014000f970     MSVCRT:throw_bad_alloc.obj
 0002:000019f0       _load_config_used          000000014000f9f0     MSVCRT:loadcfg.obj
 0002:00001af0       ??_R4type_info@@6B@        000000014000faf0     MSVCRT:std_type_info_static.obj
 0002:00001b18       ??_R3type_info@@8          000000014000fb18     MSVCRT:std_type_info_static.obj
 0002:00001b30       ??_R2type_info@@8          000000014000fb30     MSVCRT:std_type_info_static.obj
 0002:00001b40       ??_R1A@?0A@EA@type_info@@8 000000014000fb40     MSVCRT:std_type_info_static.obj
 0002:00001b68       ??_R4exception@std@@6B@    000000014000fb68     MSVCRT:throw_bad_alloc.obj
 0002:00001b90       ??_R3exception@std@@8      000000014000fb90     MSVCRT:throw_bad_alloc.obj
 0002:00001ba8       ??_R2exception@std@@8      000000014000fba8     MSVCRT:throw_bad_alloc.obj
 0002:00001bb8       ??_R1A@?0A@EA@exception@std@@8 000000014000fbb8     MSVCRT:throw_bad_alloc.obj
 0002:00001be0       ??_R4bad_alloc@std@@6B@    000000014000fbe0     MSVCRT:throw_bad_alloc.obj
 0002:00001c08       ??_R3bad_alloc@std@@8      000000014000fc08     MSVCRT:throw_bad_alloc.obj
 0002:00001c20       ??_R2bad_alloc@std@@8      000000014000fc20     MSVCRT:throw_bad_alloc.obj
 0002:00001c38       ??_R1A@?0A@EA@bad_alloc@std@@8 000000014000fc38     MSVCRT:throw_bad_alloc.obj
 0002:00001c60       ??_R4bad_array_new_length@std@@6B@ 000000014000fc60     MSVCRT:throw_bad_alloc.obj
 0002:00001c88       ??_R3bad_array_new_length@std@@8 000000014000fc88     MSVCRT:throw_bad_alloc.obj
 0002:00001ca0       ??_R2bad_array_new_length@std@@8 000000014000fca0     MSVCRT:throw_bad_alloc.obj
 0002:00001cc0       ??_R1A@?0A@EA@bad_array_new_length@std@@8 000000014000fcc0     MSVCRT:throw_bad_alloc.obj
 0002:00002038       __rtc_iaa                  0000000140010038     MSVCRT:_initsect_.obj
 0002:00002040       __rtc_izz                  0000000140010040     MSVCRT:_initsect_.obj
 0002:00002048       __rtc_taa                  0000000140010048     MSVCRT:_initsect_.obj
 0002:00002050       __rtc_tzz                  0000000140010050     MSVCRT:_initsect_.obj
 0002:00004688       _TI3?AVtype_error@detail@nlohmann@@ 0000000140012688     bento_sdk:asset_database.obj
 0002:000046a8       _CTA3?AVtype_error@detail@nlohmann@@ 00000001400126a8     bento_sdk:asset_database.obj
 0002:000046c8       _CT??_R0?AVtype_error@detail@nlohmann@@@8??0type_error@detail@nlohmann@@QEAA@AEBV012@@Z40 00000001400126c8     bento_sdk:asset_database.obj
 0002:000046f0       _CT??_R0?AVexception@detail@nlohmann@@@8??0exception@detail@nlohmann@@QEAA@AEBV012@@Z40 00000001400126f0     bento_sdk:asset_database.obj
 0002:00004718       _CT??_R0?AVexception@stdext@@@8??0exception@stdext@@QEAA@AEBV01@@Z16 0000000140012718     bento_sdk:asset_database.obj
 0002:00004740       _TI3?AVother_error@detail@nlohmann@@ 0000000140012740     bento_sdk:asset_database.obj
 0002:00004760       _CTA3?AVother_error@detail@nlohmann@@ 0000000140012760     bento_sdk:asset_database.obj
 0002:00004780       _CT??_R0?AVother_error@detail@nlohmann@@@8??0other_error@detail@nlohmann@@QEAA@AEBV012@@Z40 0000000140012780     bento_sdk:asset_database.obj
 0002:000047a8       _TI2?AVbad_alloc@std@@     00000001400127a8     MSVCRT:throw_bad_alloc.obj
 0002:000047c8       _CTA2?AVbad_alloc@std@@    00000001400127c8     MSVCRT:throw_bad_alloc.obj
 0002:000047e0       _CT??_R0?AVbad_alloc@std@@@8??0bad_alloc@std@@QEAA@AEBV01@@Z24 00000001400127e0     MSVCRT:throw_bad_alloc.obj
 0002:00004808       _CT??_R0?AVexception@std@@@8??0exception@std@@QEAA@AEBV01@@Z24 0000000140012808     MSVCRT:throw_bad_alloc.obj
 0002:00004830       _TI3?AVbad_array_new_length@std@@ 0000000140012830     MSVCRT:throw_bad_alloc.obj
 0002:00004850       _CTA3?AVbad_array_new_length@std@@ 0000000140012850     MSVCRT:throw_bad_alloc.obj
 0002:00004870       _CT??_R0?AVbad_array_new_length@std@@@8??0bad_array_new_length@std@@QEAA@AEBV01@@Z24 0000000140012870     MSVCRT:throw_bad_alloc.obj
 0002:00004894       __IMPORT_DESCRIPTOR_MSVCP140 0000000140012894     msvcprt:MSVCP140.dll
 0002:000048a8       __IMPORT_DESCRIPTOR_VCRUNTIME140 00000001400128a8     vcruntime:VCRUNTIME140.dll
 0002:000048bc       __IMPORT_DESCRIPTOR_api-ms-win-crt-heap-l1-1-0 00000001400128bc     ucrt:api-ms-win-crt-heap-l1-1-0.dll
 0002:000048d0       __IMPORT_DESCRIPTOR_api-ms-win-crt-string-l1-1-0 00000001400128d0     ucrt:api-ms-win-crt-string-l1-1-0.dll
 0002:000048e4       __IMPORT_DESCRIPTOR_api-ms-win-crt-runtime-l1-1-0 00000001400128e4     ucrt:api-ms-win-crt-runtime-l1-1-0.dll
 0002:000048f8       __IMPORT_DESCRIPTOR_api-ms-win-crt-math-l1-1-0 00000001400128f8     ucrt:api-ms-win-crt-math-l1-1-0.dll
 0002:0000490c       __IMPORT_DESCRIPTOR_api-ms-win-crt-stdio-l1-1-0 000000014001290c     ucrt:api-ms-win-crt-stdio-l1-1-0.dll
 0002:00004920       __IMPORT_DESCRIPTOR_api-ms-win-crt-locale-l1-1-0 0000000140012920     ucrt:api-ms-win-crt-locale-l1-1-0.dll
 0002:00004934       __IMPORT_DESCRIPTOR_api-ms-win-crt-convert-l1-1-0 0000000140012934     ucrt:api-ms-win-crt-convert-l1-1-0.dll
 0002:00004948       __IMPORT_DESCRIPTOR_api-ms-win-crt-filesystem-l1-1-0 0000000140012948     ucrt:api-ms-win-crt-filesystem-l1-1-0.dll
 0002:0000495c       __IMPORT_DESCRIPTOR_KERNEL32 000000014001295c     kernel32:KERNEL32.dll
 0002:00004970       __NULL_IMPORT_DESCRIPTOR   0000000140012970     msvcprt:MSVCP140.dll
 0003:00000000       ?database_file_extension@noiseless@@3PEBDEB 0000000140014000     noiseless_sdk:asset_database_helpers.obj
 0003:00000008       ?database_debug_file_extension@noiseless@@3PEBDEB 0000000140014008     noiseless_sdk:asset_database_helpers.obj
 0003:00000010       ?__default_logger@bento@@3PEAVILogger@1@EA 0000000140014010     bento_sdk:log.obj
 0003:00000020       __security_cookie          0000000140014020     MSVCRT:gs_cookie.obj
 0003:00000028       __security_cookie_complement 0000000140014028     MSVCRT:gs_cookie.obj
 0003:00000030       __scrt_native_dllmain_reason 0000000140014030     MSVCRT:utility.obj
 0003:00000034       _fltused                   0000000140014034     MSVCRT:fltused.obj
 0003:00000038       __isa_available            0000000140014038     MSVCRT:_cpu_disp_.obj
 0003:0000003c       __isa_enabled              000000014001403c     MSVCRT:_cpu_disp_.obj
 0003:00000040       __memcpy_nt_iters          0000000140014040     MSVCRT:_cpu_disp_.obj
 0003:00000048       __scrt_default_matherr     0000000140014048     MSVCRT:matherr.obj
 0003:00000050       __scrt_ucrt_dll_is_in_use  0000000140014050     MSVCRT:ucrt_stubs.obj
 0003:00000058       ??_R0?AVtype_error@detail@nlohmann@@@8 0000000140014058     bento_sdk:asset_database.obj
 0003:00000090       ??_R0?AVexception@detail@nlohmann@@@8 0000000140014090     bento_sdk:asset_database.obj
 0003:000000c0       ??_R0?AVexception@stdext@@@8 00000001400140c0     bento_sdk:asset_database.obj
 0003:000000e8       ??_R0?AVother_error@detail@nlohmann@@@8 00000001400140e8     bento_sdk:asset_database.obj
 0003:00000120       ??_R0?AVtype_info@@@8      0000000140014120     MSVCRT:std_type_info_static.obj
 0003:00000140       ??_R0?AVbad_alloc@std@@@8  0000000140014140     MSVCRT:throw_bad_alloc.obj
 0003:00000168       ??_R0?AVexception@std@@@8  0000000140014168     MSVCRT:throw_bad_alloc.obj
 0003:00000190       ??_R0?AVbad_array_new_length@std@@@8 0000000140014190     MSVCRT:throw_bad_alloc.obj
 0003:000001c8       ?_OptionsStorage@?1??__local_stdio_printf_options@@9@4_KA 00000001400141c8     bento_sdk:asset_database.obj
 0003:000001d0       ?__default_system_logger@bento@@3VSystemLogger@1@A 00000001400141d0     bento_sdk:log.obj
 0003:000001d8       __scrt_current_native_startup_state 00000001400141d8     MSVCRT:utility.obj
 0003:000001e0       __scrt_native_startup_lock 00000001400141e0     MSVCRT:utility.obj
 0003:0000021c       __favor                    000000014001421c     MSVCRT:_cpu_disp_.obj
 0003:00000220       ?__type_info_root_node@@3U__type_info_node@@A 0000000140014220     MSVCRT:tncleanup.obj
 0003:00000230       ?_OptionsStorage@?1??__local_stdio_scanf_options@@9@4_KA 0000000140014230     MSVCRT:default_local_stdio_options.obj
 0003:00000238       __scrt_debugger_hook_flag  0000000140014238     MSVCRT:utility_desktop.obj
 0003:000007b0       __dyn_tls_dtor_callback    00000001400147b0     <common>
 0003:000007b8       __dyn_tls_init_callback    00000001400147b8     <common>

 entry point at        0001:0000abd4

 Static symbols

 0000:fffe7000       .debug$S                   0000000140000000     ucrt:api-ms-win-crt-stdio-l1-1-0.dll
 0000:fffe7000       .debug$S                   0000000140000000     msvcprt:MSVCP140.dll
 0000:fffe7000       .debug$S                   0000000140000000     msvcprt:MSVCP140.dll
 0000:fffe7000       .debug$S                   0000000140000000     msvcprt:MSVCP140.dll
 0000:fffe7000       .debug$S                   0000000140000000     msvcprt:MSVCP140.dll
 0000:fffe7000       .debug$S                   0000000140000000     msvcprt:MSVCP140.dll
 0000:fffe7000       .debug$S                   0000000140000000     msvcprt:MSVCP140.dll
 0000:fffe7000       .debug$S                   0000000140000000     msvcprt:MSVCP140.dll
 0000:fffe7000       .debug$S                   0000000140000000     msvcprt:MSVCP140.dll
 0000:fffe7000       .debug$S                   0000000140000000     msvcprt:MSVCP140.dll
 0000:fffe7000       .debug$S                   0000000140000000     msvcprt:MSVCP140.dll
 0000:fffe7000       .debug$S                   0000000140000000     msvcprt:MSVCP140.dll
 0000:fffe7000       .debug$S                   0000000140000000     msvcprt:MSVCP140.dll
 0000:fffe7000       .debug$S                   0000000140000000     msvcprt:MSVCP140.dll
 0000:fffe7000       .debug$S                   0000000140000000     msvcprt:MSVCP140.dll
 0000:fffe7000       .debug$S                   0000000140000000     msvcprt:MSVCP140.dll
 0000:fffe7000       .debug$S                   0000000140000000     msvcprt:MSVCP140.dll
 0000:fffe7000       .debug$S                   0000000140000000     msvcprt:MSVCP140.dll
 0000:fffe7000       .debug$S                   0000000140000000     msvcprt:MSVCP140.dll
 0004:fffeb000       $pdata$?reserve@?$Vector@VDynamicString@bento@@@bento@@QEAAXI@Z 0000000140000000     bento_sdk:file_system.obj
 0002:ffff2000       $unwind$?reserve@?$Vector@VDynamicString@bento@@@bento@@QEAAXI@Z 0000000140000000     bento_sdk:file_system.obj
 0000:fffe7000       .debug$S                   0000000140000000     msvcprt:MSVCP140.dll
 0000:fffe7000       .debug$S                   0000000140000000     msvcprt:MSVCP140.dll
 0000:fffe7000       .debug$S                   0000000140000000     msvcprt:MSVCP140.dll
 0000:fffe7000       .debug$S                   0000000140000000     msvcprt:MSVCP140.dll
 0000:fffe7000       .debug$S                   0000000140000000     msvcprt:MSVCP140.dll
 0000:fffe7000       .debug$S                   0000000140000000     msvcprt:MSVCP140.dll
 0000:fffe7000       .debug$S                   0000000140000000     msvcprt:MSVCP140.dll
 0000:fffe7000       .debug$S                   0000000140000000     msvcprt:MSVCP140.dll
 0000:fffe7000       .debug$S                   0000000140000000     msvcprt:MSVCP140.dll
 0000:fffe7000       .debug$S                   0000000140000000     msvcprt:MSVCP140.dll
 0000:fffe7000       .debug$S                   0000000140000000     msvcprt:MSVCP140.dll
 0000:fffe7000       .debug$S                   0000000140000000     msvcprt:MSVCP140.dll
 0000:fffe7000       .debug$S                   0000000140000000     msvcprt:MSVCP140.dll
 0002:ffff2000       $ip2state$??1DynamicString@bento@@QEAA@XZ 0000000140000000     bento_sdk:file_system.obj
 0002:ffff2000       $stateUnwindMap$??1DynamicString@bento@@QEAA@XZ 0000000140000000     bento_sdk:file_system.obj
 0002:ffff2000       $cppxdata$??1DynamicString@bento@@QEAA@XZ 0000000140000000     bento_sdk:file_system.obj
 0004:fffeb000       $pdata$??1DynamicString@bento@@QEAA@XZ 0000000140000000     bento_sdk:file_system.obj
 0000:fffe7000       .debug$S                   0000000140000000     ucrt:api-ms-win-crt-convert-l1-1-0.dll
 0002:ffff2000       $unwind$??1DynamicString@bento@@QEAA@XZ 0000000140000000     bento_sdk:file_system.obj
 0000:fffe7000       .debug$S                   0000000140000000     ucrt:api-ms-win-crt-convert-l1-1-0.dll
 0004:fffeb000       $pdata$?reserve@?$Vector@D@bento@@QEAAXI@Z 0000000140000000     bento_sdk:file_system.obj
 0002:ffff2000       $unwind$?reserve@?$Vector@D@bento@@QEAAXI@Z 0000000140000000     bento_sdk:file_system.obj
 0004:fffeb000       $pdata$?free@?$Vector@D@bento@@QEAAXXZ 0000000140000000     bento_sdk:file_system.obj
 0002:ffff2000       $unwind$?free@?$Vector@D@bento@@QEAAXXZ 0000000140000000     bento_sdk:file_system.obj
 0004:fffeb000       $pdata$?resize@?$Vector@D@bento@@QEAAXI@Z 0000000140000000     bento_sdk:file_system.obj
 0002:ffff2000       $unwind$?resize@?$Vector@D@bento@@QEAAXI@Z 0000000140000000     bento_sdk:file_system.obj
 0002:ffff2000       $ip2state$??1?$Vector@D@bento@@QEAA@XZ 0000000140000000     bento_sdk:file_system.obj
 0002:ffff2000       $cppxdata$??1?$Vector@D@bento@@QEAA@XZ 0000000140000000     bento_sdk:file_system.obj
 0004:fffeb000       $pdata$??1?$Vector@D@bento@@QEAA@XZ 0000000140000000     bento_sdk:file_system.obj
 0000:fffe7000       .debug$S                   0000000140000000     kernel32:KERNEL32.dll
 0000:fffe7000       .debug$S                   0000000140000000     kernel32:KERNEL32.dll
 0000:fffe7000       .debug$S                   0000000140000000     kernel32:KERNEL32.dll
 0000:fffe7000       .debug$S                   0000000140000000     kernel32:KERNEL32.dll
 0000:fffe7000       .debug$S                   0000000140000000     kernel32:KERNEL32.dll
 0000:fffe7000       .debug$S                   0000000140000000     kernel32:KERNEL32.dll
 0000:fffe7000       .debug$S                   0000000140000000     kernel32:KERNEL32.dll
 0000:fffe7000       .debug$S                   0000000140000000     kernel32:KERNEL32.dll
 0000:fffe7000       .debug$S                   0000000140000000     kernel32:KERNEL32.dll
 0000:fffe7000       .debug$S                   0000000140000000     kernel32:KERNEL32.dll
 0000:fffe7000       .debug$S                   0000000140000000     kernel32:KERNEL32.dll
 0000:fffe7000       .debug$S                   0000000140000000     kernel32:KERNEL32.dll
 0000:fffe7000       .debug$S                   0000000140000000     kernel32:KERNEL32.dll
 0000:fffe7000       .debug$S                   0000000140000000     kernel32:KERNEL32.dll
 0000:fffe7000       .debug$S                   0000000140000000     kernel32:KERNEL32.dll
 0000:fffe7000       .debug$S                   0000000140000000     kernel32:KERNEL32.dll
 0000:fffe7000       .debug$S                   0000000140000000     kernel32:KERNEL32.dll
 0000:fffe7000       .debug$S                   0000000140000000     kernel32:KERNEL32.dll
 0000:fffe7000       .debug$S                   0000000140000000     kernel32:KERNEL32.dll
 0000:fffe7000       .debug$S                   0000000140000000     kernel32:KERNEL32.dll
 0002:ffff2000       $unwind$??1?$Vector@D@bento@@QEAA@XZ 0000000140000000     bento_sdk:file_system.obj
 0002:ffff2000       $ip2state$??1DynamicString@bento@@QEAA@XZ 0000000140000000     bento_sdk:disk_serializer.obj
 0002:ffff2000       $stateUnwindMap$??1DynamicString@bento@@QEAA@XZ 0000000140000000     bento_sdk:disk_serializer.obj
 0002:ffff2000       $cppxdata$??1DynamicString@bento@@QEAA@XZ 0000000140000000     bento_sdk:disk_serializer.obj
 0004:fffeb000       $pdata$??1DynamicString@bento@@QEAA@XZ 0000000140000000     bento_sdk:disk_serializer.obj
 0002:ffff2000       $unwind$??1DynamicString@bento@@QEAA@XZ 0000000140000000     bento_sdk:disk_serializer.obj
 0004:fffeb000       $pdata$?free@?$Vector@D@bento@@QEAAXXZ 0000000140000000     bento_sdk:disk_serializer.obj
 0002:ffff2000       $unwind$?free@?$Vector@D@bento@@QEAAXXZ 0000000140000000     bento_sdk:disk_serializer.obj
 0002:ffff2000       $ip2state$??1?$Vector@D@bento@@QEAA@XZ 0000000140000000     bento_sdk:disk_serializer.obj
 0002:ffff2000       $cppxdata$??1?$Vector@D@bento@@QEAA@XZ 0000000140000000     bento_sdk:disk_serializer.obj
 0004:fffeb000       $pdata$??1?$Vector@D@bento@@QEAA@XZ 0000000140000000     bento_sdk:disk_serializer.obj
 0002:ffff2000       $unwind$??1?$Vector@D@bento@@QEAA@XZ 0000000140000000     bento_sdk:disk_serializer.obj
 0002:ffff2000       __guard_fids__             0000000140000000     MSVCRT:guard_support.obj
 0002:ffff2000       $unwind$??1?$Vector@D@bento@@QEAA@XZ 0000000140000000     noiseless_sdk:asset_database_helpers.obj
 0004:fffeb000       $pdata$??1?$Vector@D@bento@@QEAA@XZ 0000000140000000     noiseless_sdk:asset_database_helpers.obj
 0002:ffff2000       $cppxdata$??1?$Vector@D@bento@@QEAA@XZ 0000000140000000     noiseless_sdk:asset_database_helpers.obj
 0002:ffff2000       $ip2state$??1?$Vector@D@bento@@QEAA@XZ 0000000140000000     noiseless_sdk:asset_database_helpers.obj
 0002:ffff2000       $unwind$?free@?$Vector@D@bento@@QEAAXXZ 0000000140000000     noiseless_sdk:asset_database_helpers.obj
 0004:fffeb000       $pdata$?free@?$Vector@D@bento@@QEAAXXZ 0000000140000000     noiseless_sdk:asset_database_helpers.obj
 0002:ffff2000       $unwind$??1DynamicString@bento@@QEAA@XZ 0000000140000000     noiseless_sdk:asset_database_helpers.obj
 0004:fffeb000       $pdata$??1DynamicString@bento@@QEAA@XZ 0000000140000000     noiseless_sdk:asset_database_helpers.obj
 0002:ffff2000       $cppxdata$??1DynamicString@bento@@QEAA@XZ 0000000140000000     noiseless_sdk:asset_database_helpers.obj
 0002:ffff2000       $stateUnwindMap$??1DynamicString@bento@@QEAA@XZ 0000000140000000     noiseless_sdk:asset_database_helpers.obj
 0002:ffff2000       $ip2state$??1DynamicString@bento@@QEAA@XZ 0000000140000000     noiseless_sdk:asset_database_helpers.obj
 0002:ffff2000       __guard_fids__guard_icall_checks_enforced 0000000140000000     MSVCRT:guard_support.obj
 0002:ffff2000       __guard_fids__             0000000140000000     MSVCRT:std_type_info_static.obj
 0002:ffff2000       __guard_fids__             0000000140000000     MSVCRT:throw_bad_alloc.obj
 0002:ffff2000       __guard_fids__             0000000140000000     MSVCRT:throw_bad_alloc.obj
 0002:ffff2000       __guard_fids__             0000000140000000     MSVCRT:throw_bad_alloc.obj
 0002:ffff2000       __guard_fids__             0000000140000000     MSVCRT:exe_main.obj
 0004:fffeb000       $pdata$??$unpack_vector_bytes@D@bento@@YAXAEAPEBDAEAV?$Vector@D@0@@Z 0000000140000000     bento_sdk:asset_database.obj
 0002:ffff2000       $unwind$??$unpack_vector_bytes@D@bento@@YAXAEAPEBDAEAV?$Vector@D@0@@Z 0000000140000000     bento_sdk:asset_database.obj
 0004:fffeb000       $pdata$??$pack_vector_bytes@D@bento@@YAXAEAV?$Vector@D@0@AEBV10@@Z 0000000140000000     bento_sdk:asset_database.obj
 0002:ffff2000       $unwind$??$pack_vector_bytes@D@bento@@YAXAEAV?$Vector@D@0@AEBV10@@Z 0000000140000000     bento_sdk:asset_database.obj
 0002:ffff2000       __guard_fids_?pre_c_initialization@@YAHXZ 0000000140000000     MSVCRT:exe_main.obj
 0004:fffeb000       $pdata$??$_Getvals@_W@?$time_get@_WV?$istreambuf_iterator@_WU?$char_traits@_W@std@@@std@@@std@@IEAAX_WAEBV_Locinfo@1@@Z 0000000140000000     bento_sdk:asset_database.obj
 0002:ffff2000       $unwind$??$_Getvals@_W@?$time_get@_WV?$istreambuf_iterator@_WU?$char_traits@_W@std@@@std@@@std@@IEAAX_WAEBV_Locinfo@1@@Z 0000000140000000     bento_sdk:asset_database.obj
 0004:fffeb000       $pdata$??$_Getvals@_W@?$time_get@DV?$istreambuf_iterator@DU?$char_traits@D@std@@@std@@@std@@IEAAX_WAEBV_Locinfo@1@@Z 0000000140000000     bento_sdk:asset_database.obj
 0002:ffff2000       $unwind$??$_Getvals@_W@?$time_get@DV?$istreambuf_iterator@DU?$char_traits@D@std@@@std@@@std@@IEAAX_WAEBV_Locinfo@1@@Z 0000000140000000     bento_sdk:asset_database.obj
 0004:fffeb000       $pdata$?_Maklocwcs@std@@YAPEA_WPEB_W@Z 0000000140000000     bento_sdk:asset_database.obj
 0002:ffff2000       $unwind$?_Maklocwcs@std@@YAPEA_WPEB_W@Z 0000000140000000     bento_sdk:asset_database.obj
 0002:ffff2000       $unwind$?configure_argv@__scrt_narrow_argv_policy@@SAHXZ 0000000140000000     MSVCRT:utility.obj
 0004:fffeb000       $pdata$?configure_argv@__scrt_narrow_argv_policy@@SAHXZ 0000000140000000     MSVCRT:utility.obj
 0002:ffff2000       __guard_fids___scrt_set_unhandled_exception_filter 0000000140000000     MSVCRT:utility_desktop.obj
 0000:fffe7000       .debug$S                   0000000140000000     vcruntime:VCRUNTIME140.dll
 0000:fffe7000       .debug$S                   0000000140000000     vcruntime:VCRUNTIME140.dll
 0000:fffe7000       .debug$S                   0000000140000000     vcruntime:VCRUNTIME140.dll
 0000:fffe7000       .debug$S                   0000000140000000     vcruntime:VCRUNTIME140.dll
 0000:fffe7000       .debug$S                   0000000140000000     vcruntime:VCRUNTIME140.dll
 0000:fffe7000       .debug$S                   0000000140000000     vcruntime:VCRUNTIME140.dll
 0000:fffe7000       .debug$S                   0000000140000000     vcruntime:VCRUNTIME140.dll
 0000:fffe7000       .debug$S                   0000000140000000     vcruntime:VCRUNTIME140.dll
 0000:fffe7000       .debug$S                   0000000140000000     vcruntime:VCRUNTIME140.dll
 0000:fffe7000       .debug$S                   0000000140000000     vcruntime:VCRUNTIME140.dll
 0002:ffff2000       $unwind$??1?$Vector@D@bento@@QEAA@XZ 0000000140000000     noiseless_sdk:compiler.obj
 0004:fffeb000       $pdata$??1?$Vector@D@bento@@QEAA@XZ 0000000140000000     noiseless_sdk:compiler.obj
 0002:ffff2000       $cppxdata$??1?$Vector@D@bento@@QEAA@XZ 0000000140000000     noiseless_sdk:compiler.obj
 0002:ffff2000       $ip2state$??1?$Vector@D@bento@@QEAA@XZ 0000000140000000     noiseless_sdk:compiler.obj
 0002:ffff2000       $unwind$?free@?$Vector@D@bento@@QEAAXXZ 0000000140000000     noiseless_sdk:compiler.obj
 0004:fffeb000       $pdata$?free@?$Vector@D@bento@@QEAAXXZ 0000000140000000     noiseless_sdk:compiler.obj
 0002:ffff2000       $unwind$??1DynamicString@bento@@QEAA@XZ 0000000140000000     noiseless_sdk:compiler.obj
 0004:fffeb000       $pdata$??1DynamicString@bento@@QEAA@XZ 0000000140000000     noiseless_sdk:compiler.obj
 0002:ffff2000       $cppxdata$??1DynamicString@bento@@QEAA@XZ 0000000140000000     noiseless_sdk:compiler.obj
 0002:ffff2000       $stateUnwindMap$??1DynamicString@bento@@QEAA@XZ 0000000140000000     noiseless_sdk:compiler.obj
 0002:ffff2000       $ip2state$??1DynamicString@bento@@QEAA@XZ 0000000140000000     noiseless_sdk:compiler.obj
 0000:fffe7000       .debug$S                   0000000140000000     vcruntime:VCRUNTIME140.dll
 0000:fffe7000       .debug$S                   0000000140000000     vcruntime:VCRUNTIME140.dll
 0000:fffe7000       .debug$S                   0000000140000000     ucrt:api-ms-win-crt-string-l1-1-0.dll
 0000:fffe7000       .debug$S                   0000000140000000     ucrt:api-ms-win-crt-stdio-l1-1-0.dll
 0000:fffe7000       .debug$S                   0000000140000000     ucrt:api-ms-win-crt-stdio-l1-1-0.dll
 0000:fffe7000       .debug$S                   0000000140000000     ucrt:api-ms-win-crt-stdio-l1-1-0.dll
 0000:fffe7000       .debug$S                   0000000140000000     ucrt:api-ms-win-crt-stdio-l1-1-0.dll
 0000:fffe7000       .debug$S                   0000000140000000     ucrt:api-ms-win-crt-stdio-l1-1-0.dll
 0000:fffe7000       .debug$S                   0000000140000000     msvcprt:MSVCP140.dll
 0000:fffe7000       .debug$S                   0000000140000000     ucrt:api-ms-win-crt-stdio-l1-1-0.dll
 0000:fffe7000       .debug$S                   0000000140000000     ucrt:api-ms-win-crt-stdio-l1-1-0.dll
 0000:fffe7000       .debug$S                   0000000140000000     ucrt:api-ms-win-crt-stdio-l1-1-0.dll
 0000:fffe7000       .debug$S                   0000000140000000     ucrt:api-ms-win-crt-runtime-l1-1-0.dll
 0000:fffe7000       .debug$S                   0000000140000000     ucrt:api-ms-win-crt-runtime-l1-1-0.dll
 0000:fffe7000       .debug$S                   0000000140000000     ucrt:api-ms-win-crt-runtime-l1-1-0.dll
 0002:ffff2000       $unwind$??1?$Vector@VDynamicString@bento@@@bento@@QEAA@XZ 0000000140000000     noiseless_sdk:compiler.obj
 0004:fffeb000       $pdata$??1?$Vector@VDynamicString@bento@@@bento@@QEAA@XZ 0000000140000000     noiseless_sdk:compiler.obj
 0002:ffff2000       $cppxdata$??1?$Vector@VDynamicString@bento@@@bento@@QEAA@XZ 0000000140000000     noiseless_sdk:compiler.obj
 0002:ffff2000       $stateUnwindMap$??1?$Vector@VDynamicString@bento@@@bento@@QEAA@XZ 0000000140000000     noiseless_sdk:compiler.obj
 0002:ffff2000       $ip2state$??1?$Vector@VDynamicString@bento@@@bento@@QEAA@XZ 0000000140000000     noiseless_sdk:compiler.obj
 0002:ffff2000       $unwind$?free@?$Vector@VDynamicString@bento@@@bento@@QEAAXXZ 0000000140000000     noiseless_sdk:compiler.obj
 0004:fffeb000       $pdata$?free@?$Vector@VDynamicString@bento@@@bento@@QEAAXXZ 0000000140000000     noiseless_sdk:compiler.obj
 0002:ffff2000       $cppxdata$?free@?$Vector@VDynamicString@bento@@@bento@@QEAAXXZ 0000000140000000     noiseless_sdk:compiler.obj
 0002:ffff2000       $stateUnwindMap$?free@?$Vector@VDynamicString@bento@@@bento@@QEAAXXZ 0000000140000000     noiseless_sdk:compiler.obj
 0002:ffff2000       $ip2state$?free@?$Vector@VDynamicString@bento@@@bento@@QEAAXXZ 0000000140000000     noiseless_sdk:compiler.obj
 0002:ffff2000       $unwind$?clear@?$Vector@VDynamicString@bento@@@bento@@QEAAXXZ 0000000140000000     noiseless_sdk:compiler.obj
 0004:fffeb000       $pdata$?clear@?$Vector@VDynamicString@bento@@@bento@@QEAAXXZ 0000000140000000     noiseless_sdk:compiler.obj
 0002:ffff2000       $cppxdata$?clear@?$Vector@VDynamicString@bento@@@bento@@QEAAXXZ 0000000140000000     noiseless_sdk:compiler.obj
 0002:ffff2000       $stateUnwindMap$?clear@?$Vector@VDynamicString@bento@@@bento@@QEAAXXZ 0000000140000000     noiseless_sdk:compiler.obj
 0002:ffff2000       $ip2state$?clear@?$Vector@VDynamicString@bento@@@bento@@QEAAXXZ 0000000140000000     noiseless_sdk:compiler.obj
 0000:fffe7000       .debug$S                   0000000140000000     ucrt:api-ms-win-crt-runtime-l1-1-0.dll
 0000:fffe7000       .debug$S                   0000000140000000     ucrt:api-ms-win-crt-runtime-l1-1-0.dll
 0000:fffe7000       .debug$S                   0000000140000000     ucrt:api-ms-win-crt-runtime-l1-1-0.dll
 0000:fffe7000       .debug$S                   0000000140000000     ucrt:api-ms-win-crt-runtime-l1-1-0.dll
 0000:fffe7000       .debug$S                   0000000140000000     ucrt:api-ms-win-crt-runtime-l1-1-0.dll
 0000:fffe7000       .debug$S                   0000000140000000     ucrt:api-ms-win-crt-runtime-l1-1-0.dll
 0000:fffe7000       .debug$S                   0000000140000000     ucrt:api-ms-win-crt-runtime-l1-1-0.dll
 0000:fffe7000       .debug$S                   0000000140000000     ucrt:api-ms-win-crt-runtime-l1-1-0.dll
 0000:fffe7000       .debug$S                   0000000140000000     ucrt:api-ms-win-crt-runtime-l1-1-0.dll
 0000:fffe7000       .debug$S                   0000000140000000     ucrt:api-ms-win-crt-runtime-l1-1-0.dll
 0000:fffe7000       .debug$S                   0000000140000000     ucrt:api-ms-win-crt-runtime-l1-1-0.dll
 0000:fffe7000       .debug$S                   0000000140000000     ucrt:api-ms-win-crt-runtime-l1-1-0.dll
 0000:fffe7000       .debug$S                   0000000140000000     ucrt:api-ms-win-crt-runtime-l1-1-0.dll
 0000:fffe7000       .debug$S                   0000000140000000     ucrt:api-ms-win-crt-runtime-l1-1-0.dll
 0000:fffe7000       .debug$S                   0000000140000000     ucrt:api-ms-win-crt-runtime-l1-1-0.dll
 0000:fffe7000       .debug$S                   0000000140000000     ucrt:api-ms-win-crt-runtime-l1-1-0.dll
 0000:fffe7000       .debug$S                   0000000140000000     ucrt:api-ms-win-crt-runtime-l1-1-0.dll
 0000:fffe7000       .debug$S                   0000000140000000     ucrt:api-ms-win-crt-runtime-l1-1-0.dll
 0002:ffff2000       $ip2state$??1DynamicString@bento@@QEAA@XZ 0000000140000000     bento_sdk:asset_database.obj
 0002:ffff2000       $stateUnwindMap$??1DynamicString@bento@@QEAA@XZ 0000000140000000     bento_sdk:asset_database.obj
 0002:ffff2000       $cppxdata$??1DynamicString@bento@@QEAA@XZ 0000000140000000     bento_sdk:asset_database.obj
 0004:fffeb000       $pdata$??1DynamicString@bento@@QEAA@XZ 0000000140000000     bento_sdk:asset_database.obj
 0002:ffff2000       $unwind$??1DynamicString@bento@@QEAA@XZ 0000000140000000     bento_sdk:asset_database.obj
 0000:fffe7000       .debug$S                   0000000140000000     ucrt:api-ms-win-crt-runtime-l1-1-0.dll
 0004:fffeb000       $pdata$?reserve@?$Vector@D@bento@@QEAAXI@Z 0000000140000000     bento_sdk:asset_database.obj
 0002:ffff2000       $unwind$?reserve@?$Vector@D@bento@@QEAAXI@Z 0000000140000000     bento_sdk:asset_database.obj
 0004:fffeb000       $pdata$?free@?$Vector@D@bento@@QEAAXXZ 0000000140000000     bento_sdk:asset_database.obj
 0002:ffff2000       $unwind$?free@?$Vector@D@bento@@QEAAXXZ 0000000140000000     bento_sdk:asset_database.obj
 0004:fffeb000       $pdata$?resize@?$Vector@D@bento@@QEAAXI@Z 0000000140000000     bento_sdk:asset_database.obj
 0002:ffff2000       $unwind$?resize@?$Vector@D@bento@@QEAAXI@Z 0000000140000000     bento_sdk:asset_database.obj
 0002:ffff2000       $ip2state$??1?$Vector@D@bento@@QEAA@XZ 0000000140000000     bento_sdk:asset_database.obj
 0002:ffff2000       $cppxdata$??1?$Vector@D@bento@@QEAA@XZ 0000000140000000     bento_sdk:asset_database.obj
 0004:fffeb000       $pdata$??1?$Vector@D@bento@@QEAA@XZ 0000000140000000     bento_sdk:asset_database.obj
 0002:ffff2000       $unwind$??1?$Vector@D@bento@@QEAA@XZ 0000000140000000     bento_sdk:asset_database.obj
 0000:fffe7000       .debug$S                   0000000140000000     ucrt:api-ms-win-crt-runtime-l1-1-0.dll
 0000:fffe7000       .debug$S                   0000000140000000     ucrt:api-ms-win-crt-runtime-l1-1-0.dll
 0000:fffe7000       .debug$S                   0000000140000000     ucrt:api-ms-win-crt-filesystem-l1-1-0.dll
 0000:fffe7000       .debug$S                   0000000140000000     ucrt:api-ms-win-crt-math-l1-1-0.dll
 0000:fffe7000       .debug$S                   0000000140000000     ucrt:api-ms-win-crt-math-l1-1-0.dll
 0004:fffeb000       $pdata$??$unpack_vector_bytes@D@bento@@YAXAEAPEBDAEAV?$Vector@D@0@@Z 0000000140000000     bento_sdk:dynamic_string.obj
 0000:fffe7000       .debug$S                   0000000140000000     ucrt:api-ms-win-crt-heap-l1-1-0.dll
 0002:ffff2000       $unwind$??$unpack_vector_bytes@D@bento@@YAXAEAPEBDAEAV?$Vector@D@0@@Z 0000000140000000     bento_sdk:dynamic_string.obj
 0000:fffe7000       .debug$S                   0000000140000000     ucrt:api-ms-win-crt-heap-l1-1-0.dll
 0004:fffeb000       $pdata$??$pack_vector_bytes@D@bento@@YAXAEAV?$Vector@D@0@AEBV10@@Z 0000000140000000     bento_sdk:dynamic_string.obj
 0000:fffe7000       .debug$S                   0000000140000000     ucrt:api-ms-win-crt-heap-l1-1-0.dll
 0002:ffff2000       $unwind$??$pack_vector_bytes@D@bento@@YAXAEAV?$Vector@D@0@AEBV10@@Z 0000000140000000     bento_sdk:dynamic_string.obj
 0000:fffe7000       .debug$S                   0000000140000000     ucrt:api-ms-win-crt-heap-l1-1-0.dll
 0004:fffeb000       $pdata$?reserve@?$Vector@D@bento@@QEAAXI@Z 0000000140000000     bento_sdk:dynamic_string.obj
 0000:fffe7000       .debug$S                   0000000140000000     ucrt:api-ms-win-crt-heap-l1-1-0.dll
 0002:ffff2000       $unwind$?reserve@?$Vector@D@bento@@QEAAXI@Z 0000000140000000     bento_sdk:dynamic_string.obj
 0000:fffe7000       .debug$S                   0000000140000000     ucrt:api-ms-win-crt-heap-l1-1-0.dll
 0002:ffff2000       $unwind$?resize@?$Vector@D@bento@@QEAAXI@Z 0000000140000000     bento_sdk:stream.obj
 0004:fffeb000       $pdata$?resize@?$Vector@D@bento@@QEAAXI@Z 0000000140000000     bento_sdk:stream.obj
 0002:ffff2000       $unwind$?reserve@?$Vector@D@bento@@QEAAXI@Z 0000000140000000     bento_sdk:stream.obj
 0004:fffeb000       $pdata$?reserve@?$Vector@D@bento@@QEAAXI@Z 0000000140000000     bento_sdk:stream.obj
 0004:fffeb000       $pdata$?free@?$Vector@D@bento@@QEAAXXZ 0000000140000000     bento_sdk:dynamic_string.obj
 0002:ffff2000       $unwind$?free@?$Vector@D@bento@@QEAAXXZ 0000000140000000     bento_sdk:dynamic_string.obj
 0004:fffeb000       $pdata$?resize@?$Vector@D@bento@@QEAAXI@Z 0000000140000000     bento_sdk:dynamic_string.obj
 0000:fffe7000       .debug$S                   0000000140000000     ucrt:api-ms-win-crt-heap-l1-1-0.dll
 0002:ffff2000       $unwind$?resize@?$Vector@D@bento@@QEAAXI@Z 0000000140000000     bento_sdk:dynamic_string.obj
 0002:ffff2000       $ip2state$??1?$Vector@D@bento@@QEAA@XZ 0000000140000000     bento_sdk:dynamic_string.obj
 0002:ffff2000       $cppxdata$??1?$Vector@D@bento@@QEAA@XZ 0000000140000000     bento_sdk:dynamic_string.obj
 0000:fffe7000       .debug$S                   0000000140000000     ucrt:api-ms-win-crt-locale-l1-1-0.dll
 0004:fffeb000       $pdata$??1?$Vector@D@bento@@QEAA@XZ 0000000140000000     bento_sdk:dynamic_string.obj
 0000:fffe7000       .debug$S                   0000000140000000     ucrt:api-ms-win-crt-locale-l1-1-0.dll
 0002:ffff2000       $unwind$??1?$Vector@D@bento@@QEAA@XZ 0000000140000000     bento_sdk:dynamic_string.obj
 0000:fffe7000       .debug$S                   0000000140000000     ucrt:api-ms-win-crt-math-l1-1-0.dll
 0002:ffff2004       __guard_fids__             0000000140000004     MSVCRT:exe_main.obj
 0002:ffff2008       __guard_fids__             0000000140000008     MSVCRT:exe_main.obj
 0001:00000000       ??__E__common_allocator@bento@@YAXXZ 0000000140001000 f   bento_sdk:common.obj
 0001:00000020       ??__E__default_system_logger@bento@@YAXXZ 0000000140001020 f   bento_sdk:log.obj
 0001:00002700       ??$_Reallocate_grow_by@V<lambda_f3a66ab6a0570788f31503db83886f49>@@_KPEBD_K@?$basic_string@DU?$char_traits@D@std@@V?$allocator@D@2@@std@@QEAAAEAV01@_KV<lambda_f3a66ab6a0570788f31503db83886f49>@@_KPEBD2@Z 0000000140003700 f   bento_sdk:asset_database.obj
 0001:00003600       $LN1335                    0000000140004600     bento_sdk:asset_database.obj
 0001:00003cf8       $LN376                     0000000140004cf8     bento_sdk:asset_database.obj
 0001:00004080       ??1?$unique_ptr@V?$basic_string@DU?$char_traits@D@std@@V?$allocator@D@2@@std@@V<lambda_cf98b93bdbc3b868a88fa8eb27c16a69>@@@std@@QEAA@XZ 0000000140005080 f   bento_sdk:asset_database.obj
 0001:000040a0       ??1?$unique_ptr@V?$basic_string@DU?$char_traits@D@std@@V?$allocator@D@2@@std@@V<lambda_dba2dfefec9bdf18d167cd7ba98562ad>@@@std@@QEAA@XZ 00000001400050a0 f   bento_sdk:asset_database.obj
 0001:000040c0       ??1?$unique_ptr@V?$map@V?$basic_string@DU?$char_traits@D@std@@V?$allocator@D@2@@std@@V?$basic_json@Vmap@std@@Vvector@2@V?$basic_string@DU?$char_traits@D@std@@V?$allocator@D@2@@2@_N_J_KNVallocator@2@Uadl_serializer@nlohmann@@@nlohmann@@U?$less@V?$basic_string@DU?$char_traits@D@std@@V?$allocator@D@2@@std@@@2@V?$allocator@U?$pair@$$CBV?$basic_string@DU?$char_traits@D@std@@V?$allocator@D@2@@std@@V?$basic_json@Vmap@std@@Vvector@2@V?$basic_string@DU?$char_traits@D@std@@V?$allocator@D@2@@2@_N_J_KNVallocator@2@Uadl_serializer@nlohmann@@@nlohmann@@@std@@@2@@std@@V<lambda_1e4542c3baa2e38d57832dd62f03da01>@@@std@@QEAA@XZ 00000001400050c0 f   bento_sdk:asset_database.obj
 0001:000040e0       ??1?$unique_ptr@V?$map@V?$basic_string@DU?$char_traits@D@std@@V?$allocator@D@2@@std@@V?$basic_json@Vmap@std@@Vvector@2@V?$basic_string@DU?$char_traits@D@std@@V?$allocator@D@2@@2@_N_J_KNVallocator@2@Uadl_serializer@nlohmann@@@nlohmann@@U?$less@V?$basic_string@DU?$char_traits@D@std@@V?$allocator@D@2@@std@@@2@V?$allocator@U?$pair@$$CBV?$basic_string@DU?$char_traits@D@std@@V?$allocator@D@2@@std@@V?$basic_json@Vmap@std@@Vvector@2@V?$basic_string@DU?$char_traits@D@std@@V?$allocator@D@2@@2@_N_J_KNVallocator@2@Uadl_serializer@nlohmann@@@nlohmann@@@std@@@2@@std@@V<lambda_2eace259b7d13a125de19983fff91cb5>@@@std@@QEAA@XZ 00000001400050e0 f   bento_sdk:asset_database.obj
 0001:00004100       ??1?$unique_ptr@V?$vector@V?$basic_json@Vmap@std@@Vvector@2@V?$basic_string@DU?$char_traits@D@std@@V?$allocator@D@2@@2@_N_J_KNVallocator@2@Uadl_serializer@nlohmann@@@nlohmann@@V?$allocator@V?$basic_json@Vmap@std@@Vvector@2@V?$basic_string@DU?$char_traits@D@std@@V?$allocator@D@2@@2@_N_J_KNVallocator@2@Uadl_serializer@nlohmann@@@nlohmann@@@std@@@std@@V<lambda_6c491cd8f4c682378542992818b9a23c>@@@std@@QEAA@XZ 0000000140005100 f   bento_sdk:asset_database.obj
 0001:00004120       ??1?$unique_ptr@V?$vector@V?$basic_json@Vmap@std@@Vvector@2@V?$basic_string@DU?$char_traits@D@std@@V?$allocator@D@2@@2@_N_J_KNVallocator@2@Uadl_serializer@nlohmann@@@nlohmann@@V?$allocator@V?$basic_json@Vmap@std@@Vvector@2@V?$basic_string@DU?$char_traits@D@std@@V?$allocator@D@2@@2@_N_J_KNVallocator@2@Uadl_serializer@nlohmann@@@nlohmann@@@std@@@std@@V<lambda_a982f39e461a7dae52fb4bd1a04d9e66>@@@std@@QEAA@XZ 0000000140005120 f   bento_sdk:asset_database.obj
 0001:00005fe4       $LN1056                    0000000140006fe4     bento_sdk:asset_database.obj
 0001:000065bc       $LN773                     00000001400075bc     bento_sdk:asset_database.obj
 0001:000065dc       $LN772                     00000001400075dc     bento_sdk:asset_database.obj
 0001:00008704       $LN12                      0000000140009704     bento_sdk:asset_database.obj
 0001:00009560       _wclosedir                 000000014000a560 f   bento_sdk:file_system.obj
 0001:000095d0       dirent_first               000000014000a5d0 f   bento_sdk:file_system.obj
 0001:00009620       opendir                    000000014000a620 f   bento_sdk:file_system.obj
 0001:0000a00c       $LN20                      000000014000b00c     bento_sdk:hash.obj
 0001:0000a45c       ??$_Reverse_tail@PEAE@@YAXPEAE0@Z 000000014000b45c f   msvcprt:vector_algorithms.obj
 0001:0000a47c       ??$_Reverse_tail@PEAG@@YAXPEAG0@Z 000000014000b47c f   msvcprt:vector_algorithms.obj
 0001:0000a4a0       ??$_Reverse_tail@PEAK@@YAXPEAK0@Z 000000014000b4a0 f   msvcprt:vector_algorithms.obj
 0001:0000a4c0       ??$_Reverse_tail@PEA_K@@YAXPEA_K0@Z 000000014000b4c0 f   msvcprt:vector_algorithms.obj
 0001:0000a4e4       ?_Advance_bytes@@YAXAEAPEAX_J@Z 000000014000b4e4 f   msvcprt:vector_algorithms.obj
 0001:0000a4e8       ?_Byte_length@@YA_KPEAX0@Z 000000014000b4e8 f   msvcprt:vector_algorithms.obj
 0001:0000a8c8       ?pre_c_initialization@@YAHXZ 000000014000b8c8 f   MSVCRT:exe_main.obj
 0001:0000a984       ?post_pgo_initialization@@YAHXZ 000000014000b984 f   MSVCRT:exe_main.obj
 0001:0000a994       ?pre_cpp_initialization@@YAXXZ 000000014000b994 f   MSVCRT:exe_main.obj
 0001:0000a9b0       ?__scrt_common_main@@YAHXZ 000000014000b9b0 f   MSVCRT:exe_main.obj
 0001:0000a9c4       ?__scrt_common_main_seh@@YAHXZ 000000014000b9c4 f   MSVCRT:exe_main.obj
 0001:0000ab60       ?invoke_main@@YAHXZ        000000014000bb60 f   MSVCRT:exe_main.obj
 0001:0000ac70       $$000000                   000000014000bc70     MSVCRT:_amdsecgs_.obj
 0001:0000ace8       ?find_pe_section@@YAPEAU_IMAGE_SECTION_HEADER@@QEAE_K@Z 000000014000bce8 f   MSVCRT:utility.obj
 0001:0000ad34       ?is_potentially_valid_image_base@@YA_NQEAX@Z 000000014000bd34 f   MSVCRT:utility.obj
 0001:0000b20c       ?ArrayUnwindFilter@@YAHPEAU_EXCEPTION_POINTERS@@@Z 000000014000c20c f   MSVCRT:ehvecdtr.obj
 0001:0000b544       __get_entropy              000000014000c544 f   MSVCRT:gs_support.obj
 0001:0000bc80       capture_current_context    000000014000cc80 f   MSVCRT:gs_report.obj
 0001:0000bcf0       capture_previous_context   000000014000ccf0 f   MSVCRT:gs_report.obj
 0001:0000c240       $$000000                   000000014000d240     MSVCRT:_guard_dispatch_.obj
 0001:0000c260       $$000000                   000000014000d260     MSVCRT:_rfgfailure_.obj
 0001:0000c320       ?dtor$6@?0??resize@?$Vector@VDynamicString@bento@@@bento@@QEAAXI@Z@4HA 000000014000d320 f   testCompiler.obj
 0001:0000c33c       ?dtor$8@?0??resize@?$Vector@VDynamicString@bento@@@bento@@QEAAXI@Z@4HA 000000014000d33c f   testCompiler.obj
 0001:0000c360       main$dtor$0                000000014000d360 f   testCompiler.obj
 0001:0000c36c       main$dtor$3                000000014000d36c f   testCompiler.obj
 0001:0000c378       main$dtor$1                000000014000d378 f   testCompiler.obj
 0001:0000c384       main$dtor$2                000000014000d384 f   testCompiler.obj
 0001:0000c390       ?dtor$0@?0??compile@asset_compiler@noiseless@@YA_NAEBUTCompilerOptions@2@AEAVTAssetDatabase@bento@@@Z@4HA 000000014000d390 f   noiseless_sdk:compiler.obj
 0001:0000c39c       ?dtor$1@?0??compile@asset_compiler@noiseless@@YA_NAEBUTCompilerOptions@2@AEAVTAssetDatabase@bento@@@Z@4HA 000000014000d39c f   noiseless_sdk:compiler.obj
 0001:0000c3a8       ?dtor$2@?0??compile@asset_compiler@noiseless@@YA_NAEBUTCompilerOptions@2@AEAVTAssetDatabase@bento@@@Z@4HA 000000014000d3a8 f   noiseless_sdk:compiler.obj
 0001:0000c3c0       ?dtor$0@?0??write@asset_compiler@noiseless@@YAXAEBUTCompilerOptions@2@AEBVTAssetDatabase@bento@@@Z@4HA 000000014000d3c0 f   noiseless_sdk:compiler.obj
 0001:0000c3d0       ?dtor$0@?0??read_database@noiseless@@YA_NPEBDAEAVTAssetDatabase@bento@@@Z@4HA 000000014000d3d0 f   noiseless_sdk:asset_database_helpers.obj
 0001:0000c3dc       ?dtor$1@?0??read_database@noiseless@@YA_NPEBDAEAVTAssetDatabase@bento@@@Z@4HA 000000014000d3dc f   noiseless_sdk:asset_database_helpers.obj
 0001:0000c3e8       ?dtor$2@?0??read_database@noiseless@@YA_NPEBDAEAVTAssetDatabase@bento@@@Z@4HA 000000014000d3e8 f   noiseless_sdk:asset_database_helpers.obj
 0001:0000c3f4       ?dtor$3@?0??read_database@noiseless@@YA_NPEBDAEAVTAssetDatabase@bento@@@Z@4HA 000000014000d3f4 f   noiseless_sdk:asset_database_helpers.obj
 0001:0000c400       ?dtor$0@?0??write_database@noiseless@@YA_NPEBDAEBVTAssetDatabase@bento@@@Z@4HA 000000014000d400 f   noiseless_sdk:asset_database_helpers.obj
 0001:0000c40c       ?dtor$1@?0??write_database@noiseless@@YA_NPEBDAEBVTAssetDatabase@bento@@@Z@4HA 000000014000d40c f   noiseless_sdk:asset_database_helpers.obj
 0001:0000c418       ?dtor$2@?0??write_database@noiseless@@YA_NPEBDAEBVTAssetDatabase@bento@@@Z@4HA 000000014000d418 f   noiseless_sdk:asset_database_helpers.obj
 0001:0000c424       ?dtor$3@?0??write_database@noiseless@@YA_NPEBDAEBVTAssetDatabase@bento@@@Z@4HA 000000014000d424 f   noiseless_sdk:asset_database_helpers.obj
 0001:0000c430       ?dtor$0@?0??write_database_debug@noiseless@@YA_NPEBDAEBVTAssetDatabase@bento@@@Z@4HA 000000014000d430 f   noiseless_sdk:asset_database_helpers.obj
 0001:0000c43c       ?dtor$1@?0??write_database_debug@noiseless@@YA_NPEBDAEBVTAssetDatabase@bento@@@Z@4HA 000000014000d43c f   noiseless_sdk:asset_database_helpers.obj
 0001:0000c448       ?dtor$2@?0??write_database_debug@noiseless@@YA_NPEBDAEBVTAssetDatabase@bento@@@Z@4HA 000000014000d448 f   noiseless_sdk:asset_database_helpers.obj
 0001:0000c454       ?dtor$3@?0??write_database_debug@noiseless@@YA_NPEBDAEBVTAssetDatabase@bento@@@Z@4HA 000000014000d454 f   noiseless_sdk:asset_database_helpers.obj
 0001:0000c460       ?dtor$0@?0???0DynamicString@bento@@QEAA@AEAVIAllocator@1@@Z@4HA 000000014000d460 f   bento_sdk:dynamic_string.obj
 0001:0000c470       ?dtor$0@?0???0DynamicString@bento@@QEAA@AEAVIAllocator@1@I@Z@4HA 000000014000d470 f   bento_sdk:dynamic_string.obj
 0001:0000c480       ?dtor$0@?0???0DynamicString@bento@@QEAA@AEAVIAllocator@1@PEBD@Z@4HA 000000014000d480 f   bento_sdk:dynamic_string.obj
 0001:0000c490       ?dtor$0@?0???0DynamicString@bento@@QEAA@AEBV01@@Z@4HA 000000014000d490 f   bento_sdk:dynamic_string.obj
 0001:0000c4a0       ?dtor$1@?0??substr@string@bento@@YA?AVDynamicString@2@AEBV32@II@Z@4HA 000000014000d4a0 f   bento_sdk:dynamic_string.obj
 0001:0000c4b0       ?dtor$0@?0???$?HDU?$char_traits@D@std@@V?$allocator@D@1@@std@@YA?AV?$basic_string@DU?$char_traits@D@std@@V?$allocator@D@2@@0@QEBDAEBV10@@Z@4HA 000000014000d4b0 f   bento_sdk:asset_database.obj
 0001:0000c4e0       ?dtor$30@?0???$_Copy_nodes@U_Copy_tag@?$_Tree@V?$_Tmap_traits@V?$basic_string@DU?$char_traits@D@std@@V?$allocator@D@2@@std@@V?$basic_json@Vmap@std@@Vvector@2@V?$basic_string@DU?$char_traits@D@std@@V?$allocator@D@2@@2@_N_J_KNVallocator@2@Uadl_serializer@nlohmann@@@nlohmann@@U?$less@V?$basic_string@DU?$char_traits@D@std@@V?$allocator@D@2@@std@@@2@V?$allocator@U?$pair@$$CBV?$basic_string@DU?$char_traits@D@std@@V?$allocator@D@2@@std@@V?$basic_json@Vmap@std@@Vvector@2@V?$basic_string@DU?$char_traits@D@std@@V?$allocator@D@2@@2@_N_J_KNVallocator@2@Uadl_serializer@nlohmann@@@nlohmann@@@std@@@2@$0A@@std@@@std@@@?$_Tree@V?$_Tmap_traits@V?$basic_string@DU?$char_traits@D@std@@V?$allocator@D@2@@std@@V?$basic_json@Vmap@std@@Vvector@2@V?$basic_string@DU?$char_traits@D@std@@V?$allocator@D@2@@2@_N_J_KNVallocator@2@Uadl_serializer@nlohmann@@@nlohmann@@U?$less@V?$basic_string@DU?$char_traits@D@std@@V?$allocator@D@2@@std@@@2@V?$allocator@U?$pair@$$CBV?$basic_string@DU?$char_traits@D@std@@V?$allocator@D@2@@std@@V?$basic_json@Vmap@std@@Vvector@2@V?$basic_string@DU?$char_traits@D@std@@V?$allocator@D@2@@2@_N_J_KNVallocator@2@Uadl_serializer@nlohmann@@@nlohmann@@@std@@@2@$0A@@std@@@std@@IEAAPEAU?$_Tree_node@U?$pair@$$CBV?$basic_string@DU?$char_traits@D@std@@V?$allocator@D@2@@std@@V?$basic_json@Vmap@std@@Vvector@2@V?$basic_string@DU?$char_traits@D@std@@V?$allocator@D@2@@2@_N_J_KNVallocator@2@Uadl_serializer@nlohmann@@@nlohmann@@@std@@PEAX@1@PEAU21@0U_Copy_tag@01@@Z@4HA 000000014000d4e0 f   bento_sdk:asset_database.obj
 0001:0000c4fc       ?dtor$32@?0???$_Copy_nodes@U_Copy_tag@?$_Tree@V?$_Tmap_traits@V?$basic_string@DU?$char_traits@D@std@@V?$allocator@D@2@@std@@V?$basic_json@Vmap@std@@Vvector@2@V?$basic_string@DU?$char_traits@D@std@@V?$allocator@D@2@@2@_N_J_KNVallocator@2@Uadl_serializer@nlohmann@@@nlohmann@@U?$less@V?$basic_string@DU?$char_traits@D@std@@V?$allocator@D@2@@std@@@2@V?$allocator@U?$pair@$$CBV?$basic_string@DU?$char_traits@D@std@@V?$allocator@D@2@@std@@V?$basic_json@Vmap@std@@Vvector@2@V?$basic_string@DU?$char_traits@D@std@@V?$allocator@D@2@@2@_N_J_KNVallocator@2@Uadl_serializer@nlohmann@@@nlohmann@@@std@@@2@$0A@@std@@@std@@@?$_Tree@V?$_Tmap_traits@V?$basic_string@DU?$char_traits@D@std@@V?$allocator@D@2@@std@@V?$basic_json@Vmap@std@@Vvector@2@V?$basic_string@DU?$char_traits@D@std@@V?$allocator@D@2@@2@_N_J_KNVallocator@2@Uadl_serializer@nlohmann@@@nlohmann@@U?$less@V?$basic_string@DU?$char_traits@D@std@@V?$allocator@D@2@@std@@@2@V?$allocator@U?$pair@$$CBV?$basic_string@DU?$char_traits@D@std@@V?$allocator@D@2@@std@@V?$basic_json@Vmap@std@@Vvector@2@V?$basic_string@DU?$char_traits@D@std@@V?$allocator@D@2@@2@_N_J_KNVallocator@2@Uadl_serializer@nlohmann@@@nlohmann@@@std@@@2@$0A@@std@@@std@@IEAAPEAU?$_Tree_node@U?$pair@$$CBV?$basic_string@DU?$char_traits@D@std@@V?$allocator@D@2@@std@@V?$basic_json@Vmap@std@@Vvector@2@V?$basic_string@DU?$char_traits@D@std@@V?$allocator@D@2@@2@_N_J_KNVallocator@2@Uadl_serializer@nlohmann@@@nlohmann@@@std@@PEAX@1@PEAU21@0U_Copy_tag@01@@Z@4HA 000000014000d4fc f   bento_sdk:asset_database.obj
 0001:0000c510       ?dtor$0@?0???$create@V?$map@V?$basic_string@DU?$char_traits@D@std@@V?$allocator@D@2@@std@@V?$basic_json@Vmap@std@@Vvector@2@V?$basic_string@DU?$char_traits@D@std@@V?$allocator@D@2@@2@_N_J_KNVallocator@2@Uadl_serializer@nlohmann@@@nlohmann@@U?$less@V?$basic_string@DU?$char_traits@D@std@@V?$allocator@D@2@@std@@@2@V?$allocator@U?$pair@$$CBV?$basic_string@DU?$char_traits@D@std@@V?$allocator@D@2@@std@@V?$basic_json@Vmap@std@@Vvector@2@V?$basic_string@DU?$char_traits@D@std@@V?$allocator@D@2@@2@_N_J_KNVallocator@2@Uadl_serializer@nlohmann@@@nlohmann@@@std@@@2@@std@@$$V@?$basic_json@Vmap@std@@Vvector@2@V?$basic_string@DU?$char_traits@D@std@@V?$allocator@D@2@@2@_N_J_KNVallocator@2@Uadl_serializer@nlohmann@@@nlohmann@@CAPEAV?$map@V?$basic_string@DU?$char_traits@D@std@@V?$allocator@D@2@@std@@V?$basic_json@Vmap@std@@Vvector@2@V?$basic_string@DU?$char_traits@D@std@@V?$allocator@D@2@@2@_N_J_KNVallocator@2@Uadl_serializer@nlohmann@@@nlohmann@@U?$less@V?$basic_string@DU?$char_traits@D@std@@V?$allocator@D@2@@std@@@2@V?$allocator@U?$pair@$$CBV?$basic_string@DU?$char_traits@D@std@@V?$allocator@D@2@@std@@V?$basic_json@Vmap@std@@Vvector@2@V?$basic_string@DU?$char_traits@D@std@@V?$allocator@D@2@@2@_N_J_KNVallocator@2@Uadl_serializer@nlohmann@@@nlohmann@@@std@@@2@@std@@XZ@4HA 000000014000d510 f   bento_sdk:asset_database.obj
 0001:0000c51c       ?dtor$9@?0???$create@V?$map@V?$basic_string@DU?$char_traits@D@std@@V?$allocator@D@2@@std@@V?$basic_json@Vmap@std@@Vvector@2@V?$basic_string@DU?$char_traits@D@std@@V?$allocator@D@2@@2@_N_J_KNVallocator@2@Uadl_serializer@nlohmann@@@nlohmann@@U?$less@V?$basic_string@DU?$char_traits@D@std@@V?$allocator@D@2@@std@@@2@V?$allocator@U?$pair@$$CBV?$basic_string@DU?$char_traits@D@std@@V?$allocator@D@2@@std@@V?$basic_json@Vmap@std@@Vvector@2@V?$basic_string@DU?$char_traits@D@std@@V?$allocator@D@2@@2@_N_J_KNVallocator@2@Uadl_serializer@nlohmann@@@nlohmann@@@std@@@2@@std@@$$V@?$basic_json@Vmap@std@@Vvector@2@V?$basic_string@DU?$char_traits@D@std@@V?$allocator@D@2@@2@_N_J_KNVallocator@2@Uadl_serializer@nlohmann@@@nlohmann@@CAPEAV?$map@V?$basic_string@DU?$char_traits@D@std@@V?$allocator@D@2@@std@@V?$basic_json@Vmap@std@@Vvector@2@V?$basic_string@DU?$char_traits@D@std@@V?$allocator@D@2@@2@_N_J_KNVallocator@2@Uadl_serializer@nlohmann@@@nlohmann@@U?$less@V?$basic_string@DU?$char_traits@D@std@@V?$allocator@D@2@@std@@@2@V?$allocator@U?$pair@$$CBV?$basic_string@DU?$char_traits@D@std@@V?$allocator@D@2@@std@@V?$basic_json@Vmap@std@@Vvector@2@V?$basic_string@DU?$char_traits@D@std@@V?$allocator@D@2@@2@_N_J_KNVallocator@2@Uadl_serializer@nlohmann@@@nlohmann@@@std@@@2@@std@@XZ@4HA 000000014000d51c f   bento_sdk:asset_database.obj
 0001:0000c540       ?dtor$0@?0???$to_json@V?$basic_json@Vmap@std@@Vvector@2@V?$basic_string@DU?$char_traits@D@std@@V?$allocator@D@2@@2@_N_J_KNVallocator@2@Uadl_serializer@nlohmann@@@nlohmann@@$$BY04D$0A@@detail@nlohmann@@YAXAEAV?$basic_json@Vmap@std@@Vvector@2@V?$basic_string@DU?$char_traits@D@std@@V?$allocator@D@2@@2@_N_J_KNVallocator@2@Uadl_serializer@nlohmann@@@1@AEAY04$$CBD@Z@4HA 000000014000d540 f   bento_sdk:asset_database.obj
 0001:0000c550       ?dtor$0@?0???$to_json@V?$basic_json@Vmap@std@@Vvector@2@V?$basic_string@DU?$char_traits@D@std@@V?$allocator@D@2@@2@_N_J_KNVallocator@2@Uadl_serializer@nlohmann@@@nlohmann@@PEBD$0A@@detail@nlohmann@@YAXAEAV?$basic_json@Vmap@std@@Vvector@2@V?$basic_string@DU?$char_traits@D@std@@V?$allocator@D@2@@2@_N_J_KNVallocator@2@Uadl_serializer@nlohmann@@@1@AEBQEBD@Z@4HA 000000014000d550 f   bento_sdk:asset_database.obj
 0001:0000c560       ?dtor$1@?0???0?$basic_json@Vmap@std@@Vvector@2@V?$basic_string@DU?$char_traits@D@std@@V?$allocator@D@2@@2@_N_J_KNVallocator@2@Uadl_serializer@nlohmann@@@nlohmann@@QEAA@AEBV01@@Z@4HA 000000014000d560 f   bento_sdk:asset_database.obj
 0001:0000c56c       ?dtor$11@?0???0?$basic_json@Vmap@std@@Vvector@2@V?$basic_string@DU?$char_traits@D@std@@V?$allocator@D@2@@2@_N_J_KNVallocator@2@Uadl_serializer@nlohmann@@@nlohmann@@QEAA@AEBV01@@Z@4HA 000000014000d56c f   bento_sdk:asset_database.obj
 0001:0000c58e       ?dtor$17@?0???0?$basic_json@Vmap@std@@Vvector@2@V?$basic_string@DU?$char_traits@D@std@@V?$allocator@D@2@@2@_N_J_KNVallocator@2@Uadl_serializer@nlohmann@@@nlohmann@@QEAA@AEBV01@@Z@4HA 000000014000d58e f   bento_sdk:asset_database.obj
 0001:0000c59a       ?dtor$221@?0???0?$basic_json@Vmap@std@@Vvector@2@V?$basic_string@DU?$char_traits@D@std@@V?$allocator@D@2@@2@_N_J_KNVallocator@2@Uadl_serializer@nlohmann@@@nlohmann@@QEAA@AEBV01@@Z@4HA 000000014000d59a f   bento_sdk:asset_database.obj
 0001:0000c5a6       ?dtor$231@?0???0?$basic_json@Vmap@std@@Vvector@2@V?$basic_string@DU?$char_traits@D@std@@V?$allocator@D@2@@2@_N_J_KNVallocator@2@Uadl_serializer@nlohmann@@@nlohmann@@QEAA@AEBV01@@Z@4HA 000000014000d5a6 f   bento_sdk:asset_database.obj
 0001:0000c5c8       ?dtor$256@?0???0?$basic_json@Vmap@std@@Vvector@2@V?$basic_string@DU?$char_traits@D@std@@V?$allocator@D@2@@2@_N_J_KNVallocator@2@Uadl_serializer@nlohmann@@@nlohmann@@QEAA@AEBV01@@Z@4HA 000000014000d5c8 f   bento_sdk:asset_database.obj
 0001:0000c5e7       ?dtor$279@?0???0?$basic_json@Vmap@std@@Vvector@2@V?$basic_string@DU?$char_traits@D@std@@V?$allocator@D@2@@2@_N_J_KNVallocator@2@Uadl_serializer@nlohmann@@@nlohmann@@QEAA@AEBV01@@Z@4HA 000000014000d5e7 f   bento_sdk:asset_database.obj
 0001:0000c5f3       ?dtor$289@?0???0?$basic_json@Vmap@std@@Vvector@2@V?$basic_string@DU?$char_traits@D@std@@V?$allocator@D@2@@2@_N_J_KNVallocator@2@Uadl_serializer@nlohmann@@@nlohmann@@QEAA@AEBV01@@Z@4HA 000000014000d5f3 f   bento_sdk:asset_database.obj
 0001:0000c620       ?dtor$0@?0???0?$basic_json@Vmap@std@@Vvector@2@V?$basic_string@DU?$char_traits@D@std@@V?$allocator@D@2@@2@_N_J_KNVallocator@2@Uadl_serializer@nlohmann@@@nlohmann@@QEAA@V?$initializer_list@V?$json_ref@V?$basic_json@Vmap@std@@Vvector@2@V?$basic_string@DU?$char_traits@D@std@@V?$allocator@D@2@@2@_N_J_KNVallocator@2@Uadl_serializer@nlohmann@@@nlohmann@@@detail@nlohmann@@@std@@_NW4value_t@detail@1@@Z@4HA 000000014000d620 f   bento_sdk:asset_database.obj
 0001:0000c62c       ?dtor$68@?0???0?$basic_json@Vmap@std@@Vvector@2@V?$basic_string@DU?$char_traits@D@std@@V?$allocator@D@2@@2@_N_J_KNVallocator@2@Uadl_serializer@nlohmann@@@nlohmann@@QEAA@V?$initializer_list@V?$json_ref@V?$basic_json@Vmap@std@@Vvector@2@V?$basic_string@DU?$char_traits@D@std@@V?$allocator@D@2@@2@_N_J_KNVallocator@2@Uadl_serializer@nlohmann@@@nlohmann@@@detail@nlohmann@@@std@@_NW4value_t@detail@1@@Z@4HA 000000014000d62c f   bento_sdk:asset_database.obj
 0001:0000c638       ?dtor$88@?0???0?$basic_json@Vmap@std@@Vvector@2@V?$basic_string@DU?$char_traits@D@std@@V?$allocator@D@2@@2@_N_J_KNVallocator@2@Uadl_serializer@nlohmann@@@nlohmann@@QEAA@V?$initializer_list@V?$json_ref@V?$basic_json@Vmap@std@@Vvector@2@V?$basic_string@DU?$char_traits@D@std@@V?$allocator@D@2@@2@_N_J_KNVallocator@2@Uadl_serializer@nlohmann@@@nlohmann@@@detail@nlohmann@@@std@@_NW4value_t@detail@1@@Z@4HA 000000014000d638 f   bento_sdk:asset_database.obj
 0001:0000c644       ?dtor$99@?0???0?$basic_json@Vmap@std@@Vvector@2@V?$basic_string@DU?$char_traits@D@std@@V?$allocator@D@2@@2@_N_J_KNVallocator@2@Uadl_serializer@nlohmann@@@nlohmann@@QEAA@V?$initializer_list@V?$json_ref@V?$basic_json@Vmap@std@@Vvector@2@V?$basic_string@DU?$char_traits@D@std@@V?$allocator@D@2@@2@_N_J_KNVallocator@2@Uadl_serializer@nlohmann@@@nlohmann@@@detail@nlohmann@@@std@@_NW4value_t@detail@1@@Z@4HA 000000014000d644 f   bento_sdk:asset_database.obj
 0001:0000c660       ?dtor$143@?0???0?$basic_json@Vmap@std@@Vvector@2@V?$basic_string@DU?$char_traits@D@std@@V?$allocator@D@2@@2@_N_J_KNVallocator@2@Uadl_serializer@nlohmann@@@nlohmann@@QEAA@V?$initializer_list@V?$json_ref@V?$basic_json@Vmap@std@@Vvector@2@V?$basic_string@DU?$char_traits@D@std@@V?$allocator@D@2@@2@_N_J_KNVallocator@2@Uadl_serializer@nlohmann@@@nlohmann@@@detail@nlohmann@@@std@@_NW4value_t@detail@1@@Z@4HA 000000014000d660 f   bento_sdk:asset_database.obj
 0001:0000c680       ?dtor$27@?0???0json_value@?$basic_json@Vmap@std@@Vvector@2@V?$basic_string@DU?$char_traits@D@std@@V?$allocator@D@2@@2@_N_J_KNVallocator@2@Uadl_serializer@nlohmann@@@nlohmann@@QEAA@W4value_t@detail@2@@Z@4HA 000000014000d680 f   bento_sdk:asset_database.obj
 0001:0000c68c       ?dtor$37@?0???0json_value@?$basic_json@Vmap@std@@Vvector@2@V?$basic_string@DU?$char_traits@D@std@@V?$allocator@D@2@@2@_N_J_KNVallocator@2@Uadl_serializer@nlohmann@@@nlohmann@@QEAA@W4value_t@detail@2@@Z@4HA 000000014000d68c f   bento_sdk:asset_database.obj
 0001:0000c6a8       ?dtor$0@?0???0json_value@?$basic_json@Vmap@std@@Vvector@2@V?$basic_string@DU?$char_traits@D@std@@V?$allocator@D@2@@2@_N_J_KNVallocator@2@Uadl_serializer@nlohmann@@@nlohmann@@QEAA@W4value_t@detail@2@@Z@4HA 000000014000d6a8 f   bento_sdk:asset_database.obj
 0001:0000c6c0       ?dtor$73@?0???A?$basic_json@Vmap@std@@Vvector@2@V?$basic_string@DU?$char_traits@D@std@@V?$allocator@D@2@@2@_N_J_KNVallocator@2@Uadl_serializer@nlohmann@@@nlohmann@@QEAAAEAV01@AEBV?$basic_string@DU?$char_traits@D@std@@V?$allocator@D@2@@std@@@Z@4HA 000000014000d6c0 f   bento_sdk:asset_database.obj
 0001:0000c6dc       ?dtor$0@?0???A?$basic_json@Vmap@std@@Vvector@2@V?$basic_string@DU?$char_traits@D@std@@V?$allocator@D@2@@2@_N_J_KNVallocator@2@Uadl_serializer@nlohmann@@@nlohmann@@QEAAAEAV01@AEBV?$basic_string@DU?$char_traits@D@std@@V?$allocator@D@2@@std@@@Z@4HA 000000014000d6dc f   bento_sdk:asset_database.obj
 0001:0000c6e8       ?dtor$1@?0???A?$basic_json@Vmap@std@@Vvector@2@V?$basic_string@DU?$char_traits@D@std@@V?$allocator@D@2@@2@_N_J_KNVallocator@2@Uadl_serializer@nlohmann@@@nlohmann@@QEAAAEAV01@AEBV?$basic_string@DU?$char_traits@D@std@@V?$allocator@D@2@@std@@@Z@4HA 000000014000d6e8 f   bento_sdk:asset_database.obj
 0001:0000c700       ?dtor$0@?0??create@other_error@detail@nlohmann@@SA?AV123@HAEBV?$basic_string@DU?$char_traits@D@std@@V?$allocator@D@2@@std@@@Z@4HA 000000014000d700 f   bento_sdk:asset_database.obj
 0001:0000c70c       ?dtor$1@?0??create@other_error@detail@nlohmann@@SA?AV123@HAEBV?$basic_string@DU?$char_traits@D@std@@V?$allocator@D@2@@std@@@Z@4HA 000000014000d70c f   bento_sdk:asset_database.obj
 0001:0000c720       ?dtor$0@?0??create@type_error@detail@nlohmann@@SA?AV123@HAEBV?$basic_string@DU?$char_traits@D@std@@V?$allocator@D@2@@std@@@Z@4HA 000000014000d720 f   bento_sdk:asset_database.obj
 0001:0000c72c       ?dtor$1@?0??create@type_error@detail@nlohmann@@SA?AV123@HAEBV?$basic_string@DU?$char_traits@D@std@@V?$allocator@D@2@@std@@@Z@4HA 000000014000d72c f   bento_sdk:asset_database.obj
 0001:0000c740       ?dtor$0@?0??dump@?$basic_json@Vmap@std@@Vvector@2@V?$basic_string@DU?$char_traits@D@std@@V?$allocator@D@2@@2@_N_J_KNVallocator@2@Uadl_serializer@nlohmann@@@nlohmann@@QEBA?AV?$basic_string@DU?$char_traits@D@std@@V?$allocator@D@2@@std@@HD_N@Z@4HA 000000014000d740 f   bento_sdk:asset_database.obj
 0001:0000c766       ?dtor$1@?0??dump@?$basic_json@Vmap@std@@Vvector@2@V?$basic_string@DU?$char_traits@D@std@@V?$allocator@D@2@@2@_N_J_KNVallocator@2@Uadl_serializer@nlohmann@@@nlohmann@@QEBA?AV?$basic_string@DU?$char_traits@D@std@@V?$allocator@D@2@@std@@HD_N@Z@4HA 000000014000d766 f   bento_sdk:asset_database.obj
 0001:0000c772       ?dtor$24@?0??dump@?$basic_json@Vmap@std@@Vvector@2@V?$basic_string@DU?$char_traits@D@std@@V?$allocator@D@2@@2@_N_J_KNVallocator@2@Uadl_serializer@nlohmann@@@nlohmann@@QEBA?AV?$basic_string@DU?$char_traits@D@std@@V?$allocator@D@2@@std@@HD_N@Z@4HA 000000014000d772 f   bento_sdk:asset_database.obj
 0001:0000c77e       ?dtor$25@?0??dump@?$basic_json@Vmap@std@@Vvector@2@V?$basic_string@DU?$char_traits@D@std@@V?$allocator@D@2@@2@_N_J_KNVallocator@2@Uadl_serializer@nlohmann@@@nlohmann@@QEBA?AV?$basic_string@DU?$char_traits@D@std@@V?$allocator@D@2@@std@@HD_N@Z@4HA 000000014000d77e f   bento_sdk:asset_database.obj
 0001:0000c78a       ?dtor$3@?0??dump@?$basic_json@Vmap@std@@Vvector@2@V?$basic_string@DU?$char_traits@D@std@@V?$allocator@D@2@@2@_N_J_KNVallocator@2@Uadl_serializer@nlohmann@@@nlohmann@@QEBA?AV?$basic_string@DU?$char_traits@D@std@@V?$allocator@D@2@@std@@HD_N@Z@4HA 000000014000d78a f   bento_sdk:asset_database.obj
 0001:0000c7a0       ?dtor$23@?0??dump_escaped@?$serializer@V?$basic_json@Vmap@std@@Vvector@2@V?$basic_string@DU?$char_traits@D@std@@V?$allocator@D@2@@2@_N_J_KNVallocator@2@Uadl_serializer@nlohmann@@@nlohmann@@@detail@nlohmann@@AEAAXAEBV?$basic_string@DU?$char_traits@D@std@@V?$allocator@D@2@@std@@_N@Z@4HA 000000014000d7a0 f   bento_sdk:asset_database.obj
 0001:0000c7ce       ?dtor$24@?0??dump_escaped@?$serializer@V?$basic_json@Vmap@std@@Vvector@2@V?$basic_string@DU?$char_traits@D@std@@V?$allocator@D@2@@2@_N_J_KNVallocator@2@Uadl_serializer@nlohmann@@@nlohmann@@@detail@nlohmann@@AEAAXAEBV?$basic_string@DU?$char_traits@D@std@@V?$allocator@D@2@@std@@_N@Z@4HA 000000014000d7ce f   bento_sdk:asset_database.obj
 0001:0000c7e0       ?dtor$26@?0??dump_escaped@?$serializer@V?$basic_json@Vmap@std@@Vvector@2@V?$basic_string@DU?$char_traits@D@std@@V?$allocator@D@2@@2@_N_J_KNVallocator@2@Uadl_serializer@nlohmann@@@nlohmann@@@detail@nlohmann@@AEAAXAEBV?$basic_string@DU?$char_traits@D@std@@V?$allocator@D@2@@std@@_N@Z@4HA 000000014000d7e0 f   bento_sdk:asset_database.obj
 0001:0000c7ee       ?dtor$0@?0??dump_escaped@?$serializer@V?$basic_json@Vmap@std@@Vvector@2@V?$basic_string@DU?$char_traits@D@std@@V?$allocator@D@2@@2@_N_J_KNVallocator@2@Uadl_serializer@nlohmann@@@nlohmann@@@detail@nlohmann@@AEAAXAEBV?$basic_string@DU?$char_traits@D@std@@V?$allocator@D@2@@std@@_N@Z@4HA 000000014000d7ee f   bento_sdk:asset_database.obj
 0001:0000c7fa       ?dtor$1@?0??dump_escaped@?$serializer@V?$basic_json@Vmap@std@@Vvector@2@V?$basic_string@DU?$char_traits@D@std@@V?$allocator@D@2@@2@_N_J_KNVallocator@2@Uadl_serializer@nlohmann@@@nlohmann@@@detail@nlohmann@@AEAAXAEBV?$basic_string@DU?$char_traits@D@std@@V?$allocator@D@2@@std@@_N@Z@4HA 000000014000d7fa f   bento_sdk:asset_database.obj
 0001:0000c806       ?dtor$2@?0??dump_escaped@?$serializer@V?$basic_json@Vmap@std@@Vvector@2@V?$basic_string@DU?$char_traits@D@std@@V?$allocator@D@2@@2@_N_J_KNVallocator@2@Uadl_serializer@nlohmann@@@nlohmann@@@detail@nlohmann@@AEAAXAEBV?$basic_string@DU?$char_traits@D@std@@V?$allocator@D@2@@std@@_N@Z@4HA 000000014000d806 f   bento_sdk:asset_database.obj
 0001:0000c812       ?dtor$3@?0??dump_escaped@?$serializer@V?$basic_json@Vmap@std@@Vvector@2@V?$basic_string@DU?$char_traits@D@std@@V?$allocator@D@2@@2@_N_J_KNVallocator@2@Uadl_serializer@nlohmann@@@nlohmann@@@detail@nlohmann@@AEAAXAEBV?$basic_string@DU?$char_traits@D@std@@V?$allocator@D@2@@std@@_N@Z@4HA 000000014000d812 f   bento_sdk:asset_database.obj
 0001:0000c81e       ?dtor$4@?0??dump_escaped@?$serializer@V?$basic_json@Vmap@std@@Vvector@2@V?$basic_string@DU?$char_traits@D@std@@V?$allocator@D@2@@2@_N_J_KNVallocator@2@Uadl_serializer@nlohmann@@@nlohmann@@@detail@nlohmann@@AEAAXAEBV?$basic_string@DU?$char_traits@D@std@@V?$allocator@D@2@@std@@_N@Z@4HA 000000014000d81e f   bento_sdk:asset_database.obj
 0001:0000c82a       ?dtor$5@?0??dump_escaped@?$serializer@V?$basic_json@Vmap@std@@Vvector@2@V?$basic_string@DU?$char_traits@D@std@@V?$allocator@D@2@@2@_N_J_KNVallocator@2@Uadl_serializer@nlohmann@@@nlohmann@@@detail@nlohmann@@AEAAXAEBV?$basic_string@DU?$char_traits@D@std@@V?$allocator@D@2@@std@@_N@Z@4HA 000000014000d82a f   bento_sdk:asset_database.obj
 0001:0000c836       ?dtor$106@?0??dump_escaped@?$serializer@V?$basic_json@Vmap@std@@Vvector@2@V?$basic_string@DU?$char_traits@D@std@@V?$allocator@D@2@@2@_N_J_KNVallocator@2@Uadl_serializer@nlohmann@@@nlohmann@@@detail@nlohmann@@AEAAXAEBV?$basic_string@DU?$char_traits@D@std@@V?$allocator@D@2@@std@@_N@Z@4HA 000000014000d836 f   bento_sdk:asset_database.obj
 0001:0000c867       ?dtor$107@?0??dump_escaped@?$serializer@V?$basic_json@Vmap@std@@Vvector@2@V?$basic_string@DU?$char_traits@D@std@@V?$allocator@D@2@@2@_N_J_KNVallocator@2@Uadl_serializer@nlohmann@@@nlohmann@@@detail@nlohmann@@AEAAXAEBV?$basic_string@DU?$char_traits@D@std@@V?$allocator@D@2@@std@@_N@Z@4HA 000000014000d867 f   bento_sdk:asset_database.obj
 0001:0000c879       ?dtor$109@?0??dump_escaped@?$serializer@V?$basic_json@Vmap@std@@Vvector@2@V?$basic_string@DU?$char_traits@D@std@@V?$allocator@D@2@@2@_N_J_KNVallocator@2@Uadl_serializer@nlohmann@@@nlohmann@@@detail@nlohmann@@AEAAXAEBV?$basic_string@DU?$char_traits@D@std@@V?$allocator@D@2@@std@@_N@Z@4HA 000000014000d879 f   bento_sdk:asset_database.obj
 0001:0000c887       ?dtor$6@?0??dump_escaped@?$serializer@V?$basic_json@Vmap@std@@Vvector@2@V?$basic_string@DU?$char_traits@D@std@@V?$allocator@D@2@@2@_N_J_KNVallocator@2@Uadl_serializer@nlohmann@@@nlohmann@@@detail@nlohmann@@AEAAXAEBV?$basic_string@DU?$char_traits@D@std@@V?$allocator@D@2@@std@@_N@Z@4HA 000000014000d887 f   bento_sdk:asset_database.obj
 0001:0000c893       ?dtor$7@?0??dump_escaped@?$serializer@V?$basic_json@Vmap@std@@Vvector@2@V?$basic_string@DU?$char_traits@D@std@@V?$allocator@D@2@@2@_N_J_KNVallocator@2@Uadl_serializer@nlohmann@@@nlohmann@@@detail@nlohmann@@AEAAXAEBV?$basic_string@DU?$char_traits@D@std@@V?$allocator@D@2@@std@@_N@Z@4HA 000000014000d893 f   bento_sdk:asset_database.obj
 0001:0000c89f       ?dtor$8@?0??dump_escaped@?$serializer@V?$basic_json@Vmap@std@@Vvector@2@V?$basic_string@DU?$char_traits@D@std@@V?$allocator@D@2@@2@_N_J_KNVallocator@2@Uadl_serializer@nlohmann@@@nlohmann@@@detail@nlohmann@@AEAAXAEBV?$basic_string@DU?$char_traits@D@std@@V?$allocator@D@2@@std@@_N@Z@4HA 000000014000d89f f   bento_sdk:asset_database.obj
 0001:0000c8b0       ?dtor$0@?0??name@exception@detail@nlohmann@@KA?AV?$basic_string@DU?$char_traits@D@std@@V?$allocator@D@2@@std@@AEBV45@H@Z@4HA 000000014000d8b0 f   bento_sdk:asset_database.obj
 0001:0000c8bc       ?dtor$1@?0??name@exception@detail@nlohmann@@KA?AV?$basic_string@DU?$char_traits@D@std@@V?$allocator@D@2@@std@@AEBV45@H@Z@4HA 000000014000d8bc f   bento_sdk:asset_database.obj
 0001:0000c8c8       ?dtor$2@?0??name@exception@detail@nlohmann@@KA?AV?$basic_string@DU?$char_traits@D@std@@V?$allocator@D@2@@std@@AEBV45@H@Z@4HA 000000014000d8c8 f   bento_sdk:asset_database.obj
 0001:0000c8d4       ?dtor$3@?0??name@exception@detail@nlohmann@@KA?AV?$basic_string@DU?$char_traits@D@std@@V?$allocator@D@2@@std@@AEBV45@H@Z@4HA 000000014000d8d4 f   bento_sdk:asset_database.obj
 0001:0000c8e0       ?dtor$12@?0??resize@?$Vector@UTAsset@bento@@@bento@@QEAAXI@Z@4HA 000000014000d8e0 f   bento_sdk:asset_database.obj
 0001:0000c8fc       ?dtor$13@?0??resize@?$Vector@UTAsset@bento@@@bento@@QEAAXI@Z@4HA 000000014000d8fc f   bento_sdk:asset_database.obj
 0001:0000c90c       ?dtor$17@?0??resize@?$Vector@UTAsset@bento@@@bento@@QEAAXI@Z@4HA 000000014000d90c f   bento_sdk:asset_database.obj
 0001:0000c928       ?dtor$18@?0??resize@?$Vector@UTAsset@bento@@@bento@@QEAAXI@Z@4HA 000000014000d928 f   bento_sdk:asset_database.obj
 0001:0000c940       ?dtor$0@?0??to_string@bento@@YAXAEAVDynamicString@1@AEBVTAssetDatabase@1@@Z@4HA 000000014000d940 f   bento_sdk:asset_database.obj
 0001:0000c94c       ?dtor$31@?0??to_string@bento@@YAXAEAVDynamicString@1@AEBVTAssetDatabase@1@@Z@4HA 000000014000d94c f   bento_sdk:asset_database.obj
 0001:0000c958       ?dtor$1@?0??to_string@bento@@YAXAEAVDynamicString@1@AEBVTAssetDatabase@1@@Z@4HA 000000014000d958 f   bento_sdk:asset_database.obj
 0001:0000c964       ?dtor$103@?0??to_string@bento@@YAXAEAVDynamicString@1@AEBVTAssetDatabase@1@@Z@4HA 000000014000d964 f   bento_sdk:asset_database.obj
 0001:0000c970       ?dtor$3@?0??to_string@bento@@YAXAEAVDynamicString@1@AEBVTAssetDatabase@1@@Z@4HA 000000014000d970 f   bento_sdk:asset_database.obj
 0001:0000c99a       ?dtor$4@?0??to_string@bento@@YAXAEAVDynamicString@1@AEBVTAssetDatabase@1@@Z@4HA 000000014000d99a f   bento_sdk:asset_database.obj
 0001:0000c9a6       ?dtor$177@?0??to_string@bento@@YAXAEAVDynamicString@1@AEBVTAssetDatabase@1@@Z@4HA 000000014000d9a6 f   bento_sdk:asset_database.obj
 0001:0000c9b2       ?dtor$5@?0??to_string@bento@@YAXAEAVDynamicString@1@AEBVTAssetDatabase@1@@Z@4HA 000000014000d9b2 f   bento_sdk:asset_database.obj
 0001:0000c9be       ?dtor$240@?0??to_string@bento@@YAXAEAVDynamicString@1@AEBVTAssetDatabase@1@@Z@4HA 000000014000d9be f   bento_sdk:asset_database.obj
 0001:0000c9ca       ?dtor$7@?0??to_string@bento@@YAXAEAVDynamicString@1@AEBVTAssetDatabase@1@@Z@4HA 000000014000d9ca f   bento_sdk:asset_database.obj
 0001:0000c9f7       ?dtor$8@?0??to_string@bento@@YAXAEAVDynamicString@1@AEBVTAssetDatabase@1@@Z@4HA 000000014000d9f7 f   bento_sdk:asset_database.obj
 0001:0000ca03       ?dtor$260@?0??to_string@bento@@YAXAEAVDynamicString@1@AEBVTAssetDatabase@1@@Z@4HA 000000014000da03 f   bento_sdk:asset_database.obj
 0001:0000ca0f       ?dtor$9@?0??to_string@bento@@YAXAEAVDynamicString@1@AEBVTAssetDatabase@1@@Z@4HA 000000014000da0f f   bento_sdk:asset_database.obj
 0001:0000ca1b       ?dtor$10@?0??to_string@bento@@YAXAEAVDynamicString@1@AEBVTAssetDatabase@1@@Z@4HA 000000014000da1b f   bento_sdk:asset_database.obj
 0001:0000ca27       ?dtor$12@?0??to_string@bento@@YAXAEAVDynamicString@1@AEBVTAssetDatabase@1@@Z@4HA 000000014000da27 f   bento_sdk:asset_database.obj
 0001:0000ca54       ?dtor$13@?0??to_string@bento@@YAXAEAVDynamicString@1@AEBVTAssetDatabase@1@@Z@4HA 000000014000da54 f   bento_sdk:asset_database.obj
 0001:0000ca60       ?dtor$302@?0??to_string@bento@@YAXAEAVDynamicString@1@AEBVTAssetDatabase@1@@Z@4HA 000000014000da60 f   bento_sdk:asset_database.obj
 0001:0000ca6c       ?dtor$16@?0??to_string@bento@@YAXAEAVDynamicString@1@AEBVTAssetDatabase@1@@Z@4HA 000000014000da6c f   bento_sdk:asset_database.obj
 0001:0000ca99       ?dtor$17@?0??to_string@bento@@YAXAEAVDynamicString@1@AEBVTAssetDatabase@1@@Z@4HA 000000014000da99 f   bento_sdk:asset_database.obj
 0001:0000caa5       ?dtor$18@?0??to_string@bento@@YAXAEAVDynamicString@1@AEBVTAssetDatabase@1@@Z@4HA 000000014000daa5 f   bento_sdk:asset_database.obj
 0001:0000cad2       ?dtor$19@?0??to_string@bento@@YAXAEAVDynamicString@1@AEBVTAssetDatabase@1@@Z@4HA 000000014000dad2 f   bento_sdk:asset_database.obj
 0001:0000cade       ?dtor$20@?0??to_string@bento@@YAXAEAVDynamicString@1@AEBVTAssetDatabase@1@@Z@4HA 000000014000dade f   bento_sdk:asset_database.obj
 0001:0000caea       ?dtor$21@?0??to_string@bento@@YAXAEAVDynamicString@1@AEBVTAssetDatabase@1@@Z@4HA 000000014000daea f   bento_sdk:asset_database.obj
 0001:0000cb00       ?dtor$0@?0??collect_files_with_extension@file_system@bento@@YAXPEBD0AEAV?$Vector@VDynamicString@bento@@@2@@Z@4HA 000000014000db00 f   bento_sdk:file_system.obj
 0001:0000cb0c       ?dtor$1@?0??collect_files_with_extension@file_system@bento@@YAXPEBD0AEAV?$Vector@VDynamicString@bento@@@2@@Z@4HA 000000014000db0c f   bento_sdk:file_system.obj
 0001:0000cb18       ?dtor$2@?0??collect_files_with_extension@file_system@bento@@YAXPEBD0AEAV?$Vector@VDynamicString@bento@@@2@@Z@4HA 000000014000db18 f   bento_sdk:file_system.obj
 0001:0000cb24       ?dtor$17@?0??collect_files_with_extension@file_system@bento@@YAXPEBD0AEAV?$Vector@VDynamicString@bento@@@2@@Z@4HA 000000014000db24 f   bento_sdk:file_system.obj
 0001:0000cb50       ?dtor$1@?0??push_back@?$Vector@VDynamicString@bento@@@bento@@QEAAXAEBVDynamicString@2@@Z@4HA 000000014000db50 f   bento_sdk:file_system.obj
 0001:0000cb70       ?dtor$0@?0??internal_read_buffer@DiskSerializer@bento@@AEAA_NAEAV?$Vector@D@2@PEBD1@Z@4HA 000000014000db70 f   bento_sdk:disk_serializer.obj
 0001:0000cb7c       ?dtor$1@?0??internal_read_buffer@DiskSerializer@bento@@AEAA_NAEAV?$Vector@D@2@PEBD1@Z@4HA 000000014000db7c f   bento_sdk:disk_serializer.obj
 0001:0000cb90       ?dtor$0@?0??internal_read_string@DiskSerializer@bento@@AEAA_NAEAVDynamicString@2@PEBD1@Z@4HA 000000014000db90 f   bento_sdk:disk_serializer.obj
 0001:0000cb9c       ?dtor$1@?0??internal_read_string@DiskSerializer@bento@@AEAA_NAEAVDynamicString@2@PEBD1@Z@4HA 000000014000db9c f   bento_sdk:disk_serializer.obj
 0001:0000cba8       ?dtor$2@?0??internal_read_string@DiskSerializer@bento@@AEAA_NAEAVDynamicString@2@PEBD1@Z@4HA 000000014000dba8 f   bento_sdk:disk_serializer.obj
 0001:0000cbc0       ?dtor$0@?0??internal_write_buffer@DiskSerializer@bento@@AEAA_NAEBV?$Vector@D@2@PEBD1@Z@4HA 000000014000dbc0 f   bento_sdk:disk_serializer.obj
 0001:0000cbcc       ?dtor$1@?0??internal_write_buffer@DiskSerializer@bento@@AEAA_NAEBV?$Vector@D@2@PEBD1@Z@4HA 000000014000dbcc f   bento_sdk:disk_serializer.obj
 0001:0000cbe0       ?dtor$0@?0??internal_write_string@DiskSerializer@bento@@AEAA_NAEBVDynamicString@2@PEBD1@Z@4HA 000000014000dbe0 f   bento_sdk:disk_serializer.obj
 0001:0000cbec       ?dtor$1@?0??internal_write_string@DiskSerializer@bento@@AEAA_NAEBVDynamicString@2@PEBD1@Z@4HA 000000014000dbec f   bento_sdk:disk_serializer.obj
 0001:0000cc00       ?dtor$2@?0???$?6U?$char_traits@D@std@@@std@@YAAEAV?$basic_ostream@DU?$char_traits@D@std@@@0@AEAV10@PEBD@Z@4HA 000000014000dc00 f   bento_sdk:system_logger.obj
 0001:0000cc0c       ?dtor$0@?0???$?6U?$char_traits@D@std@@@std@@YAAEAV?$basic_ostream@DU?$char_traits@D@std@@@0@AEAV10@PEBD@Z@4HA 000000014000dc0c f   bento_sdk:system_logger.obj
 0001:0000cc18       ?filt$0@?0??__scrt_common_main_seh@@YAHXZ@4HA 000000014000dc18 f   MSVCRT:exe_main.obj
 0001:0000cc36       __scrt_is_nonwritable_in_current_image$filt$0 000000014000dc36 f   MSVCRT:utility.obj
 0001:0000cc4e       ?fin$0@?0???_M@YAXPEAX_K1P6AX0@Z@Z@4HA 000000014000dc4e f   MSVCRT:ehvecdtr.obj
 0001:0000cc7a       ?filt$0@?0??__ArrayUnwind@@YAXPEAX_K1P6AX0@Z@Z@4HA 000000014000dc7a f   MSVCRT:ehvecdtr.obj
 0001:0000ccc0       ??__F__common_allocator@bento@@YAXXZ 000000014000dcc0 f   bento_sdk:common.obj
 0001:0000ccd0       ??__F__default_system_logger@bento@@YAXXZ 000000014000dcd0 f   bento_sdk:log.obj
 0002:00000408       ?pre_cpp_initializer@@3P6AXXZEA 000000014000e408     MSVCRT:exe_main.obj
 0002:00000410       ?__common_allocator$initializer$@bento@@3P6AXXZEA 000000014000e410     bento_sdk:common.obj
 0002:00000418       ?__default_system_logger$initializer$@bento@@3P6AXXZEA 000000014000e418     bento_sdk:log.obj
 0002:00000430       ?pre_c_initializer@@3P6AHXZEA 000000014000e430     MSVCRT:exe_main.obj
 0002:00000438       ?post_pgo_initializer@@3P6AHXZEA 000000014000e438     MSVCRT:exe_main.obj
 0002:00000480       $cppxdata$??1?$Vector@D@bento@@QEAA@XZ 000000014000e480     testCompiler.obj
 0002:000004a8       $cppxdata$??1DynamicString@bento@@QEAA@XZ 000000014000e4a8     testCompiler.obj
 0002:000004d0       $cppxdata$??1TCompilerOptions@noiseless@@QEAA@XZ 000000014000e4d0     testCompiler.obj
 0002:000004f8       $cppxdata$main             000000014000e4f8     testCompiler.obj
 0002:00000520       $cppxdata$??1?$Vector@VDynamicString@bento@@@bento@@QEAA@XZ 000000014000e520     testCompiler.obj
 0002:00000548       $cppxdata$?resize@?$Vector@VDynamicString@bento@@@bento@@QEAAXI@Z 000000014000e548     testCompiler.obj
 0002:00000570       $cppxdata$?clear@?$Vector@VDynamicString@bento@@@bento@@QEAAXXZ 000000014000e570     testCompiler.obj
 0002:00000640       $cppxdata$?compile@asset_compiler@noiseless@@YA_NAEBUTCompilerOptions@2@AEAVTAssetDatabase@bento@@@Z 000000014000e640     noiseless_sdk:compiler.obj
 0002:00000668       $cppxdata$?write@asset_compiler@noiseless@@YAXAEBUTCompilerOptions@2@AEBVTAssetDatabase@bento@@@Z 000000014000e668     noiseless_sdk:compiler.obj
 0002:00000690       $cppxdata$??1TKernelSource@noiseless@@QEAA@XZ 000000014000e690     noiseless_sdk:compiler.obj
 0002:000006f0       ?KERNEL_SOURCE_VERSION@bento@@3IB 000000014000e6f0     noiseless_sdk:kernel_source.obj
 0002:00000700       $cppxdata$?write_database@noiseless@@YA_NPEBDAEBVTAssetDatabase@bento@@@Z 000000014000e700     noiseless_sdk:asset_database_helpers.obj
 0002:00000728       $cppxdata$?read_database@noiseless@@YA_NPEBDAEAVTAssetDatabase@bento@@@Z 000000014000e728     noiseless_sdk:asset_database_helpers.obj
 0002:00000750       $cppxdata$?write_database_debug@noiseless@@YA_NPEBDAEBVTAssetDatabase@bento@@@Z 000000014000e750     noiseless_sdk:asset_database_helpers.obj
 0002:00000778       $cppxdata$??1DiskSerializer@bento@@QEAA@XZ 000000014000e778     noiseless_sdk:asset_database_helpers.obj
 0002:000007c0       $cppxdata$??0DynamicString@bento@@QEAA@AEAVIAllocator@1@@Z 000000014000e7c0     bento_sdk:dynamic_string.obj
 0002:000007e8       $cppxdata$??0DynamicString@bento@@QEAA@AEAVIAllocator@1@PEBD@Z 000000014000e7e8     bento_sdk:dynamic_string.obj
 0002:00000810       $cppxdata$??0DynamicString@bento@@QEAA@AEAVIAllocator@1@I@Z 000000014000e810     bento_sdk:dynamic_string.obj
 0002:00000838       $cppxdata$??0DynamicString@bento@@QEAA@AEBV01@@Z 000000014000e838     bento_sdk:dynamic_string.obj
 0002:00000860       $cppxdata$?substr@string@bento@@YA?AVDynamicString@2@AEBV32@II@Z 000000014000e860     bento_sdk:dynamic_string.obj
 0002:00000888       ?piecewise_construct@std@@3Upiecewise_construct_t@1@B 000000014000e888     bento_sdk:asset_database.obj
 0002:0000088c       ?DATABASE_VERSION@bento@@3IB 000000014000e88c     bento_sdk:asset_database.obj
 0002:00000890       $cppxdata$??1TAssetDatabase@bento@@QEAA@XZ 000000014000e890     bento_sdk:asset_database.obj
 0002:000008b8       $cppxdata$??1?$Vector@UTAsset@bento@@@bento@@QEAA@XZ 000000014000e8b8     bento_sdk:asset_database.obj
 0002:000008e0       $cppxdata$?resize@?$Vector@UTAsset@bento@@@bento@@QEAAXI@Z 000000014000e8e0     bento_sdk:asset_database.obj
 0002:00000908       $cppxdata$?clear@?$Vector@UTAsset@bento@@@bento@@QEAAXXZ 000000014000e908     bento_sdk:asset_database.obj
 0002:00000930       $cppxdata$?to_string@bento@@YAXAEAVDynamicString@1@AEBVTAssetDatabase@1@@Z 000000014000e930     bento_sdk:asset_database.obj
 0002:00000958       $cppxdata$?name@exception@detail@nlohmann@@KA?AV?$basic_string@DU?$char_traits@D@std@@V?$allocator@D@2@@std@@AEBV45@H@Z 000000014000e958     bento_sdk:asset_database.obj
 0002:00000980       $cppxdata$??$?HDU?$char_traits@D@std@@V?$allocator@D@1@@std@@YA?AV?$basic_string@DU?$char_traits@D@std@@V?$allocator@D@2@@0@QEBDAEBV10@@Z 000000014000e980     bento_sdk:asset_database.obj
 0002:000009a8       $cppxdata$?create@type_error@detail@nlohmann@@SA?AV123@HAEBV?$basic_string@DU?$char_traits@D@std@@V?$allocator@D@2@@std@@@Z 000000014000e9a8     bento_sdk:asset_database.obj
 0002:000009d0       $cppxdata$?create@other_error@detail@nlohmann@@SA?AV123@HAEBV?$basic_string@DU?$char_traits@D@std@@V?$allocator@D@2@@std@@@Z 000000014000e9d0     bento_sdk:asset_database.obj
 0002:000009f8       $cppxdata$??0?$basic_json@Vmap@std@@Vvector@2@V?$basic_string@DU?$char_traits@D@std@@V?$allocator@D@2@@2@_N_J_KNVallocator@2@Uadl_serializer@nlohmann@@@nlohmann@@QEAA@V?$initializer_list@V?$json_ref@V?$basic_json@Vmap@std@@Vvector@2@V?$basic_string@DU?$char_traits@D@std@@V?$allocator@D@2@@2@_N_J_KNVallocator@2@Uadl_serializer@nlohmann@@@nlohmann@@@detail@nlohmann@@@std@@_NW4value_t@detail@1@@Z 000000014000e9f8     bento_sdk:asset_database.obj
 0002:00000a20       $cppxdata$??0?$basic_json@Vmap@std@@Vvector@2@V?$basic_string@DU?$char_traits@D@std@@V?$allocator@D@2@@2@_N_J_KNVallocator@2@Uadl_serializer@nlohmann@@@nlohmann@@QEAA@AEBV01@@Z 000000014000ea20     bento_sdk:asset_database.obj
 0002:00000a48       $cppxdata$?dump@?$basic_json@Vmap@std@@Vvector@2@V?$basic_string@DU?$char_traits@D@std@@V?$allocator@D@2@@2@_N_J_KNVallocator@2@Uadl_serializer@nlohmann@@@nlohmann@@QEBA?AV?$basic_string@DU?$char_traits@D@std@@V?$allocator@D@2@@std@@HD_N@Z 000000014000ea48     bento_sdk:asset_database.obj
 0002:00000a70       $cppxdata$??A?$basic_json@Vmap@std@@Vvector@2@V?$basic_string@DU?$char_traits@D@std@@V?$allocator@D@2@@2@_N_J_KNVallocator@2@Uadl_serializer@nlohmann@@@nlohmann@@QEAAAEAV01@AEBV?$basic_string@DU?$char_traits@D@std@@V?$allocator@D@2@@std@@@Z 000000014000ea70     bento_sdk:asset_database.obj
 0002:00000a98       $cppxdata$??0json_value@?$basic_json@Vmap@std@@Vvector@2@V?$basic_string@DU?$char_traits@D@std@@V?$allocator@D@2@@2@_N_J_KNVallocator@2@Uadl_serializer@nlohmann@@@nlohmann@@QEAA@W4value_t@detail@2@@Z 000000014000ea98     bento_sdk:asset_database.obj
 0002:00000ac0       $cppxdata$?destroy@json_value@?$basic_json@Vmap@std@@Vvector@2@V?$basic_string@DU?$char_traits@D@std@@V?$allocator@D@2@@2@_N_J_KNVallocator@2@Uadl_serializer@nlohmann@@@nlohmann@@QEAAXW4value_t@detail@3@@Z 000000014000eac0     bento_sdk:asset_database.obj
 0002:00000ae8       $cppxdata$??$create@V?$map@V?$basic_string@DU?$char_traits@D@std@@V?$allocator@D@2@@std@@V?$basic_json@Vmap@std@@Vvector@2@V?$basic_string@DU?$char_traits@D@std@@V?$allocator@D@2@@2@_N_J_KNVallocator@2@Uadl_serializer@nlohmann@@@nlohmann@@U?$less@V?$basic_string@DU?$char_traits@D@std@@V?$allocator@D@2@@std@@@2@V?$allocator@U?$pair@$$CBV?$basic_string@DU?$char_traits@D@std@@V?$allocator@D@2@@std@@V?$basic_json@Vmap@std@@Vvector@2@V?$basic_string@DU?$char_traits@D@std@@V?$allocator@D@2@@2@_N_J_KNVallocator@2@Uadl_serializer@nlohmann@@@nlohmann@@@std@@@2@@std@@$$V@?$basic_json@Vmap@std@@Vvector@2@V?$basic_string@DU?$char_traits@D@std@@V?$allocator@D@2@@2@_N_J_KNVallocator@2@Uadl_serializer@nlohmann@@@nlohmann@@CAPEAV?$map@V?$basic_string@DU?$char_traits@D@std@@V?$allocator@D@2@@std@@V?$basic_json@Vmap@std@@Vvector@2@V?$basic_string@DU?$char_traits@D@std@@V?$allocator@D@2@@2@_N_J_KNVallocator@2@Uadl_serializer@nlohmann@@@nlohmann@@U?$less@V?$basic_string@DU?$char_traits@D@std@@V?$allocator@D@2@@std@@@2@V?$allocator@U?$pair@$$CBV?$basic_string@DU?$char_traits@D@std@@V?$allocator@D@2@@std@@V?$basic_json@Vmap@std@@Vvector@2@V?$basic_string@DU?$char_traits@D@std@@V?$allocator@D@2@@2@_N_J_KNVallocator@2@Uadl_serializer@nlohmann@@@nlohmann@@@std@@@2@@std@@XZ 000000014000eae8     bento_sdk:asset_database.obj
 0002:00000b10       $cppxdata$?dump_escaped@?$serializer@V?$basic_json@Vmap@std@@Vvector@2@V?$basic_string@DU?$char_traits@D@std@@V?$allocator@D@2@@2@_N_J_KNVallocator@2@Uadl_serializer@nlohmann@@@nlohmann@@@detail@nlohmann@@AEAAXAEBV?$basic_string@DU?$char_traits@D@std@@V?$allocator@D@2@@std@@_N@Z 000000014000eb10     bento_sdk:asset_database.obj
 0002:00000b38       $cppxdata$??$to_json@V?$basic_json@Vmap@std@@Vvector@2@V?$basic_string@DU?$char_traits@D@std@@V?$allocator@D@2@@2@_N_J_KNVallocator@2@Uadl_serializer@nlohmann@@@nlohmann@@$$BY04D$0A@@detail@nlohmann@@YAXAEAV?$basic_json@Vmap@std@@Vvector@2@V?$basic_string@DU?$char_traits@D@std@@V?$allocator@D@2@@2@_N_J_KNVallocator@2@Uadl_serializer@nlohmann@@@1@AEAY04$$CBD@Z 000000014000eb38     bento_sdk:asset_database.obj
 0002:00000b60       $cppxdata$??$to_json@V?$basic_json@Vmap@std@@Vvector@2@V?$basic_string@DU?$char_traits@D@std@@V?$allocator@D@2@@2@_N_J_KNVallocator@2@Uadl_serializer@nlohmann@@@nlohmann@@PEBD$0A@@detail@nlohmann@@YAXAEAV?$basic_json@Vmap@std@@Vvector@2@V?$basic_string@DU?$char_traits@D@std@@V?$allocator@D@2@@2@_N_J_KNVallocator@2@Uadl_serializer@nlohmann@@@1@AEBQEBD@Z 000000014000eb60     bento_sdk:asset_database.obj
 0002:00000b88       $cppxdata$??$_Copy_nodes@U_Copy_tag@?$_Tree@V?$_Tmap_traits@V?$basic_string@DU?$char_traits@D@std@@V?$allocator@D@2@@std@@V?$basic_json@Vmap@std@@Vvector@2@V?$basic_string@DU?$char_traits@D@std@@V?$allocator@D@2@@2@_N_J_KNVallocator@2@Uadl_serializer@nlohmann@@@nlohmann@@U?$less@V?$basic_string@DU?$char_traits@D@std@@V?$allocator@D@2@@std@@@2@V?$allocator@U?$pair@$$CBV?$basic_string@DU?$char_traits@D@std@@V?$allocator@D@2@@std@@V?$basic_json@Vmap@std@@Vvector@2@V?$basic_string@DU?$char_traits@D@std@@V?$allocator@D@2@@2@_N_J_KNVallocator@2@Uadl_serializer@nlohmann@@@nlohmann@@@std@@@2@$0A@@std@@@std@@@?$_Tree@V?$_Tmap_traits@V?$basic_string@DU?$char_traits@D@std@@V?$allocator@D@2@@std@@V?$basic_json@Vmap@std@@Vvector@2@V?$basic_string@DU?$char_traits@D@std@@V?$allocator@D@2@@2@_N_J_KNVallocator@2@Uadl_serializer@nlohmann@@@nlohmann@@U?$less@V?$basic_string@DU?$char_traits@D@std@@V?$allocator@D@2@@std@@@2@V?$allocator@U?$pair@$$CBV?$basic_string@DU?$char_traits@D@std@@V?$allocator@D@2@@std@@V?$basic_json@Vmap@std@@Vvector@2@V?$basic_string@DU?$char_traits@D@std@@V?$allocator@D@2@@2@_N_J_KNVallocator@2@Uadl_serializer@nlohmann@@@nlohmann@@@std@@@2@$0A@@std@@@std@@IEAAPEAU?$_Tree_node@U?$pair@$$CBV?$basic_string@DU?$char_traits@D@std@@V?$allocator@D@2@@std@@V?$basic_json@Vmap@std@@Vvector@2@V?$basic_string@DU?$char_traits@D@std@@V?$allocator@D@2@@2@_N_J_KNVallocator@2@Uadl_serializer@nlohmann@@@nlohmann@@@std@@PEAX@1@PEAU21@0U_Copy_tag@01@@Z 000000014000eb88     bento_sdk:asset_database.obj
 0002:00001620       $cppxdata$?collect_files_with_extension@file_system@bento@@YAXPEBD0AEAV?$Vector@VDynamicString@bento@@@2@@Z 000000014000f620     bento_sdk:file_system.obj
 0002:00001648       $cppxdata$?push_back@?$Vector@VDynamicString@bento@@@bento@@QEAAXAEBVDynamicString@2@@Z 000000014000f648     bento_sdk:file_system.obj
 0002:000016d0       $cppxdata$?internal_write_buffer@DiskSerializer@bento@@AEAA_NAEBV?$Vector@D@2@PEBD1@Z 000000014000f6d0     bento_sdk:disk_serializer.obj
 0002:000016f8       $cppxdata$?internal_read_buffer@DiskSerializer@bento@@AEAA_NAEAV?$Vector@D@2@PEBD1@Z 000000014000f6f8     bento_sdk:disk_serializer.obj
 0002:00001720       $cppxdata$?internal_write_string@DiskSerializer@bento@@AEAA_NAEBVDynamicString@2@PEBD1@Z 000000014000f720     bento_sdk:disk_serializer.obj
 0002:00001748       $cppxdata$?internal_read_string@DiskSerializer@bento@@AEAA_NAEAVDynamicString@2@PEBD1@Z 000000014000f748     bento_sdk:disk_serializer.obj
 0002:00001790       $cppxdata$??$?6U?$char_traits@D@std@@@std@@YAAEAV?$basic_ostream@DU?$char_traits@D@std@@@0@AEAV10@PEBD@Z 000000014000f790     bento_sdk:system_logger.obj
 0002:000017b8       $cppxdata$??1_Sentry_base@?$basic_ostream@DU?$char_traits@D@std@@@std@@QEAA@XZ 000000014000f7b8     bento_sdk:system_logger.obj
 0002:000017e0       $cppxdata$??1sentry@?$basic_ostream@DU?$char_traits@D@std@@@std@@QEAA@XZ 000000014000f7e0     bento_sdk:system_logger.obj
 0002:000018f0       GS_ExceptionPointers       000000014000f8f0     MSVCRT:gs_report.obj
 0002:00002060       $unwind$??1?$Vector@D@bento@@QEAA@XZ 0000000140010060     testCompiler.obj
 0002:00002070       $ip2state$??1?$Vector@D@bento@@QEAA@XZ 0000000140010070     testCompiler.obj
 0002:00002078       $unwind$?free@?$Vector@D@bento@@QEAAXXZ 0000000140010078     testCompiler.obj
 0002:00002080       $unwind$??1DynamicString@bento@@QEAA@XZ 0000000140010080     testCompiler.obj
 0002:00002090       $stateUnwindMap$??1DynamicString@bento@@QEAA@XZ 0000000140010090     testCompiler.obj
 0002:00002098       $ip2state$??1DynamicString@bento@@QEAA@XZ 0000000140010098     testCompiler.obj
 0002:000020b0       $unwind$??1TCompilerOptions@noiseless@@QEAA@XZ 00000001400100b0     testCompiler.obj
 0002:000020c4       $stateUnwindMap$??1TCompilerOptions@noiseless@@QEAA@XZ 00000001400100c4     testCompiler.obj
 0002:000020d0       $ip2state$??1TCompilerOptions@noiseless@@QEAA@XZ 00000001400100d0     testCompiler.obj
 0002:000020e8       $unwind$main               00000001400100e8     testCompiler.obj
 0002:0000210c       $stateUnwindMap$main       000000014001010c     testCompiler.obj
 0002:00002190       $ip2state$main             0000000140010190     testCompiler.obj
 0002:000021f0       $unwind$??1?$Vector@VDynamicString@bento@@@bento@@QEAA@XZ 00000001400101f0     testCompiler.obj
 0002:00002200       $ip2state$??1?$Vector@VDynamicString@bento@@@bento@@QEAA@XZ 0000000140010200     testCompiler.obj
 0002:00002208       $unwind$?resize@?$Vector@VDynamicString@bento@@@bento@@QEAAXI@Z 0000000140010208     testCompiler.obj
 0002:00002224       $stateUnwindMap$?resize@?$Vector@VDynamicString@bento@@@bento@@QEAAXI@Z 0000000140010224     testCompiler.obj
 0002:00002240       $ip2state$?resize@?$Vector@VDynamicString@bento@@@bento@@QEAAXI@Z 0000000140010240     testCompiler.obj
 0002:00002278       $unwind$?dtor$6@?0??resize@?$Vector@VDynamicString@bento@@@bento@@QEAAXI@Z@4HA 0000000140010278     testCompiler.obj
 0002:00002280       $unwind$?dtor$8@?0??resize@?$Vector@VDynamicString@bento@@@bento@@QEAAXI@Z@4HA 0000000140010280     testCompiler.obj
 0002:00002288       $unwind$?free@?$Vector@VDynamicString@bento@@@bento@@QEAAXXZ 0000000140010288     testCompiler.obj
 0002:00002290       $unwind$?clear@?$Vector@VDynamicString@bento@@@bento@@QEAAXXZ 0000000140010290     testCompiler.obj
 0002:000022ac       $stateUnwindMap$?clear@?$Vector@VDynamicString@bento@@@bento@@QEAAXXZ 00000001400102ac     testCompiler.obj
 0002:000022b8       $ip2state$?clear@?$Vector@VDynamicString@bento@@@bento@@QEAAXXZ 00000001400102b8     testCompiler.obj
 0002:000022d0       $unwind$?reserve@?$Vector@VDynamicString@bento@@@bento@@QEAAXI@Z 00000001400102d0     testCompiler.obj
 0002:000022e0       $unwind$?build_from_args@asset_compiler@noiseless@@YAXAEAUTCompilerOptions@2@AEBV?$Vector@VDynamicString@bento@@@bento@@@Z 00000001400102e0     noiseless_sdk:compiler_options.obj
 0002:000022f0       $chain$1$?build_from_args@asset_compiler@noiseless@@YAXAEAUTCompilerOptions@2@AEBV?$Vector@VDynamicString@bento@@@bento@@@Z 00000001400102f0     noiseless_sdk:compiler_options.obj
 0002:00002308       $chain$2$?build_from_args@asset_compiler@noiseless@@YAXAEAUTCompilerOptions@2@AEBV?$Vector@VDynamicString@bento@@@bento@@@Z 0000000140010308     noiseless_sdk:compiler_options.obj
 0002:00002318       $unwind$?compile@asset_compiler@noiseless@@YA_NAEBUTCompilerOptions@2@AEAVTAssetDatabase@bento@@@Z 0000000140010318     noiseless_sdk:compiler.obj
 0002:0000233c       $stateUnwindMap$?compile@asset_compiler@noiseless@@YA_NAEBUTCompilerOptions@2@AEAVTAssetDatabase@bento@@@Z 000000014001033c     noiseless_sdk:compiler.obj
 0002:00002380       $ip2state$?compile@asset_compiler@noiseless@@YA_NAEBUTCompilerOptions@2@AEAVTAssetDatabase@bento@@@Z 0000000140010380     noiseless_sdk:compiler.obj
 0002:000023e0       $unwind$?write@asset_compiler@noiseless@@YAXAEBUTCompilerOptions@2@AEBVTAssetDatabase@bento@@@Z 00000001400103e0     noiseless_sdk:compiler.obj
 0002:000023f4       $stateUnwindMap$?write@asset_compiler@noiseless@@YAXAEBUTCompilerOptions@2@AEBVTAssetDatabase@bento@@@Z 00000001400103f4     noiseless_sdk:compiler.obj
 0002:00002408       $ip2state$?write@asset_compiler@noiseless@@YAXAEBUTCompilerOptions@2@AEBVTAssetDatabase@bento@@@Z 0000000140010408     noiseless_sdk:compiler.obj
 0002:00002428       $unwind$??1TKernelSource@noiseless@@QEAA@XZ 0000000140010428     noiseless_sdk:compiler.obj
 0002:00002438       $stateUnwindMap$??1TKernelSource@noiseless@@QEAA@XZ 0000000140010438     noiseless_sdk:compiler.obj
 0002:00002440       $ip2state$??1TKernelSource@noiseless@@QEAA@XZ 0000000140010440     noiseless_sdk:compiler.obj
 0002:00002458       $unwind$?resize@?$Vector@D@bento@@QEAAXI@Z 0000000140010458     noiseless_sdk:kernel_source.obj
 0002:00002468       $unwind$?reserve@?$Vector@D@bento@@QEAAXI@Z 0000000140010468     noiseless_sdk:kernel_source.obj
 0002:00002478       $unwind$?pack_type@bento@@YAXAEAV?$Vector@D@1@AEBUTKernelSource@noiseless@@@Z 0000000140010478     noiseless_sdk:kernel_source.obj
 0002:00002484       $unwind$?unpack_type@bento@@YA_NAEAPEBDAEAUTKernelSource@noiseless@@@Z 0000000140010484     noiseless_sdk:kernel_source.obj
 0002:00002494       $chain$1$?unpack_type@bento@@YA_NAEAPEBDAEAUTKernelSource@noiseless@@@Z 0000000140010494     noiseless_sdk:kernel_source.obj
 0002:000024a8       $chain$2$?unpack_type@bento@@YA_NAEAPEBDAEAUTKernelSource@noiseless@@@Z 00000001400104a8     noiseless_sdk:kernel_source.obj
 0002:000024b8       $unwind$??$pack_vector_bytes@D@bento@@YAXAEAV?$Vector@D@0@AEBV10@@Z 00000001400104b8     noiseless_sdk:kernel_source.obj
 0002:000024c4       $unwind$??$unpack_vector_bytes@D@bento@@YAXAEAPEBDAEAV?$Vector@D@0@@Z 00000001400104c4     noiseless_sdk:kernel_source.obj
 0002:000024d4       $chain$0$??$unpack_vector_bytes@D@bento@@YAXAEAPEBDAEAV?$Vector@D@0@@Z 00000001400104d4     noiseless_sdk:kernel_source.obj
 0002:000024e8       $chain$1$??$unpack_vector_bytes@D@bento@@YAXAEAPEBDAEAV?$Vector@D@0@@Z 00000001400104e8     noiseless_sdk:kernel_source.obj
 0002:000024f8       $unwind$?write_database@noiseless@@YA_NPEBDAEBVTAssetDatabase@bento@@@Z 00000001400104f8     noiseless_sdk:asset_database_helpers.obj
 0002:0000251c       $stateUnwindMap$?write_database@noiseless@@YA_NPEBDAEBVTAssetDatabase@bento@@@Z 000000014001051c     noiseless_sdk:asset_database_helpers.obj
 0002:00002560       $ip2state$?write_database@noiseless@@YA_NPEBDAEBVTAssetDatabase@bento@@@Z 0000000140010560     noiseless_sdk:asset_database_helpers.obj
 0002:000025b0       $unwind$?read_database@noiseless@@YA_NPEBDAEAVTAssetDatabase@bento@@@Z 00000001400105b0     noiseless_sdk:asset_database_helpers.obj
 0002:000025d0       $stateUnwindMap$?read_database@noiseless@@YA_NPEBDAEAVTAssetDatabase@bento@@@Z 00000001400105d0     noiseless_sdk:asset_database_helpers.obj
 0002:00002620       $ip2state$?read_database@noiseless@@YA_NPEBDAEAVTAssetDatabase@bento@@@Z 0000000140010620     noiseless_sdk:asset_database_helpers.obj
 0002:00002688       $unwind$?write_database_debug@noiseless@@YA_NPEBDAEBVTAssetDatabase@bento@@@Z 0000000140010688     noiseless_sdk:asset_database_helpers.obj
 0002:000026a8       $stateUnwindMap$?write_database_debug@noiseless@@YA_NPEBDAEBVTAssetDatabase@bento@@@Z 00000001400106a8     noiseless_sdk:asset_database_helpers.obj
 0002:000026f0       $ip2state$?write_database_debug@noiseless@@YA_NPEBDAEBVTAssetDatabase@bento@@@Z 00000001400106f0     noiseless_sdk:asset_database_helpers.obj
 0002:00002740       $unwind$??1DiskSerializer@bento@@QEAA@XZ 0000000140010740     noiseless_sdk:asset_database_helpers.obj
 0002:00002750       $stateUnwindMap$??1DiskSerializer@bento@@QEAA@XZ 0000000140010750     noiseless_sdk:asset_database_helpers.obj
 0002:00002758       $ip2state$??1DiskSerializer@bento@@QEAA@XZ 0000000140010758     noiseless_sdk:asset_database_helpers.obj
 0002:00002770       $unwind$?_Maklocwcs@std@@YAPEA_WPEB_W@Z 0000000140010770     noiseless_sdk:asset_database_helpers.obj
 0002:00002780       $unwind$??$_Getvals@_W@?$time_get@DV?$istreambuf_iterator@DU?$char_traits@D@std@@@std@@@std@@IEAAX_WAEBV_Locinfo@1@@Z 0000000140010780     noiseless_sdk:asset_database_helpers.obj
 0002:00002794       $unwind$??$_Getvals@_W@?$time_get@_WV?$istreambuf_iterator@_WU?$char_traits@_W@std@@@std@@@std@@IEAAX_WAEBV_Locinfo@1@@Z 0000000140010794     noiseless_sdk:asset_database_helpers.obj
 0002:000027a8       $unwind$??__E__common_allocator@bento@@YAXXZ 00000001400107a8     bento_sdk:common.obj
 0002:000027b0       $unwind$??0DynamicString@bento@@QEAA@AEAVIAllocator@1@@Z 00000001400107b0     bento_sdk:dynamic_string.obj
 0002:000027c4       $stateUnwindMap$??0DynamicString@bento@@QEAA@AEAVIAllocator@1@@Z 00000001400107c4     bento_sdk:dynamic_string.obj
 0002:000027d0       $ip2state$??0DynamicString@bento@@QEAA@AEAVIAllocator@1@@Z 00000001400107d0     bento_sdk:dynamic_string.obj
 0002:000027e8       $unwind$??0DynamicString@bento@@QEAA@AEAVIAllocator@1@PEBD@Z 00000001400107e8     bento_sdk:dynamic_string.obj
 0002:00002800       $stateUnwindMap$??0DynamicString@bento@@QEAA@AEAVIAllocator@1@PEBD@Z 0000000140010800     bento_sdk:dynamic_string.obj
 0002:00002808       $ip2state$??0DynamicString@bento@@QEAA@AEAVIAllocator@1@PEBD@Z 0000000140010808     bento_sdk:dynamic_string.obj
 0002:00002820       $unwind$??0DynamicString@bento@@QEAA@AEAVIAllocator@1@I@Z 0000000140010820     bento_sdk:dynamic_string.obj
 0002:00002834       $stateUnwindMap$??0DynamicString@bento@@QEAA@AEAVIAllocator@1@I@Z 0000000140010834     bento_sdk:dynamic_string.obj
 0002:00002840       $ip2state$??0DynamicString@bento@@QEAA@AEAVIAllocator@1@I@Z 0000000140010840     bento_sdk:dynamic_string.obj
 0002:00002858       $unwind$??0DynamicString@bento@@QEAA@AEBV01@@Z 0000000140010858     bento_sdk:dynamic_string.obj
 0002:00002870       $stateUnwindMap$??0DynamicString@bento@@QEAA@AEBV01@@Z 0000000140010870     bento_sdk:dynamic_string.obj
 0002:00002878       $ip2state$??0DynamicString@bento@@QEAA@AEBV01@@Z 0000000140010878     bento_sdk:dynamic_string.obj
 0002:00002890       $unwind$?resize@DynamicString@bento@@QEAAXI@Z 0000000140010890     bento_sdk:dynamic_string.obj
 0002:0000289c       $unwind$??4DynamicString@bento@@QEAAAEAV01@AEBV01@@Z 000000014001089c     bento_sdk:dynamic_string.obj
 0002:000028ac       $unwind$??4DynamicString@bento@@QEAAAEAV01@PEBD@Z 00000001400108ac     bento_sdk:dynamic_string.obj
 0002:000028bc       $unwind$??YDynamicString@bento@@QEAAAEAV01@PEBD@Z 00000001400108bc     bento_sdk:dynamic_string.obj
 0002:000028d0       $unwind$??YDynamicString@bento@@QEAAAEAV01@AEBV01@@Z 00000001400108d0     bento_sdk:dynamic_string.obj
 0002:000028e4       $unwind$?to_lower_case@string@bento@@YAXAEAVDynamicString@2@@Z 00000001400108e4     bento_sdk:dynamic_string.obj
 0002:000028ec       $chain$0$?to_lower_case@string@bento@@YAXAEAVDynamicString@2@@Z 00000001400108ec     bento_sdk:dynamic_string.obj
 0002:00002900       $chain$1$?to_lower_case@string@bento@@YAXAEAVDynamicString@2@@Z 0000000140010900     bento_sdk:dynamic_string.obj
 0002:00002910       $unwind$?substr@string@bento@@YA?AVDynamicString@2@AEBV32@II@Z 0000000140010910     bento_sdk:dynamic_string.obj
 0002:0000292c       $stateUnwindMap$?substr@string@bento@@YA?AVDynamicString@2@AEBV32@II@Z 000000014001092c     bento_sdk:dynamic_string.obj
 0002:00002938       $ip2state$?substr@string@bento@@YA?AVDynamicString@2@AEBV32@II@Z 0000000140010938     bento_sdk:dynamic_string.obj
 0002:00002950       $unwind$?pack_type@bento@@YAXAEAV?$Vector@D@1@AEBVDynamicString@1@@Z 0000000140010950     bento_sdk:dynamic_string.obj
 0002:0000295c       $unwind$?unpack_type@bento@@YAXAEAPEBDAEAVDynamicString@1@@Z 000000014001095c     bento_sdk:dynamic_string.obj
 0002:00002968       $unwind$??_Gexception@stdext@@UEAAPEAXI@Z 0000000140010968     bento_sdk:asset_database.obj
 0002:00002970       $unwind$??4?$Vector@D@bento@@QEAAXAEBV01@@Z 0000000140010970     bento_sdk:asset_database.obj
 0002:00002980       $unwind$??1TAssetDatabase@bento@@QEAA@XZ 0000000140010980     bento_sdk:asset_database.obj
 0002:00002990       $stateUnwindMap$??1TAssetDatabase@bento@@QEAA@XZ 0000000140010990     bento_sdk:asset_database.obj
 0002:00002998       $ip2state$??1TAssetDatabase@bento@@QEAA@XZ 0000000140010998     bento_sdk:asset_database.obj
 0002:000029b0       $unwind$?insert_asset@TAssetDatabase@bento@@QEAAXPEBD0IAEAV?$Vector@D@2@@Z 00000001400109b0     bento_sdk:asset_database.obj
 0002:000029c8       $unwind$?request_asset@TAssetDatabase@bento@@QEBAPEBUTAsset@2@PEBD@Z 00000001400109c8     bento_sdk:asset_database.obj
 0002:000029d4       $unwind$??1?$Vector@UTAsset@bento@@@bento@@QEAA@XZ 00000001400109d4     bento_sdk:asset_database.obj
 0002:000029e8       $ip2state$??1?$Vector@UTAsset@bento@@@bento@@QEAA@XZ 00000001400109e8     bento_sdk:asset_database.obj
 0002:000029f0       $unwind$?resize@?$Vector@UTAsset@bento@@@bento@@QEAAXI@Z 00000001400109f0     bento_sdk:asset_database.obj
 0002:00002a10       $stateUnwindMap$?resize@?$Vector@UTAsset@bento@@@bento@@QEAAXI@Z 0000000140010a10     bento_sdk:asset_database.obj
 0002:00002a40       $ip2state$?resize@?$Vector@UTAsset@bento@@@bento@@QEAAXI@Z 0000000140010a40     bento_sdk:asset_database.obj
 0002:00002a88       $unwind$?dtor$12@?0??resize@?$Vector@UTAsset@bento@@@bento@@QEAAXI@Z@4HA 0000000140010a88     bento_sdk:asset_database.obj
 0002:00002a90       $unwind$?dtor$17@?0??resize@?$Vector@UTAsset@bento@@@bento@@QEAAXI@Z@4HA 0000000140010a90     bento_sdk:asset_database.obj
 0002:00002a98       $unwind$?free@?$Vector@UTAsset@bento@@@bento@@QEAAXXZ 0000000140010a98     bento_sdk:asset_database.obj
 0002:00002aa0       $unwind$?clear@?$Vector@UTAsset@bento@@@bento@@QEAAXXZ 0000000140010aa0     bento_sdk:asset_database.obj
 0002:00002abc       $stateUnwindMap$?clear@?$Vector@UTAsset@bento@@@bento@@QEAAXXZ 0000000140010abc     bento_sdk:asset_database.obj
 0002:00002ac8       $ip2state$?clear@?$Vector@UTAsset@bento@@@bento@@QEAAXXZ 0000000140010ac8     bento_sdk:asset_database.obj
 0002:00002ae0       $unwind$?reserve@?$Vector@UTAsset@bento@@@bento@@QEAAXI@Z 0000000140010ae0     bento_sdk:asset_database.obj
 0002:00002af0       $unwind$?pack_type@bento@@YAXAEAV?$Vector@D@1@AEBVTAssetDatabase@1@@Z 0000000140010af0     bento_sdk:asset_database.obj
 0002:00002afc       $chain$0$?pack_type@bento@@YAXAEAV?$Vector@D@1@AEBVTAssetDatabase@1@@Z 0000000140010afc     bento_sdk:asset_database.obj
 0002:00002b10       $chain$1$?pack_type@bento@@YAXAEAV?$Vector@D@1@AEBVTAssetDatabase@1@@Z 0000000140010b10     bento_sdk:asset_database.obj
 0002:00002b24       $chain$2$?pack_type@bento@@YAXAEAV?$Vector@D@1@AEBVTAssetDatabase@1@@Z 0000000140010b24     bento_sdk:asset_database.obj
 0002:00002b34       $chain$3$?pack_type@bento@@YAXAEAV?$Vector@D@1@AEBVTAssetDatabase@1@@Z 0000000140010b34     bento_sdk:asset_database.obj
 0002:00002b44       $unwind$?unpack_type@bento@@YA_NAEAPEBDAEAVTAssetDatabase@1@@Z 0000000140010b44     bento_sdk:asset_database.obj
 0002:00002b50       $chain$0$?unpack_type@bento@@YA_NAEAPEBDAEAVTAssetDatabase@1@@Z 0000000140010b50     bento_sdk:asset_database.obj
 0002:00002b64       $chain$1$?unpack_type@bento@@YA_NAEAPEBDAEAVTAssetDatabase@1@@Z 0000000140010b64     bento_sdk:asset_database.obj
 0002:00002b78       $chain$2$?unpack_type@bento@@YA_NAEAPEBDAEAVTAssetDatabase@1@@Z 0000000140010b78     bento_sdk:asset_database.obj
 0002:00002b88       $chain$3$?unpack_type@bento@@YA_NAEAPEBDAEAVTAssetDatabase@1@@Z 0000000140010b88     bento_sdk:asset_database.obj
 0002:00002b98       $unwind$?to_string@bento@@YAXAEAVDynamicString@1@AEBVTAssetDatabase@1@@Z 0000000140010b98     bento_sdk:asset_database.obj
 0002:00002bc0       $stateUnwindMap$?to_string@bento@@YAXAEAVDynamicString@1@AEBVTAssetDatabase@1@@Z 0000000140010bc0     bento_sdk:asset_database.obj
 0002:00002cb0       $ip2state$?to_string@bento@@YAXAEAVDynamicString@1@AEBVTAssetDatabase@1@@Z 0000000140010cb0     bento_sdk:asset_database.obj
 0002:00002de8       $unwind$?dtor$3@?0??to_string@bento@@YAXAEAVDynamicString@1@AEBVTAssetDatabase@1@@Z@4HA 0000000140010de8     bento_sdk:asset_database.obj
 0002:00002df0       $unwind$?dtor$7@?0??to_string@bento@@YAXAEAVDynamicString@1@AEBVTAssetDatabase@1@@Z@4HA 0000000140010df0     bento_sdk:asset_database.obj
 0002:00002df8       $unwind$?dtor$12@?0??to_string@bento@@YAXAEAVDynamicString@1@AEBVTAssetDatabase@1@@Z@4HA 0000000140010df8     bento_sdk:asset_database.obj
 0002:00002e00       $unwind$?dtor$16@?0??to_string@bento@@YAXAEAVDynamicString@1@AEBVTAssetDatabase@1@@Z@4HA 0000000140010e00     bento_sdk:asset_database.obj
 0002:00002e08       $unwind$?dtor$18@?0??to_string@bento@@YAXAEAVDynamicString@1@AEBVTAssetDatabase@1@@Z@4HA 0000000140010e08     bento_sdk:asset_database.obj
 0002:00002e10       $unwind$snprintf           0000000140010e10     bento_sdk:asset_database.obj
 0002:00002e20       $unwind$?_Xran@?$_String_val@U?$_Simple_types@D@std@@@std@@SAXXZ 0000000140010e20     bento_sdk:asset_database.obj
 0002:00002e28       $unwind$??0?$basic_string@DU?$char_traits@D@std@@V?$allocator@D@2@@std@@QEAA@AEBV01@@Z 0000000140010e28     bento_sdk:asset_database.obj
 0002:00002e3c       $unwind$??0?$basic_string@DU?$char_traits@D@std@@V?$allocator@D@2@@std@@QEAA@QEBD@Z 0000000140010e3c     bento_sdk:asset_database.obj
 0002:00002e44       $unwind$??0?$basic_string@DU?$char_traits@D@std@@V?$allocator@D@2@@std@@QEAA@_KD@Z 0000000140010e44     bento_sdk:asset_database.obj
 0002:00002e5c       $unwind$?append@?$basic_string@DU?$char_traits@D@std@@V?$allocator@D@2@@std@@QEAAAEAV12@QEBD_K@Z 0000000140010e5c     bento_sdk:asset_database.obj
 0002:00002e70       $chain$1$?append@?$basic_string@DU?$char_traits@D@std@@V?$allocator@D@2@@std@@QEAAAEAV12@QEBD_K@Z 0000000140010e70     bento_sdk:asset_database.obj
 0002:00002e88       $chain$2$?append@?$basic_string@DU?$char_traits@D@std@@V?$allocator@D@2@@std@@QEAAAEAV12@QEBD_K@Z 0000000140010e88     bento_sdk:asset_database.obj
 0002:00002e98       $unwind$?append@?$basic_string@DU?$char_traits@D@std@@V?$allocator@D@2@@std@@QEAAAEAV12@_KD@Z 0000000140010e98     bento_sdk:asset_database.obj
 0002:00002eac       $chain$1$?append@?$basic_string@DU?$char_traits@D@std@@V?$allocator@D@2@@std@@QEAAAEAV12@_KD@Z 0000000140010eac     bento_sdk:asset_database.obj
 0002:00002ec4       $chain$2$?append@?$basic_string@DU?$char_traits@D@std@@V?$allocator@D@2@@std@@QEAAAEAV12@_KD@Z 0000000140010ec4     bento_sdk:asset_database.obj
 0002:00002ed4       $unwind$?assign@?$basic_string@DU?$char_traits@D@std@@V?$allocator@D@2@@std@@QEAAAEAV12@QEBD_K@Z 0000000140010ed4     bento_sdk:asset_database.obj
 0002:00002ee8       $chain$0$?assign@?$basic_string@DU?$char_traits@D@std@@V?$allocator@D@2@@std@@QEAAAEAV12@QEBD_K@Z 0000000140010ee8     bento_sdk:asset_database.obj
 0002:00002efc       $chain$1$?assign@?$basic_string@DU?$char_traits@D@std@@V?$allocator@D@2@@std@@QEAAAEAV12@QEBD_K@Z 0000000140010efc     bento_sdk:asset_database.obj
 0002:00002f0c       $chain$2$?assign@?$basic_string@DU?$char_traits@D@std@@V?$allocator@D@2@@std@@QEAAAEAV12@QEBD_K@Z 0000000140010f0c     bento_sdk:asset_database.obj
 0002:00002f20       $chain$3$?assign@?$basic_string@DU?$char_traits@D@std@@V?$allocator@D@2@@std@@QEAAAEAV12@QEBD_K@Z 0000000140010f20     bento_sdk:asset_database.obj
 0002:00002f30       $unwind$?insert@?$basic_string@DU?$char_traits@D@std@@V?$allocator@D@2@@std@@QEAAAEAV12@_KQEBD0@Z 0000000140010f30     bento_sdk:asset_database.obj
 0002:00002f40       $chain$1$?insert@?$basic_string@DU?$char_traits@D@std@@V?$allocator@D@2@@std@@QEAAAEAV12@_KQEBD0@Z 0000000140010f40     bento_sdk:asset_database.obj
 0002:00002f58       $chain$2$?insert@?$basic_string@DU?$char_traits@D@std@@V?$allocator@D@2@@std@@QEAAAEAV12@_KQEBD0@Z 0000000140010f58     bento_sdk:asset_database.obj
 0002:00002f68       $unwind$?push_back@?$basic_string@DU?$char_traits@D@std@@V?$allocator@D@2@@std@@QEAAXD@Z 0000000140010f68     bento_sdk:asset_database.obj
 0002:00002f78       $chain$0$?push_back@?$basic_string@DU?$char_traits@D@std@@V?$allocator@D@2@@std@@QEAAXD@Z 0000000140010f78     bento_sdk:asset_database.obj
 0002:00002f8c       $chain$2$?push_back@?$basic_string@DU?$char_traits@D@std@@V?$allocator@D@2@@std@@QEAAXD@Z 0000000140010f8c     bento_sdk:asset_database.obj
 0002:00002fa4       $chain$3$?push_back@?$basic_string@DU?$char_traits@D@std@@V?$allocator@D@2@@std@@QEAAXD@Z 0000000140010fa4     bento_sdk:asset_database.obj
 0002:00002fb8       $chain$5$?push_back@?$basic_string@DU?$char_traits@D@std@@V?$allocator@D@2@@std@@QEAAXD@Z 0000000140010fb8     bento_sdk:asset_database.obj
 0002:00002fcc       $unwind$?compare@?$basic_string@DU?$char_traits@D@std@@V?$allocator@D@2@@std@@QEBAHAEBV12@@Z 0000000140010fcc     bento_sdk:asset_database.obj
 0002:00002fd8       $unwind$?_Become_small@?$basic_string@DU?$char_traits@D@std@@V?$allocator@D@2@@std@@QEAAXXZ 0000000140010fd8     bento_sdk:asset_database.obj
 0002:00002fe4       $unwind$?_Tidy_deallocate@?$basic_string@DU?$char_traits@D@std@@V?$allocator@D@2@@std@@QEAAXXZ 0000000140010fe4     bento_sdk:asset_database.obj
 0002:00002fec       $unwind$?_Xlen@?$basic_string@DU?$char_traits@D@std@@V?$allocator@D@2@@std@@SAXXZ 0000000140010fec     bento_sdk:asset_database.obj
 0002:00002ff4       $unwind$?_Doraise@runtime_error@std@@MEBAXXZ 0000000140010ff4     bento_sdk:asset_database.obj
 0002:00002ffc       $unwind$??_Gruntime_error@std@@UEAAPEAXI@Z 0000000140010ffc     bento_sdk:asset_database.obj
 0002:00003004       $unwind$?to_string@std@@YA?AV?$basic_string@DU?$char_traits@D@std@@V?$allocator@D@2@@1@_K@Z 0000000140011004     bento_sdk:asset_database.obj
 0002:00003014       $unwind$??_G_Ref_count_base@std@@UEAAPEAXI@Z 0000000140011014     bento_sdk:asset_database.obj
 0002:0000301c       $unwind$?name@exception@detail@nlohmann@@KA?AV?$basic_string@DU?$char_traits@D@std@@V?$allocator@D@2@@std@@AEBV45@H@Z 000000014001101c     bento_sdk:asset_database.obj
 0002:0000303c       $stateUnwindMap$?name@exception@detail@nlohmann@@KA?AV?$basic_string@DU?$char_traits@D@std@@V?$allocator@D@2@@std@@AEBV45@H@Z 000000014001103c     bento_sdk:asset_database.obj
 0002:00003060       $ip2state$?name@exception@detail@nlohmann@@KA?AV?$basic_string@DU?$char_traits@D@std@@V?$allocator@D@2@@std@@AEBV45@H@Z 0000000140011060     bento_sdk:asset_database.obj
 0002:000030a8       $unwind$??_Gexception@detail@nlohmann@@UEAAPEAXI@Z 00000001400110a8     bento_sdk:asset_database.obj
 0002:000030b0       $unwind$??$?HDU?$char_traits@D@std@@V?$allocator@D@1@@std@@YA?AV?$basic_string@DU?$char_traits@D@std@@V?$allocator@D@2@@0@QEBDAEBV10@@Z 00000001400110b0     bento_sdk:asset_database.obj
 0002:000030d0       $stateUnwindMap$??$?HDU?$char_traits@D@std@@V?$allocator@D@1@@std@@YA?AV?$basic_string@DU?$char_traits@D@std@@V?$allocator@D@2@@0@QEBDAEBV10@@Z 00000001400110d0     bento_sdk:asset_database.obj
 0002:000030d8       $ip2state$??$?HDU?$char_traits@D@std@@V?$allocator@D@1@@std@@YA?AV?$basic_string@DU?$char_traits@D@std@@V?$allocator@D@2@@0@QEBDAEBV10@@Z 00000001400110d8     bento_sdk:asset_database.obj
 0002:000030e8       $unwind$?dtor$0@?0???$?HDU?$char_traits@D@std@@V?$allocator@D@1@@std@@YA?AV?$basic_string@DU?$char_traits@D@std@@V?$allocator@D@2@@0@QEBDAEBV10@@Z@4HA 00000001400110e8     bento_sdk:asset_database.obj
 0002:000030f0       $unwind$??$?HDU?$char_traits@D@std@@V?$allocator@D@1@@std@@YA?AV?$basic_string@DU?$char_traits@D@std@@V?$allocator@D@2@@0@QEBD$$QEAV10@@Z 00000001400110f0     bento_sdk:asset_database.obj
 0002:000030f8       $unwind$??$?HDU?$char_traits@D@std@@V?$allocator@D@1@@std@@YA?AV?$basic_string@DU?$char_traits@D@std@@V?$allocator@D@2@@0@$$QEAV10@QEBD@Z 00000001400110f8     bento_sdk:asset_database.obj
 0002:00003100       $unwind$??$?HDU?$char_traits@D@std@@V?$allocator@D@1@@std@@YA?AV?$basic_string@DU?$char_traits@D@std@@V?$allocator@D@2@@0@$$QEAV10@0@Z 0000000140011100     bento_sdk:asset_database.obj
 0002:00003108       $unwind$?create@type_error@detail@nlohmann@@SA?AV123@HAEBV?$basic_string@DU?$char_traits@D@std@@V?$allocator@D@2@@std@@@Z 0000000140011108     bento_sdk:asset_database.obj
 0002:00003124       $stateUnwindMap$?create@type_error@detail@nlohmann@@SA?AV123@HAEBV?$basic_string@DU?$char_traits@D@std@@V?$allocator@D@2@@std@@@Z 0000000140011124     bento_sdk:asset_database.obj
 0002:00003138       $ip2state$?create@type_error@detail@nlohmann@@SA?AV123@HAEBV?$basic_string@DU?$char_traits@D@std@@V?$allocator@D@2@@std@@@Z 0000000140011138     bento_sdk:asset_database.obj
 0002:00003160       $unwind$??_Gtype_error@detail@nlohmann@@UEAAPEAXI@Z 0000000140011160     bento_sdk:asset_database.obj
 0002:00003168       $unwind$?create@other_error@detail@nlohmann@@SA?AV123@HAEBV?$basic_string@DU?$char_traits@D@std@@V?$allocator@D@2@@std@@@Z 0000000140011168     bento_sdk:asset_database.obj
 0002:00003184       $stateUnwindMap$?create@other_error@detail@nlohmann@@SA?AV123@HAEBV?$basic_string@DU?$char_traits@D@std@@V?$allocator@D@2@@std@@@Z 0000000140011184     bento_sdk:asset_database.obj
 0002:00003198       $ip2state$?create@other_error@detail@nlohmann@@SA?AV123@HAEBV?$basic_string@DU?$char_traits@D@std@@V?$allocator@D@2@@std@@@Z 0000000140011198     bento_sdk:asset_database.obj
 0002:000031c0       $unwind$??_Gother_error@detail@nlohmann@@UEAAPEAXI@Z 00000001400111c0     bento_sdk:asset_database.obj
 0002:000031c8       $unwind$?grisu2_digit_gen@dtoa_impl@detail@nlohmann@@YAXPEADAEAH1Udiyfp@123@22@Z 00000001400111c8     bento_sdk:asset_database.obj
 0002:000031e4       $unwind$?grisu2@dtoa_impl@detail@nlohmann@@YAXPEADAEAH1Udiyfp@123@22@Z 00000001400111e4     bento_sdk:asset_database.obj
 0002:000031fc       $unwind$?format_buffer@dtoa_impl@detail@nlohmann@@YAPEADPEADHHHH@Z 00000001400111fc     bento_sdk:asset_database.obj
 0002:00003210       $unwind$??1?$shared_ptr@U?$output_adapter_protocol@D@detail@nlohmann@@@std@@QEAA@XZ 0000000140011210     bento_sdk:asset_database.obj
 0002:00003218       $chain$0$??1?$shared_ptr@U?$output_adapter_protocol@D@detail@nlohmann@@@std@@QEAA@XZ 0000000140011218     bento_sdk:asset_database.obj
 0002:0000322c       $chain$1$??1?$shared_ptr@U?$output_adapter_protocol@D@detail@nlohmann@@@std@@QEAA@XZ 000000014001122c     bento_sdk:asset_database.obj
 0002:0000323c       $unwind$??0?$basic_json@Vmap@std@@Vvector@2@V?$basic_string@DU?$char_traits@D@std@@V?$allocator@D@2@@2@_N_J_KNVallocator@2@Uadl_serializer@nlohmann@@@nlohmann@@QEAA@V?$initializer_list@V?$json_ref@V?$basic_json@Vmap@std@@Vvector@2@V?$basic_string@DU?$char_traits@D@std@@V?$allocator@D@2@@2@_N_J_KNVallocator@2@Uadl_serializer@nlohmann@@@nlohmann@@@detail@nlohmann@@@std@@_NW4value_t@detail@1@@Z 000000014001123c     bento_sdk:asset_database.obj
 0002:00003260       $stateUnwindMap$??0?$basic_json@Vmap@std@@Vvector@2@V?$basic_string@DU?$char_traits@D@std@@V?$allocator@D@2@@2@_N_J_KNVallocator@2@Uadl_serializer@nlohmann@@@nlohmann@@QEAA@V?$initializer_list@V?$json_ref@V?$basic_json@Vmap@std@@Vvector@2@V?$basic_string@DU?$char_traits@D@std@@V?$allocator@D@2@@2@_N_J_KNVallocator@2@Uadl_serializer@nlohmann@@@nlohmann@@@detail@nlohmann@@@std@@_NW4value_t@detail@1@@Z 0000000140011260     bento_sdk:asset_database.obj
 0002:000032a0       $ip2state$??0?$basic_json@Vmap@std@@Vvector@2@V?$basic_string@DU?$char_traits@D@std@@V?$allocator@D@2@@2@_N_J_KNVallocator@2@Uadl_serializer@nlohmann@@@nlohmann@@QEAA@V?$initializer_list@V?$json_ref@V?$basic_json@Vmap@std@@Vvector@2@V?$basic_string@DU?$char_traits@D@std@@V?$allocator@D@2@@2@_N_J_KNVallocator@2@Uadl_serializer@nlohmann@@@nlohmann@@@detail@nlohmann@@@std@@_NW4value_t@detail@1@@Z 00000001400112a0     bento_sdk:asset_database.obj
 0002:000032f0       $unwind$?dtor$99@?0???0?$basic_json@Vmap@std@@Vvector@2@V?$basic_string@DU?$char_traits@D@std@@V?$allocator@D@2@@2@_N_J_KNVallocator@2@Uadl_serializer@nlohmann@@@nlohmann@@QEAA@V?$initializer_list@V?$json_ref@V?$basic_json@Vmap@std@@Vvector@2@V?$basic_string@DU?$char_traits@D@std@@V?$allocator@D@2@@2@_N_J_KNVallocator@2@Uadl_serializer@nlohmann@@@nlohmann@@@detail@nlohmann@@@std@@_NW4value_t@detail@1@@Z@4HA 00000001400112f0     bento_sdk:asset_database.obj
 0002:000032f8       $unwind$?dtor$143@?0???0?$basic_json@Vmap@std@@Vvector@2@V?$basic_string@DU?$char_traits@D@std@@V?$allocator@D@2@@2@_N_J_KNVallocator@2@Uadl_serializer@nlohmann@@@nlohmann@@QEAA@V?$initializer_list@V?$json_ref@V?$basic_json@Vmap@std@@Vvector@2@V?$basic_string@DU?$char_traits@D@std@@V?$allocator@D@2@@2@_N_J_KNVallocator@2@Uadl_serializer@nlohmann@@@nlohmann@@@detail@nlohmann@@@std@@_NW4value_t@detail@1@@Z@4HA 00000001400112f8     bento_sdk:asset_database.obj
 0002:00003300       $unwind$??0?$basic_json@Vmap@std@@Vvector@2@V?$basic_string@DU?$char_traits@D@std@@V?$allocator@D@2@@2@_N_J_KNVallocator@2@Uadl_serializer@nlohmann@@@nlohmann@@QEAA@AEBV01@@Z 0000000140011300     bento_sdk:asset_database.obj
 0002:00003318       $stateUnwindMap$??0?$basic_json@Vmap@std@@Vvector@2@V?$basic_string@DU?$char_traits@D@std@@V?$allocator@D@2@@2@_N_J_KNVallocator@2@Uadl_serializer@nlohmann@@@nlohmann@@QEAA@AEBV01@@Z 0000000140011318     bento_sdk:asset_database.obj
 0002:00003360       $ip2state$??0?$basic_json@Vmap@std@@Vvector@2@V?$basic_string@DU?$char_traits@D@std@@V?$allocator@D@2@@2@_N_J_KNVallocator@2@Uadl_serializer@nlohmann@@@nlohmann@@QEAA@AEBV01@@Z 0000000140011360     bento_sdk:asset_database.obj
 0002:000033e0       $unwind$?dtor$11@?0???0?$basic_json@Vmap@std@@Vvector@2@V?$basic_string@DU?$char_traits@D@std@@V?$allocator@D@2@@2@_N_J_KNVallocator@2@Uadl_serializer@nlohmann@@@nlohmann@@QEAA@AEBV01@@Z@4HA 00000001400113e0     bento_sdk:asset_database.obj
 0002:000033e8       $unwind$?dtor$231@?0???0?$basic_json@Vmap@std@@Vvector@2@V?$basic_string@DU?$char_traits@D@std@@V?$allocator@D@2@@2@_N_J_KNVallocator@2@Uadl_serializer@nlohmann@@@nlohmann@@QEAA@AEBV01@@Z@4HA 00000001400113e8     bento_sdk:asset_database.obj
 0002:000033f0       $unwind$?dtor$256@?0???0?$basic_json@Vmap@std@@Vvector@2@V?$basic_string@DU?$char_traits@D@std@@V?$allocator@D@2@@2@_N_J_KNVallocator@2@Uadl_serializer@nlohmann@@@nlohmann@@QEAA@AEBV01@@Z@4HA 00000001400113f0     bento_sdk:asset_database.obj
 0002:000033f8       $unwind$?dtor$289@?0???0?$basic_json@Vmap@std@@Vvector@2@V?$basic_string@DU?$char_traits@D@std@@V?$allocator@D@2@@2@_N_J_KNVallocator@2@Uadl_serializer@nlohmann@@@nlohmann@@QEAA@AEBV01@@Z@4HA 00000001400113f8     bento_sdk:asset_database.obj
 0002:00003400       $unwind$?dump@?$basic_json@Vmap@std@@Vvector@2@V?$basic_string@DU?$char_traits@D@std@@V?$allocator@D@2@@2@_N_J_KNVallocator@2@Uadl_serializer@nlohmann@@@nlohmann@@QEBA?AV?$basic_string@DU?$char_traits@D@std@@V?$allocator@D@2@@std@@HD_N@Z 0000000140011400     bento_sdk:asset_database.obj
 0002:00003428       $stateUnwindMap$?dump@?$basic_json@Vmap@std@@Vvector@2@V?$basic_string@DU?$char_traits@D@std@@V?$allocator@D@2@@2@_N_J_KNVallocator@2@Uadl_serializer@nlohmann@@@nlohmann@@QEBA?AV?$basic_string@DU?$char_traits@D@std@@V?$allocator@D@2@@std@@HD_N@Z 0000000140011428     bento_sdk:asset_database.obj
 0002:00003460       $ip2state$?dump@?$basic_json@Vmap@std@@Vvector@2@V?$basic_string@DU?$char_traits@D@std@@V?$allocator@D@2@@2@_N_J_KNVallocator@2@Uadl_serializer@nlohmann@@@nlohmann@@QEBA?AV?$basic_string@DU?$char_traits@D@std@@V?$allocator@D@2@@std@@HD_N@Z 0000000140011460     bento_sdk:asset_database.obj
 0002:000034a0       $unwind$?dtor$0@?0??dump@?$basic_json@Vmap@std@@Vvector@2@V?$basic_string@DU?$char_traits@D@std@@V?$allocator@D@2@@2@_N_J_KNVallocator@2@Uadl_serializer@nlohmann@@@nlohmann@@QEBA?AV?$basic_string@DU?$char_traits@D@std@@V?$allocator@D@2@@std@@HD_N@Z@4HA 00000001400114a0     bento_sdk:asset_database.obj
 0002:000034a8       $unwind$?_Destroy_if_node@?$_Tree@V?$_Tmap_traits@V?$basic_string@DU?$char_traits@D@std@@V?$allocator@D@2@@std@@V?$basic_json@Vmap@std@@Vvector@2@V?$basic_string@DU?$char_traits@D@std@@V?$allocator@D@2@@2@_N_J_KNVallocator@2@Uadl_serializer@nlohmann@@@nlohmann@@U?$less@V?$basic_string@DU?$char_traits@D@std@@V?$allocator@D@2@@std@@@2@V?$allocator@U?$pair@$$CBV?$basic_string@DU?$char_traits@D@std@@V?$allocator@D@2@@std@@V?$basic_json@Vmap@std@@Vvector@2@V?$basic_string@DU?$char_traits@D@std@@V?$allocator@D@2@@2@_N_J_KNVallocator@2@Uadl_serializer@nlohmann@@@nlohmann@@@std@@@2@$0A@@std@@@std@@IEAAXPEAU?$_Tree_node@U?$pair@$$CBV?$basic_string@DU?$char_traits@D@std@@V?$allocator@D@2@@std@@V?$basic_json@Vmap@std@@Vvector@2@V?$basic_string@DU?$char_traits@D@std@@V?$allocator@D@2@@2@_N_J_KNVallocator@2@Uadl_serializer@nlohmann@@@nlohmann@@@std@@PEAX@2@@Z 00000001400114a8     bento_sdk:asset_database.obj
 0002:000034b4       $unwind$?_Erase@?$_Tree@V?$_Tmap_traits@V?$basic_string@DU?$char_traits@D@std@@V?$allocator@D@2@@std@@V?$basic_json@Vmap@std@@Vvector@2@V?$basic_string@DU?$char_traits@D@std@@V?$allocator@D@2@@2@_N_J_KNVallocator@2@Uadl_serializer@nlohmann@@@nlohmann@@U?$less@V?$basic_string@DU?$char_traits@D@std@@V?$allocator@D@2@@std@@@2@V?$allocator@U?$pair@$$CBV?$basic_string@DU?$char_traits@D@std@@V?$allocator@D@2@@std@@V?$basic_json@Vmap@std@@Vvector@2@V?$basic_string@DU?$char_traits@D@std@@V?$allocator@D@2@@2@_N_J_KNVallocator@2@Uadl_serializer@nlohmann@@@nlohmann@@@std@@@2@$0A@@std@@@std@@IEAAXPEAU?$_Tree_node@U?$pair@$$CBV?$basic_string@DU?$char_traits@D@std@@V?$allocator@D@2@@std@@V?$basic_json@Vmap@std@@Vvector@2@V?$basic_string@DU?$char_traits@D@std@@V?$allocator@D@2@@2@_N_J_KNVallocator@2@Uadl_serializer@nlohmann@@@nlohmann@@@std@@PEAX@2@@Z 00000001400114b4     bento_sdk:asset_database.obj
 0002:000034c4       $chain$0$?_Erase@?$_Tree@V?$_Tmap_traits@V?$basic_string@DU?$char_traits@D@std@@V?$allocator@D@2@@std@@V?$basic_json@Vmap@std@@Vvector@2@V?$basic_string@DU?$char_traits@D@std@@V?$allocator@D@2@@2@_N_J_KNVallocator@2@Uadl_serializer@nlohmann@@@nlohmann@@U?$less@V?$basic_string@DU?$char_traits@D@std@@V?$allocator@D@2@@std@@@2@V?$allocator@U?$pair@$$CBV?$basic_string@DU?$char_traits@D@std@@V?$allocator@D@2@@std@@V?$basic_json@Vmap@std@@Vvector@2@V?$basic_string@DU?$char_traits@D@std@@V?$allocator@D@2@@2@_N_J_KNVallocator@2@Uadl_serializer@nlohmann@@@nlohmann@@@std@@@2@$0A@@std@@@std@@IEAAXPEAU?$_Tree_node@U?$pair@$$CBV?$basic_string@DU?$char_traits@D@std@@V?$allocator@D@2@@std@@V?$basic_json@Vmap@std@@Vvector@2@V?$basic_string@DU?$char_traits@D@std@@V?$allocator@D@2@@2@_N_J_KNVallocator@2@Uadl_serializer@nlohmann@@@nlohmann@@@std@@PEAX@2@@Z 00000001400114c4     bento_sdk:asset_database.obj
 0002:000034d8       $chain$1$?_Erase@?$_Tree@V?$_Tmap_traits@V?$basic_string@DU?$char_traits@D@std@@V?$allocator@D@2@@std@@V?$basic_json@Vmap@std@@Vvector@2@V?$basic_string@DU?$char_traits@D@std@@V?$allocator@D@2@@2@_N_J_KNVallocator@2@Uadl_serializer@nlohmann@@@nlohmann@@U?$less@V?$basic_string@DU?$char_traits@D@std@@V?$allocator@D@2@@std@@@2@V?$allocator@U?$pair@$$CBV?$basic_string@DU?$char_traits@D@std@@V?$allocator@D@2@@std@@V?$basic_json@Vmap@std@@Vvector@2@V?$basic_string@DU?$char_traits@D@std@@V?$allocator@D@2@@2@_N_J_KNVallocator@2@Uadl_serializer@nlohmann@@@nlohmann@@@std@@@2@$0A@@std@@@std@@IEAAXPEAU?$_Tree_node@U?$pair@$$CBV?$basic_string@DU?$char_traits@D@std@@V?$allocator@D@2@@std@@V?$basic_json@Vmap@std@@Vvector@2@V?$basic_string@DU?$char_traits@D@std@@V?$allocator@D@2@@2@_N_J_KNVallocator@2@Uadl_serializer@nlohmann@@@nlohmann@@@std@@PEAX@2@@Z 00000001400114d8     bento_sdk:asset_database.obj
 0002:000034e8       $unwind$??A?$basic_json@Vmap@std@@Vvector@2@V?$basic_string@DU?$char_traits@D@std@@V?$allocator@D@2@@2@_N_J_KNVallocator@2@Uadl_serializer@nlohmann@@@nlohmann@@QEAAAEAV01@AEBV?$basic_string@DU?$char_traits@D@std@@V?$allocator@D@2@@std@@@Z 00000001400114e8     bento_sdk:asset_database.obj
 0002:00003510       $stateUnwindMap$??A?$basic_json@Vmap@std@@Vvector@2@V?$basic_string@DU?$char_traits@D@std@@V?$allocator@D@2@@2@_N_J_KNVallocator@2@Uadl_serializer@nlohmann@@@nlohmann@@QEAAAEAV01@AEBV?$basic_string@DU?$char_traits@D@std@@V?$allocator@D@2@@std@@@Z 0000000140011510     bento_sdk:asset_database.obj
 0002:00003530       $ip2state$??A?$basic_json@Vmap@std@@Vvector@2@V?$basic_string@DU?$char_traits@D@std@@V?$allocator@D@2@@2@_N_J_KNVallocator@2@Uadl_serializer@nlohmann@@@nlohmann@@QEAAAEAV01@AEBV?$basic_string@DU?$char_traits@D@std@@V?$allocator@D@2@@std@@@Z 0000000140011530     bento_sdk:asset_database.obj
 0002:00003560       $unwind$?dtor$73@?0???A?$basic_json@Vmap@std@@Vvector@2@V?$basic_string@DU?$char_traits@D@std@@V?$allocator@D@2@@2@_N_J_KNVallocator@2@Uadl_serializer@nlohmann@@@nlohmann@@QEAAAEAV01@AEBV?$basic_string@DU?$char_traits@D@std@@V?$allocator@D@2@@std@@@Z@4HA 0000000140011560     bento_sdk:asset_database.obj
 0002:00003568       $unwind$??0json_value@?$basic_json@Vmap@std@@Vvector@2@V?$basic_string@DU?$char_traits@D@std@@V?$allocator@D@2@@2@_N_J_KNVallocator@2@Uadl_serializer@nlohmann@@@nlohmann@@QEAA@W4value_t@detail@2@@Z 0000000140011568     bento_sdk:asset_database.obj
 0002:00003584       $stateUnwindMap$??0json_value@?$basic_json@Vmap@std@@Vvector@2@V?$basic_string@DU?$char_traits@D@std@@V?$allocator@D@2@@2@_N_J_KNVallocator@2@Uadl_serializer@nlohmann@@@nlohmann@@QEAA@W4value_t@detail@2@@Z 0000000140011584     bento_sdk:asset_database.obj
 0002:000035a0       $ip2state$??0json_value@?$basic_json@Vmap@std@@Vvector@2@V?$basic_string@DU?$char_traits@D@std@@V?$allocator@D@2@@2@_N_J_KNVallocator@2@Uadl_serializer@nlohmann@@@nlohmann@@QEAA@W4value_t@detail@2@@Z 00000001400115a0     bento_sdk:asset_database.obj
 0002:000035e0       $unwind$?dtor$37@?0???0json_value@?$basic_json@Vmap@std@@Vvector@2@V?$basic_string@DU?$char_traits@D@std@@V?$allocator@D@2@@2@_N_J_KNVallocator@2@Uadl_serializer@nlohmann@@@nlohmann@@QEAA@W4value_t@detail@2@@Z@4HA 00000001400115e0     bento_sdk:asset_database.obj
 0002:000035e8       $unwind$?destroy@json_value@?$basic_json@Vmap@std@@Vvector@2@V?$basic_string@DU?$char_traits@D@std@@V?$allocator@D@2@@2@_N_J_KNVallocator@2@Uadl_serializer@nlohmann@@@nlohmann@@QEAAXW4value_t@detail@3@@Z 00000001400115e8     bento_sdk:asset_database.obj
 0002:000035fc       $stateUnwindMap$?destroy@json_value@?$basic_json@Vmap@std@@Vvector@2@V?$basic_string@DU?$char_traits@D@std@@V?$allocator@D@2@@2@_N_J_KNVallocator@2@Uadl_serializer@nlohmann@@@nlohmann@@QEAAXW4value_t@detail@3@@Z 00000001400115fc     bento_sdk:asset_database.obj
 0002:00003608       $ip2state$?destroy@json_value@?$basic_json@Vmap@std@@Vvector@2@V?$basic_string@DU?$char_traits@D@std@@V?$allocator@D@2@@2@_N_J_KNVallocator@2@Uadl_serializer@nlohmann@@@nlohmann@@QEAAXW4value_t@detail@3@@Z 0000000140011608     bento_sdk:asset_database.obj
 0002:00003620       $unwind$?pack_type@bento@@YAXAEAV?$Vector@D@1@AEBUTAsset@1@@Z 0000000140011620     bento_sdk:asset_database.obj
 0002:0000362c       $unwind$?unpack_type@bento@@YAXAEAPEBDAEAUTAsset@1@@Z 000000014001162c     bento_sdk:asset_database.obj
 0002:00003638       $unwind$??$pack_vector_types@UTAsset@bento@@@bento@@YAXAEAV?$Vector@D@0@AEBV?$Vector@UTAsset@bento@@@0@@Z 0000000140011638     bento_sdk:asset_database.obj
 0002:00003644       $chain$0$??$pack_vector_types@UTAsset@bento@@@bento@@YAXAEAV?$Vector@D@0@AEBV?$Vector@UTAsset@bento@@@0@@Z 0000000140011644     bento_sdk:asset_database.obj
 0002:00003658       $chain$1$??$pack_vector_types@UTAsset@bento@@@bento@@YAXAEAV?$Vector@D@0@AEBV?$Vector@UTAsset@bento@@@0@@Z 0000000140011658     bento_sdk:asset_database.obj
 0002:0000366c       $chain$2$??$pack_vector_types@UTAsset@bento@@@bento@@YAXAEAV?$Vector@D@0@AEBV?$Vector@UTAsset@bento@@@0@@Z 000000014001166c     bento_sdk:asset_database.obj
 0002:0000367c       $chain$3$??$pack_vector_types@UTAsset@bento@@@bento@@YAXAEAV?$Vector@D@0@AEBV?$Vector@UTAsset@bento@@@0@@Z 000000014001167c     bento_sdk:asset_database.obj
 0002:0000368c       $unwind$??$unpack_vector_types@UTAsset@bento@@@bento@@YAXAEAPEBDAEAV?$Vector@UTAsset@bento@@@0@@Z 000000014001168c     bento_sdk:asset_database.obj
 0002:00003698       $chain$0$??$unpack_vector_types@UTAsset@bento@@@bento@@YAXAEAPEBDAEAV?$Vector@UTAsset@bento@@@0@@Z 0000000140011698     bento_sdk:asset_database.obj
 0002:000036ac       $chain$1$??$unpack_vector_types@UTAsset@bento@@@bento@@YAXAEAPEBDAEAV?$Vector@UTAsset@bento@@@0@@Z 00000001400116ac     bento_sdk:asset_database.obj
 0002:000036c0       $chain$2$??$unpack_vector_types@UTAsset@bento@@@bento@@YAXAEAPEBDAEAV?$Vector@UTAsset@bento@@@0@@Z 00000001400116c0     bento_sdk:asset_database.obj
 0002:000036d0       $chain$3$??$unpack_vector_types@UTAsset@bento@@@bento@@YAXAEAPEBDAEAV?$Vector@UTAsset@bento@@@0@@Z 00000001400116d0     bento_sdk:asset_database.obj
 0002:000036e0       $unwind$??$to_json@V?$basic_json@Vmap@std@@Vvector@2@V?$basic_string@DU?$char_traits@D@std@@V?$allocator@D@2@@2@_N_J_KNVallocator@2@Uadl_serializer@nlohmann@@@nlohmann@@@detail@nlohmann@@YAXAEAV?$basic_json@Vmap@std@@Vvector@2@V?$basic_string@DU?$char_traits@D@std@@V?$allocator@D@2@@2@_N_J_KNVallocator@2@Uadl_serializer@nlohmann@@@1@$$QEAV?$basic_string@DU?$char_traits@D@std@@V?$allocator@D@2@@std@@@Z 00000001400116e0     bento_sdk:asset_database.obj
 0002:000036ec       $unwind$?_Buy@?$vector@V?$basic_json@Vmap@std@@Vvector@2@V?$basic_string@DU?$char_traits@D@std@@V?$allocator@D@2@@2@_N_J_KNVallocator@2@Uadl_serializer@nlohmann@@@nlohmann@@V?$allocator@V?$basic_json@Vmap@std@@Vvector@2@V?$basic_string@DU?$char_traits@D@std@@V?$allocator@D@2@@2@_N_J_KNVallocator@2@Uadl_serializer@nlohmann@@@nlohmann@@@std@@@std@@AEAA_N_K@Z 00000001400116ec     bento_sdk:asset_database.obj
 0002:000036f8       $unwind$?_Tidy@?$vector@V?$basic_json@Vmap@std@@Vvector@2@V?$basic_string@DU?$char_traits@D@std@@V?$allocator@D@2@@2@_N_J_KNVallocator@2@Uadl_serializer@nlohmann@@@nlohmann@@V?$allocator@V?$basic_json@Vmap@std@@Vvector@2@V?$basic_string@DU?$char_traits@D@std@@V?$allocator@D@2@@2@_N_J_KNVallocator@2@Uadl_serializer@nlohmann@@@nlohmann@@@std@@@std@@AEAAXXZ 00000001400116f8     bento_sdk:asset_database.obj
 0002:00003704       $chain$0$?_Tidy@?$vector@V?$basic_json@Vmap@std@@Vvector@2@V?$basic_string@DU?$char_traits@D@std@@V?$allocator@D@2@@2@_N_J_KNVallocator@2@Uadl_serializer@nlohmann@@@nlohmann@@V?$allocator@V?$basic_json@Vmap@std@@Vvector@2@V?$basic_string@DU?$char_traits@D@std@@V?$allocator@D@2@@2@_N_J_KNVallocator@2@Uadl_serializer@nlohmann@@@nlohmann@@@std@@@std@@AEAAXXZ 0000000140011704     bento_sdk:asset_database.obj
 0002:00003718       $chain$1$?_Tidy@?$vector@V?$basic_json@Vmap@std@@Vvector@2@V?$basic_string@DU?$char_traits@D@std@@V?$allocator@D@2@@2@_N_J_KNVallocator@2@Uadl_serializer@nlohmann@@@nlohmann@@V?$allocator@V?$basic_json@Vmap@std@@Vvector@2@V?$basic_string@DU?$char_traits@D@std@@V?$allocator@D@2@@2@_N_J_KNVallocator@2@Uadl_serializer@nlohmann@@@nlohmann@@@std@@@std@@AEAAXXZ 0000000140011718     bento_sdk:asset_database.obj
 0002:00003728       $unwind$?_Xlength@?$vector@V?$basic_json@Vmap@std@@Vvector@2@V?$basic_string@DU?$char_traits@D@std@@V?$allocator@D@2@@2@_N_J_KNVallocator@2@Uadl_serializer@nlohmann@@@nlohmann@@V?$allocator@V?$basic_json@Vmap@std@@Vvector@2@V?$basic_string@DU?$char_traits@D@std@@V?$allocator@D@2@@2@_N_J_KNVallocator@2@Uadl_serializer@nlohmann@@@nlohmann@@@std@@@std@@CAXXZ 0000000140011728     bento_sdk:asset_database.obj
 0002:00003730       $unwind$??$create@V?$map@V?$basic_string@DU?$char_traits@D@std@@V?$allocator@D@2@@std@@V?$basic_json@Vmap@std@@Vvector@2@V?$basic_string@DU?$char_traits@D@std@@V?$allocator@D@2@@2@_N_J_KNVallocator@2@Uadl_serializer@nlohmann@@@nlohmann@@U?$less@V?$basic_string@DU?$char_traits@D@std@@V?$allocator@D@2@@std@@@2@V?$allocator@U?$pair@$$CBV?$basic_string@DU?$char_traits@D@std@@V?$allocator@D@2@@std@@V?$basic_json@Vmap@std@@Vvector@2@V?$basic_string@DU?$char_traits@D@std@@V?$allocator@D@2@@2@_N_J_KNVallocator@2@Uadl_serializer@nlohmann@@@nlohmann@@@std@@@2@@std@@$$V@?$basic_json@Vmap@std@@Vvector@2@V?$basic_string@DU?$char_traits@D@std@@V?$allocator@D@2@@2@_N_J_KNVallocator@2@Uadl_serializer@nlohmann@@@nlohmann@@CAPEAV?$map@V?$basic_string@DU?$char_traits@D@std@@V?$allocator@D@2@@std@@V?$basic_json@Vmap@std@@Vvector@2@V?$basic_string@DU?$char_traits@D@std@@V?$allocator@D@2@@2@_N_J_KNVallocator@2@Uadl_serializer@nlohmann@@@nlohmann@@U?$less@V?$basic_string@DU?$char_traits@D@std@@V?$allocator@D@2@@std@@@2@V?$allocator@U?$pair@$$CBV?$basic_string@DU?$char_traits@D@std@@V?$allocator@D@2@@std@@V?$basic_json@Vmap@std@@Vvector@2@V?$basic_string@DU?$char_traits@D@std@@V?$allocator@D@2@@2@_N_J_KNVallocator@2@Uadl_serializer@nlohmann@@@nlohmann@@@std@@@2@@std@@XZ 0000000140011730     bento_sdk:asset_database.obj
 0002:00003740       $stateUnwindMap$??$create@V?$map@V?$basic_string@DU?$char_traits@D@std@@V?$allocator@D@2@@std@@V?$basic_json@Vmap@std@@Vvector@2@V?$basic_string@DU?$char_traits@D@std@@V?$allocator@D@2@@2@_N_J_KNVallocator@2@Uadl_serializer@nlohmann@@@nlohmann@@U?$less@V?$basic_string@DU?$char_traits@D@std@@V?$allocator@D@2@@std@@@2@V?$allocator@U?$pair@$$CBV?$basic_string@DU?$char_traits@D@std@@V?$allocator@D@2@@std@@V?$basic_json@Vmap@std@@Vvector@2@V?$basic_string@DU?$char_traits@D@std@@V?$allocator@D@2@@2@_N_J_KNVallocator@2@Uadl_serializer@nlohmann@@@nlohmann@@@std@@@2@@std@@$$V@?$basic_json@Vmap@std@@Vvector@2@V?$basic_string@DU?$char_traits@D@std@@V?$allocator@D@2@@2@_N_J_KNVallocator@2@Uadl_serializer@nlohmann@@@nlohmann@@CAPEAV?$map@V?$basic_string@DU?$char_traits@D@std@@V?$allocator@D@2@@std@@V?$basic_json@Vmap@std@@Vvector@2@V?$basic_string@DU?$char_traits@D@std@@V?$allocator@D@2@@2@_N_J_KNVallocator@2@Uadl_serializer@nlohmann@@@nlohmann@@U?$less@V?$basic_string@DU?$char_traits@D@std@@V?$allocator@D@2@@std@@@2@V?$allocator@U?$pair@$$CBV?$basic_string@DU?$char_traits@D@std@@V?$allocator@D@2@@std@@V?$basic_json@Vmap@std@@Vvector@2@V?$basic_string@DU?$char_traits@D@std@@V?$allocator@D@2@@2@_N_J_KNVallocator@2@Uadl_serializer@nlohmann@@@nlohmann@@@std@@@2@@std@@XZ 0000000140011740     bento_sdk:asset_database.obj
 0002:00003750       $ip2state$??$create@V?$map@V?$basic_string@DU?$char_traits@D@std@@V?$allocator@D@2@@std@@V?$basic_json@Vmap@std@@Vvector@2@V?$basic_string@DU?$char_traits@D@std@@V?$allocator@D@2@@2@_N_J_KNVallocator@2@Uadl_serializer@nlohmann@@@nlohmann@@U?$less@V?$basic_string@DU?$char_traits@D@std@@V?$allocator@D@2@@std@@@2@V?$allocator@U?$pair@$$CBV?$basic_string@DU?$char_traits@D@std@@V?$allocator@D@2@@std@@V?$basic_json@Vmap@std@@Vvector@2@V?$basic_string@DU?$char_traits@D@std@@V?$allocator@D@2@@2@_N_J_KNVallocator@2@Uadl_serializer@nlohmann@@@nlohmann@@@std@@@2@@std@@$$V@?$basic_json@Vmap@std@@Vvector@2@V?$basic_string@DU?$char_traits@D@std@@V?$allocator@D@2@@2@_N_J_KNVallocator@2@Uadl_serializer@nlohmann@@@nlohmann@@CAPEAV?$map@V?$basic_string@DU?$char_traits@D@std@@V?$allocator@D@2@@std@@V?$basic_json@Vmap@std@@Vvector@2@V?$basic_string@DU?$char_traits@D@std@@V?$allocator@D@2@@2@_N_J_KNVallocator@2@Uadl_serializer@nlohmann@@@nlohmann@@U?$less@V?$basic_string@DU?$char_traits@D@std@@V?$allocator@D@2@@std@@@2@V?$allocator@U?$pair@$$CBV?$basic_string@DU?$char_traits@D@std@@V?$allocator@D@2@@std@@V?$basic_json@Vmap@std@@Vvector@2@V?$basic_string@DU?$char_traits@D@std@@V?$allocator@D@2@@2@_N_J_KNVallocator@2@Uadl_serializer@nlohmann@@@nlohmann@@@std@@@2@@std@@XZ 0000000140011750     bento_sdk:asset_database.obj
 0002:00003770       $unwind$?dtor$9@?0???$create@V?$map@V?$basic_string@DU?$char_traits@D@std@@V?$allocator@D@2@@std@@V?$basic_json@Vmap@std@@Vvector@2@V?$basic_string@DU?$char_traits@D@std@@V?$allocator@D@2@@2@_N_J_KNVallocator@2@Uadl_serializer@nlohmann@@@nlohmann@@U?$less@V?$basic_string@DU?$char_traits@D@std@@V?$allocator@D@2@@std@@@2@V?$allocator@U?$pair@$$CBV?$basic_string@DU?$char_traits@D@std@@V?$allocator@D@2@@std@@V?$basic_json@Vmap@std@@Vvector@2@V?$basic_string@DU?$char_traits@D@std@@V?$allocator@D@2@@2@_N_J_KNVallocator@2@Uadl_serializer@nlohmann@@@nlohmann@@@std@@@2@@std@@$$V@?$basic_json@Vmap@std@@Vvector@2@V?$basic_string@DU?$char_traits@D@std@@V?$allocator@D@2@@2@_N_J_KNVallocator@2@Uadl_serializer@nlohmann@@@nlohmann@@CAPEAV?$map@V?$basic_string@DU?$char_traits@D@std@@V?$allocator@D@2@@std@@V?$basic_json@Vmap@std@@Vvector@2@V?$basic_string@DU?$char_traits@D@std@@V?$allocator@D@2@@2@_N_J_KNVallocator@2@Uadl_serializer@nlohmann@@@nlohmann@@U?$less@V?$basic_string@DU?$char_traits@D@std@@V?$allocator@D@2@@std@@@2@V?$allocator@U?$pair@$$CBV?$basic_string@DU?$char_traits@D@std@@V?$allocator@D@2@@std@@V?$basic_json@Vmap@std@@Vvector@2@V?$basic_string@DU?$char_traits@D@std@@V?$allocator@D@2@@2@_N_J_KNVallocator@2@Uadl_serializer@nlohmann@@@nlohmann@@@std@@@2@@std@@XZ@4HA 0000000140011770     bento_sdk:asset_database.obj
 0002:00003778       $unwind$??1?$output_adapter@DV?$basic_string@DU?$char_traits@D@std@@V?$allocator@D@2@@std@@@detail@nlohmann@@QEAA@XZ 0000000140011778     bento_sdk:asset_database.obj
 0002:00003780       $chain$0$??1?$output_adapter@DV?$basic_string@DU?$char_traits@D@std@@V?$allocator@D@2@@std@@@detail@nlohmann@@QEAA@XZ 0000000140011780     bento_sdk:asset_database.obj
 0002:00003794       $chain$1$??1?$output_adapter@DV?$basic_string@DU?$char_traits@D@std@@V?$allocator@D@2@@std@@@detail@nlohmann@@QEAA@XZ 0000000140011794     bento_sdk:asset_database.obj
 0002:000037a4       $unwind$?dump@?$serializer@V?$basic_json@Vmap@std@@Vvector@2@V?$basic_string@DU?$char_traits@D@std@@V?$allocator@D@2@@2@_N_J_KNVallocator@2@Uadl_serializer@nlohmann@@@nlohmann@@@detail@nlohmann@@QEAAXAEBV?$basic_json@Vmap@std@@Vvector@2@V?$basic_string@DU?$char_traits@D@std@@V?$allocator@D@2@@2@_N_J_KNVallocator@2@Uadl_serializer@nlohmann@@@3@_N1II@Z 00000001400117a4     bento_sdk:asset_database.obj
 0002:000037b0       $chain$4$?dump@?$serializer@V?$basic_json@Vmap@std@@Vvector@2@V?$basic_string@DU?$char_traits@D@std@@V?$allocator@D@2@@2@_N_J_KNVallocator@2@Uadl_serializer@nlohmann@@@nlohmann@@@detail@nlohmann@@QEAAXAEBV?$basic_json@Vmap@std@@Vvector@2@V?$basic_string@DU?$char_traits@D@std@@V?$allocator@D@2@@2@_N_J_KNVallocator@2@Uadl_serializer@nlohmann@@@3@_N1II@Z 00000001400117b0     bento_sdk:asset_database.obj
 0002:000037d4       $chain$5$?dump@?$serializer@V?$basic_json@Vmap@std@@Vvector@2@V?$basic_string@DU?$char_traits@D@std@@V?$allocator@D@2@@2@_N_J_KNVallocator@2@Uadl_serializer@nlohmann@@@nlohmann@@@detail@nlohmann@@QEAAXAEBV?$basic_json@Vmap@std@@Vvector@2@V?$basic_string@DU?$char_traits@D@std@@V?$allocator@D@2@@2@_N_J_KNVallocator@2@Uadl_serializer@nlohmann@@@3@_N1II@Z 00000001400117d4     bento_sdk:asset_database.obj
 0002:000037e8       $chain$6$?dump@?$serializer@V?$basic_json@Vmap@std@@Vvector@2@V?$basic_string@DU?$char_traits@D@std@@V?$allocator@D@2@@2@_N_J_KNVallocator@2@Uadl_serializer@nlohmann@@@nlohmann@@@detail@nlohmann@@QEAAXAEBV?$basic_json@Vmap@std@@Vvector@2@V?$basic_string@DU?$char_traits@D@std@@V?$allocator@D@2@@2@_N_J_KNVallocator@2@Uadl_serializer@nlohmann@@@3@_N1II@Z 00000001400117e8     bento_sdk:asset_database.obj
 0002:000037f8       $chain$7$?dump@?$serializer@V?$basic_json@Vmap@std@@Vvector@2@V?$basic_string@DU?$char_traits@D@std@@V?$allocator@D@2@@2@_N_J_KNVallocator@2@Uadl_serializer@nlohmann@@@nlohmann@@@detail@nlohmann@@QEAAXAEBV?$basic_json@Vmap@std@@Vvector@2@V?$basic_string@DU?$char_traits@D@std@@V?$allocator@D@2@@2@_N_J_KNVallocator@2@Uadl_serializer@nlohmann@@@3@_N1II@Z 00000001400117f8     bento_sdk:asset_database.obj
 0002:00003808       $chain$8$?dump@?$serializer@V?$basic_json@Vmap@std@@Vvector@2@V?$basic_string@DU?$char_traits@D@std@@V?$allocator@D@2@@2@_N_J_KNVallocator@2@Uadl_serializer@nlohmann@@@nlohmann@@@detail@nlohmann@@QEAAXAEBV?$basic_json@Vmap@std@@Vvector@2@V?$basic_string@DU?$char_traits@D@std@@V?$allocator@D@2@@2@_N_J_KNVallocator@2@Uadl_serializer@nlohmann@@@3@_N1II@Z 0000000140011808     bento_sdk:asset_database.obj
 0002:00003830       $chain$9$?dump@?$serializer@V?$basic_json@Vmap@std@@Vvector@2@V?$basic_string@DU?$char_traits@D@std@@V?$allocator@D@2@@2@_N_J_KNVallocator@2@Uadl_serializer@nlohmann@@@nlohmann@@@detail@nlohmann@@QEAAXAEBV?$basic_json@Vmap@std@@Vvector@2@V?$basic_string@DU?$char_traits@D@std@@V?$allocator@D@2@@2@_N_J_KNVallocator@2@Uadl_serializer@nlohmann@@@3@_N1II@Z 0000000140011830     bento_sdk:asset_database.obj
 0002:00003854       $unwind$?dump_escaped@?$serializer@V?$basic_json@Vmap@std@@Vvector@2@V?$basic_string@DU?$char_traits@D@std@@V?$allocator@D@2@@2@_N_J_KNVallocator@2@Uadl_serializer@nlohmann@@@nlohmann@@@detail@nlohmann@@AEAAXAEBV?$basic_string@DU?$char_traits@D@std@@V?$allocator@D@2@@std@@_N@Z 0000000140011854     bento_sdk:asset_database.obj
 0002:0000387c       $stateUnwindMap$?dump_escaped@?$serializer@V?$basic_json@Vmap@std@@Vvector@2@V?$basic_string@DU?$char_traits@D@std@@V?$allocator@D@2@@2@_N_J_KNVallocator@2@Uadl_serializer@nlohmann@@@nlohmann@@@detail@nlohmann@@AEAAXAEBV?$basic_string@DU?$char_traits@D@std@@V?$allocator@D@2@@std@@_N@Z 000000014001187c     bento_sdk:asset_database.obj
 0002:00003900       $ip2state$?dump_escaped@?$serializer@V?$basic_json@Vmap@std@@Vvector@2@V?$basic_string@DU?$char_traits@D@std@@V?$allocator@D@2@@2@_N_J_KNVallocator@2@Uadl_serializer@nlohmann@@@nlohmann@@@detail@nlohmann@@AEAAXAEBV?$basic_string@DU?$char_traits@D@std@@V?$allocator@D@2@@std@@_N@Z 0000000140011900     bento_sdk:asset_database.obj
 0002:000039a0       $unwind$?dtor$23@?0??dump_escaped@?$serializer@V?$basic_json@Vmap@std@@Vvector@2@V?$basic_string@DU?$char_traits@D@std@@V?$allocator@D@2@@2@_N_J_KNVallocator@2@Uadl_serializer@nlohmann@@@nlohmann@@@detail@nlohmann@@AEAAXAEBV?$basic_string@DU?$char_traits@D@std@@V?$allocator@D@2@@std@@_N@Z@4HA 00000001400119a0     bento_sdk:asset_database.obj
 0002:000039a8       $unwind$?dtor$106@?0??dump_escaped@?$serializer@V?$basic_json@Vmap@std@@Vvector@2@V?$basic_string@DU?$char_traits@D@std@@V?$allocator@D@2@@2@_N_J_KNVallocator@2@Uadl_serializer@nlohmann@@@nlohmann@@@detail@nlohmann@@AEAAXAEBV?$basic_string@DU?$char_traits@D@std@@V?$allocator@D@2@@std@@_N@Z@4HA 00000001400119a8     bento_sdk:asset_database.obj
 0002:000039b0       $unwind$??1?$serializer@V?$basic_json@Vmap@std@@Vvector@2@V?$basic_string@DU?$char_traits@D@std@@V?$allocator@D@2@@2@_N_J_KNVallocator@2@Uadl_serializer@nlohmann@@@nlohmann@@@detail@nlohmann@@QEAA@XZ 00000001400119b0     bento_sdk:asset_database.obj
 0002:000039b8       $chain$0$??1?$serializer@V?$basic_json@Vmap@std@@Vvector@2@V?$basic_string@DU?$char_traits@D@std@@V?$allocator@D@2@@2@_N_J_KNVallocator@2@Uadl_serializer@nlohmann@@@nlohmann@@@detail@nlohmann@@QEAA@XZ 00000001400119b8     bento_sdk:asset_database.obj
 0002:000039cc       $chain$1$??1?$serializer@V?$basic_json@Vmap@std@@Vvector@2@V?$basic_string@DU?$char_traits@D@std@@V?$allocator@D@2@@2@_N_J_KNVallocator@2@Uadl_serializer@nlohmann@@@nlohmann@@@detail@nlohmann@@QEAA@XZ 00000001400119cc     bento_sdk:asset_database.obj
 0002:000039dc       $unwind$??$emplace@V?$basic_string@DU?$char_traits@D@std@@V?$allocator@D@2@@std@@V?$basic_json@Vmap@std@@Vvector@2@V?$basic_string@DU?$char_traits@D@std@@V?$allocator@D@2@@2@_N_J_KNVallocator@2@Uadl_serializer@nlohmann@@@nlohmann@@@?$_Tree@V?$_Tmap_traits@V?$basic_string@DU?$char_traits@D@std@@V?$allocator@D@2@@std@@V?$basic_json@Vmap@std@@Vvector@2@V?$basic_string@DU?$char_traits@D@std@@V?$allocator@D@2@@2@_N_J_KNVallocator@2@Uadl_serializer@nlohmann@@@nlohmann@@U?$less@V?$basic_string@DU?$char_traits@D@std@@V?$allocator@D@2@@std@@@2@V?$allocator@U?$pair@$$CBV?$basic_string@DU?$char_traits@D@std@@V?$allocator@D@2@@std@@V?$basic_json@Vmap@std@@Vvector@2@V?$basic_string@DU?$char_traits@D@std@@V?$allocator@D@2@@2@_N_J_KNVallocator@2@Uadl_serializer@nlohmann@@@nlohmann@@@std@@@2@$0A@@std@@@std@@QEAA?AU?$pair@V?$_Tree_iterator@V?$_Tree_val@U?$_Tree_simple_types@U?$pair@$$CBV?$basic_string@DU?$char_traits@D@std@@V?$allocator@D@2@@std@@V?$basic_json@Vmap@std@@Vvector@2@V?$basic_string@DU?$char_traits@D@std@@V?$allocator@D@2@@2@_N_J_KNVallocator@2@Uadl_serializer@nlohmann@@@nlohmann@@@std@@@std@@@std@@@std@@_N@1@$$QEAV?$basic_string@DU?$char_traits@D@std@@V?$allocator@D@2@@1@$$QEAV?$basic_json@Vmap@std@@Vvector@2@V?$basic_string@DU?$char_traits@D@std@@V?$allocator@D@2@@2@_N_J_KNVallocator@2@Uadl_serializer@nlohmann@@@nlohmann@@@Z 00000001400119dc     bento_sdk:asset_database.obj
 0002:000039f0       $unwind$??_G?$output_adapter_protocol@D@detail@nlohmann@@UEAAPEAXI@Z 00000001400119f0     bento_sdk:asset_database.obj
 0002:000039f8       $unwind$??_G?$output_string_adapter@DV?$basic_string@DU?$char_traits@D@std@@V?$allocator@D@2@@std@@@detail@nlohmann@@UEAAPEAXI@Z 00000001400119f8     bento_sdk:asset_database.obj
 0002:00003a00       $unwind$??$_Allocate@U?$_Default_allocate_traits@$00@std@@@std@@YAPEAX_K0_K@Z 0000000140011a00     bento_sdk:asset_database.obj
 0002:00003a08       $unwind$??1?$basic_stringstream@DU?$char_traits@D@std@@V?$allocator@D@2@@std@@UEAA@XZ 0000000140011a08     bento_sdk:asset_database.obj
 0002:00003a10       $unwind$?str@?$basic_stringstream@DU?$char_traits@D@std@@V?$allocator@D@2@@std@@QEBA?AV?$basic_string@DU?$char_traits@D@std@@V?$allocator@D@2@@2@XZ 0000000140011a10     bento_sdk:asset_database.obj
 0002:00003a20       $unwind$??1?$basic_stringbuf@DU?$char_traits@D@std@@V?$allocator@D@2@@std@@UEAA@XZ 0000000140011a20     bento_sdk:asset_database.obj
 0002:00003a28       $unwind$?overflow@?$basic_stringbuf@DU?$char_traits@D@std@@V?$allocator@D@2@@std@@MEAAHH@Z 0000000140011a28     bento_sdk:asset_database.obj
 0002:00003a34       $chain$0$?overflow@?$basic_stringbuf@DU?$char_traits@D@std@@V?$allocator@D@2@@std@@MEAAHH@Z 0000000140011a34     bento_sdk:asset_database.obj
 0002:00003a48       $chain$5$?overflow@?$basic_stringbuf@DU?$char_traits@D@std@@V?$allocator@D@2@@std@@MEAAHH@Z 0000000140011a48     bento_sdk:asset_database.obj
 0002:00003a64       $chain$6$?overflow@?$basic_stringbuf@DU?$char_traits@D@std@@V?$allocator@D@2@@std@@MEAAHH@Z 0000000140011a64     bento_sdk:asset_database.obj
 0002:00003a78       $chain$2$?overflow@?$basic_stringbuf@DU?$char_traits@D@std@@V?$allocator@D@2@@std@@MEAAHH@Z 0000000140011a78     bento_sdk:asset_database.obj
 0002:00003a8c       $chain$8$?overflow@?$basic_stringbuf@DU?$char_traits@D@std@@V?$allocator@D@2@@std@@MEAAHH@Z 0000000140011a8c     bento_sdk:asset_database.obj
 0002:00003aa4       $unwind$?seekoff@?$basic_stringbuf@DU?$char_traits@D@std@@V?$allocator@D@2@@std@@MEAA?AV?$fpos@U_Mbstatet@@@2@_JHH@Z 0000000140011aa4     bento_sdk:asset_database.obj
 0002:00003ab0       $unwind$?seekpos@?$basic_stringbuf@DU?$char_traits@D@std@@V?$allocator@D@2@@std@@MEAA?AV?$fpos@U_Mbstatet@@@2@V32@H@Z 0000000140011ab0     bento_sdk:asset_database.obj
 0002:00003ab8       $unwind$??_G?$basic_stringbuf@DU?$char_traits@D@std@@V?$allocator@D@2@@std@@UEAAPEAXI@Z 0000000140011ab8     bento_sdk:asset_database.obj
 0002:00003ac4       $unwind$??_G?$basic_stringstream@DU?$char_traits@D@std@@V?$allocator@D@2@@std@@UEAAPEAXI@Z 0000000140011ac4     bento_sdk:asset_database.obj
 0002:00003ad4       $unwind$??_D?$basic_stringstream@DU?$char_traits@D@std@@V?$allocator@D@2@@std@@QEAAXXZ 0000000140011ad4     bento_sdk:asset_database.obj
 0002:00003adc       $unwind$??$?6DU?$char_traits@D@std@@_J@std@@YAAEAV?$basic_ostream@DU?$char_traits@D@std@@@0@AEAV10@AEBU?$_Smanip@_J@0@@Z 0000000140011adc     bento_sdk:asset_database.obj
 0002:00003ae4       $unwind$??$to_chars@N@detail@nlohmann@@YAPEADPEAD0N@Z 0000000140011ae4     bento_sdk:asset_database.obj
 0002:00003af4       $unwind$??$to_json@V?$basic_json@Vmap@std@@Vvector@2@V?$basic_string@DU?$char_traits@D@std@@V?$allocator@D@2@@2@_N_J_KNVallocator@2@Uadl_serializer@nlohmann@@@nlohmann@@$$BY04D$0A@@detail@nlohmann@@YAXAEAV?$basic_json@Vmap@std@@Vvector@2@V?$basic_string@DU?$char_traits@D@std@@V?$allocator@D@2@@2@_N_J_KNVallocator@2@Uadl_serializer@nlohmann@@@1@AEAY04$$CBD@Z 0000000140011af4     bento_sdk:asset_database.obj
 0002:00003b08       $stateUnwindMap$??$to_json@V?$basic_json@Vmap@std@@Vvector@2@V?$basic_string@DU?$char_traits@D@std@@V?$allocator@D@2@@2@_N_J_KNVallocator@2@Uadl_serializer@nlohmann@@@nlohmann@@$$BY04D$0A@@detail@nlohmann@@YAXAEAV?$basic_json@Vmap@std@@Vvector@2@V?$basic_string@DU?$char_traits@D@std@@V?$allocator@D@2@@2@_N_J_KNVallocator@2@Uadl_serializer@nlohmann@@@1@AEAY04$$CBD@Z 0000000140011b08     bento_sdk:asset_database.obj
 0002:00003b10       $ip2state$??$to_json@V?$basic_json@Vmap@std@@Vvector@2@V?$basic_string@DU?$char_traits@D@std@@V?$allocator@D@2@@2@_N_J_KNVallocator@2@Uadl_serializer@nlohmann@@@nlohmann@@$$BY04D$0A@@detail@nlohmann@@YAXAEAV?$basic_json@Vmap@std@@Vvector@2@V?$basic_string@DU?$char_traits@D@std@@V?$allocator@D@2@@2@_N_J_KNVallocator@2@Uadl_serializer@nlohmann@@@1@AEAY04$$CBD@Z 0000000140011b10     bento_sdk:asset_database.obj
 0002:00003b28       $unwind$??$to_json@V?$basic_json@Vmap@std@@Vvector@2@V?$basic_string@DU?$char_traits@D@std@@V?$allocator@D@2@@2@_N_J_KNVallocator@2@Uadl_serializer@nlohmann@@@nlohmann@@PEBD$0A@@detail@nlohmann@@YAXAEAV?$basic_json@Vmap@std@@Vvector@2@V?$basic_string@DU?$char_traits@D@std@@V?$allocator@D@2@@2@_N_J_KNVallocator@2@Uadl_serializer@nlohmann@@@1@AEBQEBD@Z 0000000140011b28     bento_sdk:asset_database.obj
 0002:00003b3c       $stateUnwindMap$??$to_json@V?$basic_json@Vmap@std@@Vvector@2@V?$basic_string@DU?$char_traits@D@std@@V?$allocator@D@2@@2@_N_J_KNVallocator@2@Uadl_serializer@nlohmann@@@nlohmann@@PEBD$0A@@detail@nlohmann@@YAXAEAV?$basic_json@Vmap@std@@Vvector@2@V?$basic_string@DU?$char_traits@D@std@@V?$allocator@D@2@@2@_N_J_KNVallocator@2@Uadl_serializer@nlohmann@@@1@AEBQEBD@Z 0000000140011b3c     bento_sdk:asset_database.obj
 0002:00003b48       $ip2state$??$to_json@V?$basic_json@Vmap@std@@Vvector@2@V?$basic_string@DU?$char_traits@D@std@@V?$allocator@D@2@@2@_N_J_KNVallocator@2@Uadl_serializer@nlohmann@@@nlohmann@@PEBD$0A@@detail@nlohmann@@YAXAEAV?$basic_json@Vmap@std@@Vvector@2@V?$basic_string@DU?$char_traits@D@std@@V?$allocator@D@2@@2@_N_J_KNVallocator@2@Uadl_serializer@nlohmann@@@1@AEBQEBD@Z 0000000140011b48     bento_sdk:asset_database.obj
 0002:00003b60       $unwind$??$_Insert_nohint@AEAU?$pair@$$CBV?$basic_string@DU?$char_traits@D@std@@V?$allocator@D@2@@std@@V?$basic_json@Vmap@std@@Vvector@2@V?$basic_string@DU?$char_traits@D@std@@V?$allocator@D@2@@2@_N_J_KNVallocator@2@Uadl_serializer@nlohmann@@@nlohmann@@@std@@PEAU?$_Tree_node@U?$pair@$$CBV?$basic_string@DU?$char_traits@D@std@@V?$allocator@D@2@@std@@V?$basic_json@Vmap@std@@Vvector@2@V?$basic_string@DU?$char_traits@D@std@@V?$allocator@D@2@@2@_N_J_KNVallocator@2@Uadl_serializer@nlohmann@@@nlohmann@@@std@@PEAX@2@@?$_Tree@V?$_Tmap_traits@V?$basic_string@DU?$char_traits@D@std@@V?$allocator@D@2@@std@@V?$basic_json@Vmap@std@@Vvector@2@V?$basic_string@DU?$char_traits@D@std@@V?$allocator@D@2@@2@_N_J_KNVallocator@2@Uadl_serializer@nlohmann@@@nlohmann@@U?$less@V?$basic_string@DU?$char_traits@D@std@@V?$allocator@D@2@@std@@@2@V?$allocator@U?$pair@$$CBV?$basic_string@DU?$char_traits@D@std@@V?$allocator@D@2@@std@@V?$basic_json@Vmap@std@@Vvector@2@V?$basic_string@DU?$char_traits@D@std@@V?$allocator@D@2@@2@_N_J_KNVallocator@2@Uadl_serializer@nlohmann@@@nlohmann@@@std@@@2@$0A@@std@@@std@@IEAA?AU?$pair@V?$_Tree_iterator@V?$_Tree_val@U?$_Tree_simple_types@U?$pair@$$CBV?$basic_string@DU?$char_traits@D@std@@V?$allocator@D@2@@std@@V?$basic_json@Vmap@std@@Vvector@2@V?$basic_string@DU?$char_traits@D@std@@V?$allocator@D@2@@2@_N_J_KNVallocator@2@Uadl_serializer@nlohmann@@@nlohmann@@@std@@@std@@@std@@@std@@_N@1@_NAEAU?$pair@$$CBV?$basic_string@DU?$char_traits@D@std@@V?$allocator@D@2@@std@@V?$basic_json@Vmap@std@@Vvector@2@V?$basic_string@DU?$char_traits@D@std@@V?$allocator@D@2@@2@_N_J_KNVallocator@2@Uadl_serializer@nlohmann@@@nlohmann@@@1@PEAU?$_Tree_node@U?$pair@$$CBV?$basic_string@DU?$char_traits@D@std@@V?$allocator@D@2@@std@@V?$basic_json@Vmap@std@@Vvector@2@V?$basic_string@DU?$char_traits@D@std@@V?$allocator@D@2@@2@_N_J_KNVallocator@2@Uadl_serializer@nlohmann@@@nlohmann@@@std@@PEAX@1@@Z 0000000140011b60     bento_sdk:asset_database.obj
 0002:00003b7c       $unwind$??_G?$_Ref_count_obj@V?$output_string_adapter@DV?$basic_string@DU?$char_traits@D@std@@V?$allocator@D@2@@std@@@detail@nlohmann@@@std@@UEAAPEAXI@Z 0000000140011b7c     bento_sdk:asset_database.obj
 0002:00003b84       $unwind$?_Fail@?$_Default_allocate_traits@$00@std@@SAXXZ 0000000140011b84     bento_sdk:asset_database.obj
 0002:00003b8c       $unwind$??$grisu2@N@dtoa_impl@detail@nlohmann@@YAXPEADAEAH1N@Z 0000000140011b8c     bento_sdk:asset_database.obj
 0002:00003ba0       $unwind$??$_Reallocate_grow_by@V<lambda_f3a66ab6a0570788f31503db83886f49>@@_KPEBD_K@?$basic_string@DU?$char_traits@D@std@@V?$allocator@D@2@@std@@QEAAAEAV01@_KV<lambda_f3a66ab6a0570788f31503db83886f49>@@_KPEBD2@Z 0000000140011ba0     bento_sdk:asset_database.obj
 0002:00003bb0       $chain$3$??$_Reallocate_grow_by@V<lambda_f3a66ab6a0570788f31503db83886f49>@@_KPEBD_K@?$basic_string@DU?$char_traits@D@std@@V?$allocator@D@2@@std@@QEAAAEAV01@_KV<lambda_f3a66ab6a0570788f31503db83886f49>@@_KPEBD2@Z 0000000140011bb0     bento_sdk:asset_database.obj
 0002:00003bd0       $chain$4$??$_Reallocate_grow_by@V<lambda_f3a66ab6a0570788f31503db83886f49>@@_KPEBD_K@?$basic_string@DU?$char_traits@D@std@@V?$allocator@D@2@@std@@QEAAAEAV01@_KV<lambda_f3a66ab6a0570788f31503db83886f49>@@_KPEBD2@Z 0000000140011bd0     bento_sdk:asset_database.obj
 0002:00003be0       $unwind$??$_Insert_at@AEAU?$pair@$$CBV?$basic_string@DU?$char_traits@D@std@@V?$allocator@D@2@@std@@V?$basic_json@Vmap@std@@Vvector@2@V?$basic_string@DU?$char_traits@D@std@@V?$allocator@D@2@@2@_N_J_KNVallocator@2@Uadl_serializer@nlohmann@@@nlohmann@@@std@@PEAU?$_Tree_node@U?$pair@$$CBV?$basic_string@DU?$char_traits@D@std@@V?$allocator@D@2@@std@@V?$basic_json@Vmap@std@@Vvector@2@V?$basic_string@DU?$char_traits@D@std@@V?$allocator@D@2@@2@_N_J_KNVallocator@2@Uadl_serializer@nlohmann@@@nlohmann@@@std@@PEAX@2@@?$_Tree@V?$_Tmap_traits@V?$basic_string@DU?$char_traits@D@std@@V?$allocator@D@2@@std@@V?$basic_json@Vmap@std@@Vvector@2@V?$basic_string@DU?$char_traits@D@std@@V?$allocator@D@2@@2@_N_J_KNVallocator@2@Uadl_serializer@nlohmann@@@nlohmann@@U?$less@V?$basic_string@DU?$char_traits@D@std@@V?$allocator@D@2@@std@@@2@V?$allocator@U?$pair@$$CBV?$basic_string@DU?$char_traits@D@std@@V?$allocator@D@2@@std@@V?$basic_json@Vmap@std@@Vvector@2@V?$basic_string@DU?$char_traits@D@std@@V?$allocator@D@2@@2@_N_J_KNVallocator@2@Uadl_serializer@nlohmann@@@nlohmann@@@std@@@2@$0A@@std@@@std@@IEAA?AV?$_Tree_iterator@V?$_Tree_val@U?$_Tree_simple_types@U?$pair@$$CBV?$basic_string@DU?$char_traits@D@std@@V?$allocator@D@2@@std@@V?$basic_json@Vmap@std@@Vvector@2@V?$basic_string@DU?$char_traits@D@std@@V?$allocator@D@2@@2@_N_J_KNVallocator@2@Uadl_serializer@nlohmann@@@nlohmann@@@std@@@std@@@std@@@1@_NPEAU?$_Tree_node@U?$pair@$$CBV?$basic_string@DU?$char_traits@D@std@@V?$allocator@D@2@@std@@V?$basic_json@Vmap@std@@Vvector@2@V?$basic_string@DU?$char_traits@D@std@@V?$allocator@D@2@@2@_N_J_KNVallocator@2@Uadl_serializer@nlohmann@@@nlohmann@@@std@@PEAX@1@AEAU?$pair@$$CBV?$basic_string@DU?$char_traits@D@std@@V?$allocator@D@2@@std@@V?$basic_json@Vmap@std@@Vvector@2@V?$basic_string@DU?$char_traits@D@std@@V?$allocator@D@2@@2@_N_J_KNVallocator@2@Uadl_serializer@nlohmann@@@nlohmann@@@1@1@Z 0000000140011be0     bento_sdk:asset_database.obj
 0002:00003be8       $chain$0$??$_Insert_at@AEAU?$pair@$$CBV?$basic_string@DU?$char_traits@D@std@@V?$allocator@D@2@@std@@V?$basic_json@Vmap@std@@Vvector@2@V?$basic_string@DU?$char_traits@D@std@@V?$allocator@D@2@@2@_N_J_KNVallocator@2@Uadl_serializer@nlohmann@@@nlohmann@@@std@@PEAU?$_Tree_node@U?$pair@$$CBV?$basic_string@DU?$char_traits@D@std@@V?$allocator@D@2@@std@@V?$basic_json@Vmap@std@@Vvector@2@V?$basic_string@DU?$char_traits@D@std@@V?$allocator@D@2@@2@_N_J_KNVallocator@2@Uadl_serializer@nlohmann@@@nlohmann@@@std@@PEAX@2@@?$_Tree@V?$_Tmap_traits@V?$basic_string@DU?$char_traits@D@std@@V?$allocator@D@2@@std@@V?$basic_json@Vmap@std@@Vvector@2@V?$basic_string@DU?$char_traits@D@std@@V?$allocator@D@2@@2@_N_J_KNVallocator@2@Uadl_serializer@nlohmann@@@nlohmann@@U?$less@V?$basic_string@DU?$char_traits@D@std@@V?$allocator@D@2@@std@@@2@V?$allocator@U?$pair@$$CBV?$basic_string@DU?$char_traits@D@std@@V?$allocator@D@2@@std@@V?$basic_json@Vmap@std@@Vvector@2@V?$basic_string@DU?$char_traits@D@std@@V?$allocator@D@2@@2@_N_J_KNVallocator@2@Uadl_serializer@nlohmann@@@nlohmann@@@std@@@2@$0A@@std@@@std@@IEAA?AV?$_Tree_iterator@V?$_Tree_val@U?$_Tree_simple_types@U?$pair@$$CBV?$basic_string@DU?$char_traits@D@std@@V?$allocator@D@2@@std@@V?$basic_json@Vmap@std@@Vvector@2@V?$basic_string@DU?$char_traits@D@std@@V?$allocator@D@2@@2@_N_J_KNVallocator@2@Uadl_serializer@nlohmann@@@nlohmann@@@std@@@std@@@std@@@1@_NPEAU?$_Tree_node@U?$pair@$$CBV?$basic_string@DU?$char_traits@D@std@@V?$allocator@D@2@@std@@V?$basic_json@Vmap@std@@Vvector@2@V?$basic_string@DU?$char_traits@D@std@@V?$allocator@D@2@@2@_N_J_KNVallocator@2@Uadl_serializer@nlohmann@@@nlohmann@@@std@@PEAX@1@AEAU?$pair@$$CBV?$basic_string@DU?$char_traits@D@std@@V?$allocator@D@2@@std@@V?$basic_json@Vmap@std@@Vvector@2@V?$basic_string@DU?$char_traits@D@std@@V?$allocator@D@2@@2@_N_J_KNVallocator@2@Uadl_serializer@nlohmann@@@nlohmann@@@1@1@Z 0000000140011be8     bento_sdk:asset_database.obj
 0002:00003bfc       $chain$1$??$_Insert_at@AEAU?$pair@$$CBV?$basic_string@DU?$char_traits@D@std@@V?$allocator@D@2@@std@@V?$basic_json@Vmap@std@@Vvector@2@V?$basic_string@DU?$char_traits@D@std@@V?$allocator@D@2@@2@_N_J_KNVallocator@2@Uadl_serializer@nlohmann@@@nlohmann@@@std@@PEAU?$_Tree_node@U?$pair@$$CBV?$basic_string@DU?$char_traits@D@std@@V?$allocator@D@2@@std@@V?$basic_json@Vmap@std@@Vvector@2@V?$basic_string@DU?$char_traits@D@std@@V?$allocator@D@2@@2@_N_J_KNVallocator@2@Uadl_serializer@nlohmann@@@nlohmann@@@std@@PEAX@2@@?$_Tree@V?$_Tmap_traits@V?$basic_string@DU?$char_traits@D@std@@V?$allocator@D@2@@std@@V?$basic_json@Vmap@std@@Vvector@2@V?$basic_string@DU?$char_traits@D@std@@V?$allocator@D@2@@2@_N_J_KNVallocator@2@Uadl_serializer@nlohmann@@@nlohmann@@U?$less@V?$basic_string@DU?$char_traits@D@std@@V?$allocator@D@2@@std@@@2@V?$allocator@U?$pair@$$CBV?$basic_string@DU?$char_traits@D@std@@V?$allocator@D@2@@std@@V?$basic_json@Vmap@std@@Vvector@2@V?$basic_string@DU?$char_traits@D@std@@V?$allocator@D@2@@2@_N_J_KNVallocator@2@Uadl_serializer@nlohmann@@@nlohmann@@@std@@@2@$0A@@std@@@std@@IEAA?AV?$_Tree_iterator@V?$_Tree_val@U?$_Tree_simple_types@U?$pair@$$CBV?$basic_string@DU?$char_traits@D@std@@V?$allocator@D@2@@std@@V?$basic_json@Vmap@std@@Vvector@2@V?$basic_string@DU?$char_traits@D@std@@V?$allocator@D@2@@2@_N_J_KNVallocator@2@Uadl_serializer@nlohmann@@@nlohmann@@@std@@@std@@@std@@@1@_NPEAU?$_Tree_node@U?$pair@$$CBV?$basic_string@DU?$char_traits@D@std@@V?$allocator@D@2@@std@@V?$basic_json@Vmap@std@@Vvector@2@V?$basic_string@DU?$char_traits@D@std@@V?$allocator@D@2@@2@_N_J_KNVallocator@2@Uadl_serializer@nlohmann@@@nlohmann@@@std@@PEAX@1@AEAU?$pair@$$CBV?$basic_string@DU?$char_traits@D@std@@V?$allocator@D@2@@std@@V?$basic_json@Vmap@std@@Vvector@2@V?$basic_string@DU?$char_traits@D@std@@V?$allocator@D@2@@2@_N_J_KNVallocator@2@Uadl_serializer@nlohmann@@@nlohmann@@@1@1@Z 0000000140011bfc     bento_sdk:asset_database.obj
 0002:00003c0c       $unwind$??$compute_boundaries@N@dtoa_impl@detail@nlohmann@@YA?AUboundaries@012@N@Z 0000000140011c0c     bento_sdk:asset_database.obj
 0002:00003c14       $unwind$??$_Insert_hint@AEAU?$pair@$$CBV?$basic_string@DU?$char_traits@D@std@@V?$allocator@D@2@@std@@V?$basic_json@Vmap@std@@Vvector@2@V?$basic_string@DU?$char_traits@D@std@@V?$allocator@D@2@@2@_N_J_KNVallocator@2@Uadl_serializer@nlohmann@@@nlohmann@@@std@@PEAU?$_Tree_node@U?$pair@$$CBV?$basic_string@DU?$char_traits@D@std@@V?$allocator@D@2@@std@@V?$basic_json@Vmap@std@@Vvector@2@V?$basic_string@DU?$char_traits@D@std@@V?$allocator@D@2@@2@_N_J_KNVallocator@2@Uadl_serializer@nlohmann@@@nlohmann@@@std@@PEAX@2@@?$_Tree@V?$_Tmap_traits@V?$basic_string@DU?$char_traits@D@std@@V?$allocator@D@2@@std@@V?$basic_json@Vmap@std@@Vvector@2@V?$basic_string@DU?$char_traits@D@std@@V?$allocator@D@2@@2@_N_J_KNVallocator@2@Uadl_serializer@nlohmann@@@nlohmann@@U?$less@V?$basic_string@DU?$char_traits@D@std@@V?$allocator@D@2@@std@@@2@V?$allocator@U?$pair@$$CBV?$basic_string@DU?$char_traits@D@std@@V?$allocator@D@2@@std@@V?$basic_json@Vmap@std@@Vvector@2@V?$basic_string@DU?$char_traits@D@std@@V?$allocator@D@2@@2@_N_J_KNVallocator@2@Uadl_serializer@nlohmann@@@nlohmann@@@std@@@2@$0A@@std@@@std@@IEAA?AV?$_Tree_iterator@V?$_Tree_val@U?$_Tree_simple_types@U?$pair@$$CBV?$basic_string@DU?$char_traits@D@std@@V?$allocator@D@2@@std@@V?$basic_json@Vmap@std@@Vvector@2@V?$basic_string@DU?$char_traits@D@std@@V?$allocator@D@2@@2@_N_J_KNVallocator@2@Uadl_serializer@nlohmann@@@nlohmann@@@std@@@std@@@std@@@1@V?$_Tree_const_iterator@V?$_Tree_val@U?$_Tree_simple_types@U?$pair@$$CBV?$basic_string@DU?$char_traits@D@std@@V?$allocator@D@2@@std@@V?$basic_json@Vmap@std@@Vvector@2@V?$basic_string@DU?$char_traits@D@std@@V?$allocator@D@2@@2@_N_J_KNVallocator@2@Uadl_serializer@nlohmann@@@nlohmann@@@std@@@std@@@std@@@1@AEAU?$pair@$$CBV?$basic_string@DU?$char_traits@D@std@@V?$allocator@D@2@@std@@V?$basic_json@Vmap@std@@Vvector@2@V?$basic_string@DU?$char_traits@D@std@@V?$allocator@D@2@@2@_N_J_KNVallocator@2@Uadl_serializer@nlohmann@@@nlohmann@@@1@PEAU?$_Tree_node@U?$pair@$$CBV?$basic_string@DU?$char_traits@D@std@@V?$allocator@D@2@@std@@V?$basic_json@Vmap@std@@Vvector@2@V?$basic_string@DU?$char_traits@D@std@@V?$allocator@D@2@@2@_N_J_KNVallocator@2@Uadl_serializer@nlohmann@@@nlohmann@@@std@@PEAX@1@@Z 0000000140011c14     bento_sdk:asset_database.obj
 0002:00003c28       $chain$1$??$_Insert_hint@AEAU?$pair@$$CBV?$basic_string@DU?$char_traits@D@std@@V?$allocator@D@2@@std@@V?$basic_json@Vmap@std@@Vvector@2@V?$basic_string@DU?$char_traits@D@std@@V?$allocator@D@2@@2@_N_J_KNVallocator@2@Uadl_serializer@nlohmann@@@nlohmann@@@std@@PEAU?$_Tree_node@U?$pair@$$CBV?$basic_string@DU?$char_traits@D@std@@V?$allocator@D@2@@std@@V?$basic_json@Vmap@std@@Vvector@2@V?$basic_string@DU?$char_traits@D@std@@V?$allocator@D@2@@2@_N_J_KNVallocator@2@Uadl_serializer@nlohmann@@@nlohmann@@@std@@PEAX@2@@?$_Tree@V?$_Tmap_traits@V?$basic_string@DU?$char_traits@D@std@@V?$allocator@D@2@@std@@V?$basic_json@Vmap@std@@Vvector@2@V?$basic_string@DU?$char_traits@D@std@@V?$allocator@D@2@@2@_N_J_KNVallocator@2@Uadl_serializer@nlohmann@@@nlohmann@@U?$less@V?$basic_string@DU?$char_traits@D@std@@V?$allocator@D@2@@std@@@2@V?$allocator@U?$pair@$$CBV?$basic_string@DU?$char_traits@D@std@@V?$allocator@D@2@@std@@V?$basic_json@Vmap@std@@Vvector@2@V?$basic_string@DU?$char_traits@D@std@@V?$allocator@D@2@@2@_N_J_KNVallocator@2@Uadl_serializer@nlohmann@@@nlohmann@@@std@@@2@$0A@@std@@@std@@IEAA?AV?$_Tree_iterator@V?$_Tree_val@U?$_Tree_simple_types@U?$pair@$$CBV?$basic_string@DU?$char_traits@D@std@@V?$allocator@D@2@@std@@V?$basic_json@Vmap@std@@Vvector@2@V?$basic_string@DU?$char_traits@D@std@@V?$allocator@D@2@@2@_N_J_KNVallocator@2@Uadl_serializer@nlohmann@@@nlohmann@@@std@@@std@@@std@@@1@V?$_Tree_const_iterator@V?$_Tree_val@U?$_Tree_simple_types@U?$pair@$$CBV?$basic_string@DU?$char_traits@D@std@@V?$allocator@D@2@@std@@V?$basic_json@Vmap@std@@Vvector@2@V?$basic_string@DU?$char_traits@D@std@@V?$allocator@D@2@@2@_N_J_KNVallocator@2@Uadl_serializer@nlohmann@@@nlohmann@@@std@@@std@@@std@@@1@AEAU?$pair@$$CBV?$basic_string@DU?$char_traits@D@std@@V?$allocator@D@2@@std@@V?$basic_json@Vmap@std@@Vvector@2@V?$basic_string@DU?$char_traits@D@std@@V?$allocator@D@2@@2@_N_J_KNVallocator@2@Uadl_serializer@nlohmann@@@nlohmann@@@1@PEAU?$_Tree_node@U?$pair@$$CBV?$basic_string@DU?$char_traits@D@std@@V?$allocator@D@2@@std@@V?$basic_json@Vmap@std@@Vvector@2@V?$basic_string@DU?$char_traits@D@std@@V?$allocator@D@2@@2@_N_J_KNVallocator@2@Uadl_serializer@nlohmann@@@nlohmann@@@std@@PEAX@1@@Z 0000000140011c28     bento_sdk:asset_database.obj
 0002:00003c40       $chain$2$??$_Insert_hint@AEAU?$pair@$$CBV?$basic_string@DU?$char_traits@D@std@@V?$allocator@D@2@@std@@V?$basic_json@Vmap@std@@Vvector@2@V?$basic_string@DU?$char_traits@D@std@@V?$allocator@D@2@@2@_N_J_KNVallocator@2@Uadl_serializer@nlohmann@@@nlohmann@@@std@@PEAU?$_Tree_node@U?$pair@$$CBV?$basic_string@DU?$char_traits@D@std@@V?$allocator@D@2@@std@@V?$basic_json@Vmap@std@@Vvector@2@V?$basic_string@DU?$char_traits@D@std@@V?$allocator@D@2@@2@_N_J_KNVallocator@2@Uadl_serializer@nlohmann@@@nlohmann@@@std@@PEAX@2@@?$_Tree@V?$_Tmap_traits@V?$basic_string@DU?$char_traits@D@std@@V?$allocator@D@2@@std@@V?$basic_json@Vmap@std@@Vvector@2@V?$basic_string@DU?$char_traits@D@std@@V?$allocator@D@2@@2@_N_J_KNVallocator@2@Uadl_serializer@nlohmann@@@nlohmann@@U?$less@V?$basic_string@DU?$char_traits@D@std@@V?$allocator@D@2@@std@@@2@V?$allocator@U?$pair@$$CBV?$basic_string@DU?$char_traits@D@std@@V?$allocator@D@2@@std@@V?$basic_json@Vmap@std@@Vvector@2@V?$basic_string@DU?$char_traits@D@std@@V?$allocator@D@2@@2@_N_J_KNVallocator@2@Uadl_serializer@nlohmann@@@nlohmann@@@std@@@2@$0A@@std@@@std@@IEAA?AV?$_Tree_iterator@V?$_Tree_val@U?$_Tree_simple_types@U?$pair@$$CBV?$basic_string@DU?$char_traits@D@std@@V?$allocator@D@2@@std@@V?$basic_json@Vmap@std@@Vvector@2@V?$basic_string@DU?$char_traits@D@std@@V?$allocator@D@2@@2@_N_J_KNVallocator@2@Uadl_serializer@nlohmann@@@nlohmann@@@std@@@std@@@std@@@1@V?$_Tree_const_iterator@V?$_Tree_val@U?$_Tree_simple_types@U?$pair@$$CBV?$basic_string@DU?$char_traits@D@std@@V?$allocator@D@2@@std@@V?$basic_json@Vmap@std@@Vvector@2@V?$basic_string@DU?$char_traits@D@std@@V?$allocator@D@2@@2@_N_J_KNVallocator@2@Uadl_serializer@nlohmann@@@nlohmann@@@std@@@std@@@std@@@1@AEAU?$pair@$$CBV?$basic_string@DU?$char_traits@D@std@@V?$allocator@D@2@@std@@V?$basic_json@Vmap@std@@Vvector@2@V?$basic_string@DU?$char_traits@D@std@@V?$allocator@D@2@@2@_N_J_KNVallocator@2@Uadl_serializer@nlohmann@@@nlohmann@@@1@PEAU?$_Tree_node@U?$pair@$$CBV?$basic_string@DU?$char_traits@D@std@@V?$allocator@D@2@@std@@V?$basic_json@Vmap@std@@Vvector@2@V?$basic_string@DU?$char_traits@D@std@@V?$allocator@D@2@@2@_N_J_KNVallocator@2@Uadl_serializer@nlohmann@@@nlohmann@@@std@@PEAX@1@@Z 0000000140011c40     bento_sdk:asset_database.obj
 0002:00003c50       $unwind$??$_Copy_nodes@U_Copy_tag@?$_Tree@V?$_Tmap_traits@V?$basic_string@DU?$char_traits@D@std@@V?$allocator@D@2@@std@@V?$basic_json@Vmap@std@@Vvector@2@V?$basic_string@DU?$char_traits@D@std@@V?$allocator@D@2@@2@_N_J_KNVallocator@2@Uadl_serializer@nlohmann@@@nlohmann@@U?$less@V?$basic_string@DU?$char_traits@D@std@@V?$allocator@D@2@@std@@@2@V?$allocator@U?$pair@$$CBV?$basic_string@DU?$char_traits@D@std@@V?$allocator@D@2@@std@@V?$basic_json@Vmap@std@@Vvector@2@V?$basic_string@DU?$char_traits@D@std@@V?$allocator@D@2@@2@_N_J_KNVallocator@2@Uadl_serializer@nlohmann@@@nlohmann@@@std@@@2@$0A@@std@@@std@@@?$_Tree@V?$_Tmap_traits@V?$basic_string@DU?$char_traits@D@std@@V?$allocator@D@2@@std@@V?$basic_json@Vmap@std@@Vvector@2@V?$basic_string@DU?$char_traits@D@std@@V?$allocator@D@2@@2@_N_J_KNVallocator@2@Uadl_serializer@nlohmann@@@nlohmann@@U?$less@V?$basic_string@DU?$char_traits@D@std@@V?$allocator@D@2@@std@@@2@V?$allocator@U?$pair@$$CBV?$basic_string@DU?$char_traits@D@std@@V?$allocator@D@2@@std@@V?$basic_json@Vmap@std@@Vvector@2@V?$basic_string@DU?$char_traits@D@std@@V?$allocator@D@2@@2@_N_J_KNVallocator@2@Uadl_serializer@nlohmann@@@nlohmann@@@std@@@2@$0A@@std@@@std@@IEAAPEAU?$_Tree_node@U?$pair@$$CBV?$basic_string@DU?$char_traits@D@std@@V?$allocator@D@2@@std@@V?$basic_json@Vmap@std@@Vvector@2@V?$basic_string@DU?$char_traits@D@std@@V?$allocator@D@2@@2@_N_J_KNVallocator@2@Uadl_serializer@nlohmann@@@nlohmann@@@std@@PEAX@1@PEAU21@0U_Copy_tag@01@@Z 0000000140011c50     bento_sdk:asset_database.obj
 0002:00003c70       $stateUnwindMap$??$_Copy_nodes@U_Copy_tag@?$_Tree@V?$_Tmap_traits@V?$basic_string@DU?$char_traits@D@std@@V?$allocator@D@2@@std@@V?$basic_json@Vmap@std@@Vvector@2@V?$basic_string@DU?$char_traits@D@std@@V?$allocator@D@2@@2@_N_J_KNVallocator@2@Uadl_serializer@nlohmann@@@nlohmann@@U?$less@V?$basic_string@DU?$char_traits@D@std@@V?$allocator@D@2@@std@@@2@V?$allocator@U?$pair@$$CBV?$basic_string@DU?$char_traits@D@std@@V?$allocator@D@2@@std@@V?$basic_json@Vmap@std@@Vvector@2@V?$basic_string@DU?$char_traits@D@std@@V?$allocator@D@2@@2@_N_J_KNVallocator@2@Uadl_serializer@nlohmann@@@nlohmann@@@std@@@2@$0A@@std@@@std@@@?$_Tree@V?$_Tmap_traits@V?$basic_string@DU?$char_traits@D@std@@V?$allocator@D@2@@std@@V?$basic_json@Vmap@std@@Vvector@2@V?$basic_string@DU?$char_traits@D@std@@V?$allocator@D@2@@2@_N_J_KNVallocator@2@Uadl_serializer@nlohmann@@@nlohmann@@U?$less@V?$basic_string@DU?$char_traits@D@std@@V?$allocator@D@2@@std@@@2@V?$allocator@U?$pair@$$CBV?$basic_string@DU?$char_traits@D@std@@V?$allocator@D@2@@std@@V?$basic_json@Vmap@std@@Vvector@2@V?$basic_string@DU?$char_traits@D@std@@V?$allocator@D@2@@2@_N_J_KNVallocator@2@Uadl_serializer@nlohmann@@@nlohmann@@@std@@@2@$0A@@std@@@std@@IEAAPEAU?$_Tree_node@U?$pair@$$CBV?$basic_string@DU?$char_traits@D@std@@V?$allocator@D@2@@std@@V?$basic_json@Vmap@std@@Vvector@2@V?$basic_string@DU?$char_traits@D@std@@V?$allocator@D@2@@2@_N_J_KNVallocator@2@Uadl_serializer@nlohmann@@@nlohmann@@@std@@PEAX@1@PEAU21@0U_Copy_tag@01@@Z 0000000140011c70     bento_sdk:asset_database.obj
 0002:00003c80       $ip2state$??$_Copy_nodes@U_Copy_tag@?$_Tree@V?$_Tmap_traits@V?$basic_string@DU?$char_traits@D@std@@V?$allocator@D@2@@std@@V?$basic_json@Vmap@std@@Vvector@2@V?$basic_string@DU?$char_traits@D@std@@V?$allocator@D@2@@2@_N_J_KNVallocator@2@Uadl_serializer@nlohmann@@@nlohmann@@U?$less@V?$basic_string@DU?$char_traits@D@std@@V?$allocator@D@2@@std@@@2@V?$allocator@U?$pair@$$CBV?$basic_string@DU?$char_traits@D@std@@V?$allocator@D@2@@std@@V?$basic_json@Vmap@std@@Vvector@2@V?$basic_string@DU?$char_traits@D@std@@V?$allocator@D@2@@2@_N_J_KNVallocator@2@Uadl_serializer@nlohmann@@@nlohmann@@@std@@@2@$0A@@std@@@std@@@?$_Tree@V?$_Tmap_traits@V?$basic_string@DU?$char_traits@D@std@@V?$allocator@D@2@@std@@V?$basic_json@Vmap@std@@Vvector@2@V?$basic_string@DU?$char_traits@D@std@@V?$allocator@D@2@@2@_N_J_KNVallocator@2@Uadl_serializer@nlohmann@@@nlohmann@@U?$less@V?$basic_string@DU?$char_traits@D@std@@V?$allocator@D@2@@std@@@2@V?$allocator@U?$pair@$$CBV?$basic_string@DU?$char_traits@D@std@@V?$allocator@D@2@@std@@V?$basic_json@Vmap@std@@Vvector@2@V?$basic_string@DU?$char_traits@D@std@@V?$allocator@D@2@@2@_N_J_KNVallocator@2@Uadl_serializer@nlohmann@@@nlohmann@@@std@@@2@$0A@@std@@@std@@IEAAPEAU?$_Tree_node@U?$pair@$$CBV?$basic_string@DU?$char_traits@D@std@@V?$allocator@D@2@@std@@V?$basic_json@Vmap@std@@Vvector@2@V?$basic_string@DU?$char_traits@D@std@@V?$allocator@D@2@@2@_N_J_KNVallocator@2@Uadl_serializer@nlohmann@@@nlohmann@@@std@@PEAX@1@PEAU21@0U_Copy_tag@01@@Z 0000000140011c80     bento_sdk:asset_database.obj
 0002:00003ca0       $unwind$?dtor$30@?0???$_Copy_nodes@U_Copy_tag@?$_Tree@V?$_Tmap_traits@V?$basic_string@DU?$char_traits@D@std@@V?$allocator@D@2@@std@@V?$basic_json@Vmap@std@@Vvector@2@V?$basic_string@DU?$char_traits@D@std@@V?$allocator@D@2@@2@_N_J_KNVallocator@2@Uadl_serializer@nlohmann@@@nlohmann@@U?$less@V?$basic_string@DU?$char_traits@D@std@@V?$allocator@D@2@@std@@@2@V?$allocator@U?$pair@$$CBV?$basic_string@DU?$char_traits@D@std@@V?$allocator@D@2@@std@@V?$basic_json@Vmap@std@@Vvector@2@V?$basic_string@DU?$char_traits@D@std@@V?$allocator@D@2@@2@_N_J_KNVallocator@2@Uadl_serializer@nlohmann@@@nlohmann@@@std@@@2@$0A@@std@@@std@@@?$_Tree@V?$_Tmap_traits@V?$basic_string@DU?$char_traits@D@std@@V?$allocator@D@2@@std@@V?$basic_json@Vmap@std@@Vvector@2@V?$basic_string@DU?$char_traits@D@std@@V?$allocator@D@2@@2@_N_J_KNVallocator@2@Uadl_serializer@nlohmann@@@nlohmann@@U?$less@V?$basic_string@DU?$char_traits@D@std@@V?$allocator@D@2@@std@@@2@V?$allocator@U?$pair@$$CBV?$basic_string@DU?$char_traits@D@std@@V?$allocator@D@2@@std@@V?$basic_json@Vmap@std@@Vvector@2@V?$basic_string@DU?$char_traits@D@std@@V?$allocator@D@2@@2@_N_J_KNVallocator@2@Uadl_serializer@nlohmann@@@nlohmann@@@std@@@2@$0A@@std@@@std@@IEAAPEAU?$_Tree_node@U?$pair@$$CBV?$basic_string@DU?$char_traits@D@std@@V?$allocator@D@2@@std@@V?$basic_json@Vmap@std@@Vvector@2@V?$basic_string@DU?$char_traits@D@std@@V?$allocator@D@2@@2@_N_J_KNVallocator@2@Uadl_serializer@nlohmann@@@nlohmann@@@std@@PEAX@1@PEAU21@0U_Copy_tag@01@@Z@4HA 0000000140011ca0     bento_sdk:asset_database.obj
 0002:00003ca8       $unwind$??$construct@V?$basic_json@Vmap@std@@Vvector@2@V?$basic_string@DU?$char_traits@D@std@@V?$allocator@D@2@@2@_N_J_KNVallocator@2@Uadl_serializer@nlohmann@@@nlohmann@@@?$external_constructor@$02@detail@nlohmann@@SAXAEAV?$basic_json@Vmap@std@@Vvector@2@V?$basic_string@DU?$char_traits@D@std@@V?$allocator@D@2@@2@_N_J_KNVallocator@2@Uadl_serializer@nlohmann@@@2@$$QEAV?$basic_string@DU?$char_traits@D@std@@V?$allocator@D@2@@std@@@Z 0000000140011ca8     bento_sdk:asset_database.obj
 0002:00003cb4       $unwind$??__E__default_system_logger@bento@@YAXXZ 0000000140011cb4     bento_sdk:log.obj
 0002:00003cbc       $unwind$?push_back@?$Vector@D@bento@@QEAAXAEBD@Z 0000000140011cbc     bento_sdk:file_system.obj
 0002:00003cc8       $unwind$?join@path@bento@@YA?AVDynamicString@2@PEBD0AEAVIAllocator@2@@Z 0000000140011cc8     bento_sdk:file_system.obj
 0002:00003cd0       $unwind$?add_extension@path@bento@@YA?AVDynamicString@2@PEBD0AEAVIAllocator@2@@Z 0000000140011cd0     bento_sdk:file_system.obj
 0002:00003cd8       $unwind$?strip_extension@path@bento@@YA?AVDynamicString@2@PEBDAEAVIAllocator@2@@Z 0000000140011cd8     bento_sdk:file_system.obj
 0002:00003cec       $unwind$?extension@path@bento@@YA?AVDynamicString@2@PEBDAEAVIAllocator@2@@Z 0000000140011cec     bento_sdk:file_system.obj
 0002:00003d04       $unwind$?directory@path@bento@@YA?AVDynamicString@2@PEBDAEAVIAllocator@2@@Z 0000000140011d04     bento_sdk:file_system.obj
 0002:00003d18       $unwind$?filename@path@bento@@YA?AVDynamicString@2@PEBDAEAVIAllocator@2@@Z 0000000140011d18     bento_sdk:file_system.obj
 0002:00003d30       $unwind$?path_is_file@file_system@bento@@YA_NPEBD@Z 0000000140011d30     bento_sdk:file_system.obj
 0002:00003d40       $unwind$?collect_files_with_extension@file_system@bento@@YAXPEBD0AEAV?$Vector@VDynamicString@bento@@@2@@Z 0000000140011d40     bento_sdk:file_system.obj
 0002:00003d68       $stateUnwindMap$?collect_files_with_extension@file_system@bento@@YAXPEBD0AEAV?$Vector@VDynamicString@bento@@@2@@Z 0000000140011d68     bento_sdk:file_system.obj
 0002:00003db0       $ip2state$?collect_files_with_extension@file_system@bento@@YAXPEBD0AEAV?$Vector@VDynamicString@bento@@@2@@Z 0000000140011db0     bento_sdk:file_system.obj
 0002:00003e40       $unwind$?dtor$17@?0??collect_files_with_extension@file_system@bento@@YAXPEBD0AEAV?$Vector@VDynamicString@bento@@@2@@Z@4HA 0000000140011e40     bento_sdk:file_system.obj
 0002:00003e48       $unwind$?write_file@bento@@YA_NPEBD0IW4FileType@1@@Z 0000000140011e48     bento_sdk:file_system.obj
 0002:00003e54       $chain$2$?write_file@bento@@YA_NPEBD0IW4FileType@1@@Z 0000000140011e54     bento_sdk:file_system.obj
 0002:00003e70       $chain$4$?write_file@bento@@YA_NPEBD0IW4FileType@1@@Z 0000000140011e70     bento_sdk:file_system.obj
 0002:00003e84       $chain$5$?write_file@bento@@YA_NPEBD0IW4FileType@1@@Z 0000000140011e84     bento_sdk:file_system.obj
 0002:00003e94       $unwind$?read_file@bento@@YA_NPEBDAEAV?$Vector@D@1@W4FileType@1@@Z 0000000140011e94     bento_sdk:file_system.obj
 0002:00003ea0       $chain$0$?read_file@bento@@YA_NPEBDAEAV?$Vector@D@1@W4FileType@1@@Z 0000000140011ea0     bento_sdk:file_system.obj
 0002:00003eb4       $chain$2$?read_file@bento@@YA_NPEBDAEAV?$Vector@D@1@W4FileType@1@@Z 0000000140011eb4     bento_sdk:file_system.obj
 0002:00003ecc       $chain$3$?read_file@bento@@YA_NPEBDAEAV?$Vector@D@1@W4FileType@1@@Z 0000000140011ecc     bento_sdk:file_system.obj
 0002:00003edc       $chain$4$?read_file@bento@@YA_NPEBDAEAV?$Vector@D@1@W4FileType@1@@Z 0000000140011edc     bento_sdk:file_system.obj
 0002:00003eec       $unwind$_wclosedir         0000000140011eec     bento_sdk:file_system.obj
 0002:00003ef4       $unwind$opendir            0000000140011ef4     bento_sdk:file_system.obj
 0002:00003f08       $chain$0$opendir           0000000140011f08     bento_sdk:file_system.obj
 0002:00003f1c       $chain$1$opendir           0000000140011f1c     bento_sdk:file_system.obj
 0002:00003f30       $chain$2$opendir           0000000140011f30     bento_sdk:file_system.obj
 0002:00003f44       $chain$3$opendir           0000000140011f44     bento_sdk:file_system.obj
 0002:00003f54       $chain$4$opendir           0000000140011f54     bento_sdk:file_system.obj
 0002:00003f64       $chain$5$opendir           0000000140011f64     bento_sdk:file_system.obj
 0002:00003f74       $unwind$dirent_first       0000000140011f74     bento_sdk:file_system.obj
 0002:00003f80       $unwind$?internal_join@path@bento@@YA?AVDynamicString@2@PEBD0DAEAVIAllocator@2@@Z 0000000140011f80     bento_sdk:file_system.obj
 0002:00003f9c       $unwind$?push_back@?$Vector@VDynamicString@bento@@@bento@@QEAAXAEBVDynamicString@2@@Z 0000000140011f9c     bento_sdk:file_system.obj
 0002:00003fb4       $stateUnwindMap$?push_back@?$Vector@VDynamicString@bento@@@bento@@QEAAXAEBVDynamicString@2@@Z 0000000140011fb4     bento_sdk:file_system.obj
 0002:00003fc0       $ip2state$?push_back@?$Vector@VDynamicString@bento@@@bento@@QEAAXAEBVDynamicString@2@@Z 0000000140011fc0     bento_sdk:file_system.obj
 0002:00003fd8       $unwind$?dtor$1@?0??push_back@?$Vector@VDynamicString@bento@@@bento@@QEAAXAEBVDynamicString@2@@Z@4HA 0000000140011fd8     bento_sdk:file_system.obj
 0002:00003fe0       $unwind$?pack_buffer@bento@@YAXAEAV?$Vector@D@1@IPEBD@Z 0000000140011fe0     bento_sdk:stream.obj
 0002:00003fec       $chain$1$?pack_buffer@bento@@YAXAEAV?$Vector@D@1@IPEBD@Z 0000000140011fec     bento_sdk:stream.obj
 0002:00004004       $chain$2$?pack_buffer@bento@@YAXAEAV?$Vector@D@1@IPEBD@Z 0000000140012004     bento_sdk:stream.obj
 0002:00004018       $chain$3$?pack_buffer@bento@@YAXAEAV?$Vector@D@1@IPEBD@Z 0000000140012018     bento_sdk:stream.obj
 0002:00004028       $chain$4$?pack_buffer@bento@@YAXAEAV?$Vector@D@1@IPEBD@Z 0000000140012028     bento_sdk:stream.obj
 0002:00004038       $unwind$?unpack_buffer@bento@@YAXAEAPEBDIPEAD@Z 0000000140012038     bento_sdk:stream.obj
 0002:00004040       $chain$0$?unpack_buffer@bento@@YAXAEAPEBDIPEAD@Z 0000000140012040     bento_sdk:stream.obj
 0002:00004054       $chain$1$?unpack_buffer@bento@@YAXAEAPEBDIPEAD@Z 0000000140012054     bento_sdk:stream.obj
 0002:00004064       $unwind$??0DiskSerializer@bento@@QEAA@AEAVIAllocator@1@PEBD@Z 0000000140012064     bento_sdk:disk_serializer.obj
 0002:00004070       $unwind$?internal_write_buffer@DiskSerializer@bento@@AEAA_NAEBV?$Vector@D@2@PEBD1@Z 0000000140012070     bento_sdk:disk_serializer.obj
 0002:0000408c       $stateUnwindMap$?internal_write_buffer@DiskSerializer@bento@@AEAA_NAEBV?$Vector@D@2@PEBD1@Z 000000014001208c     bento_sdk:disk_serializer.obj
 0002:000040b0       $ip2state$?internal_write_buffer@DiskSerializer@bento@@AEAA_NAEBV?$Vector@D@2@PEBD1@Z 00000001400120b0     bento_sdk:disk_serializer.obj
 0002:000040e8       $unwind$?internal_read_buffer@DiskSerializer@bento@@AEAA_NAEAV?$Vector@D@2@PEBD1@Z 00000001400120e8     bento_sdk:disk_serializer.obj
 0002:00004104       $stateUnwindMap$?internal_read_buffer@DiskSerializer@bento@@AEAA_NAEAV?$Vector@D@2@PEBD1@Z 0000000140012104     bento_sdk:disk_serializer.obj
 0002:00004128       $ip2state$?internal_read_buffer@DiskSerializer@bento@@AEAA_NAEAV?$Vector@D@2@PEBD1@Z 0000000140012128     bento_sdk:disk_serializer.obj
 0002:00004160       $unwind$?internal_write_string@DiskSerializer@bento@@AEAA_NAEBVDynamicString@2@PEBD1@Z 0000000140012160     bento_sdk:disk_serializer.obj
 0002:0000417c       $stateUnwindMap$?internal_write_string@DiskSerializer@bento@@AEAA_NAEBVDynamicString@2@PEBD1@Z 000000014001217c     bento_sdk:disk_serializer.obj
 0002:000041a0       $ip2state$?internal_write_string@DiskSerializer@bento@@AEAA_NAEBVDynamicString@2@PEBD1@Z 00000001400121a0     bento_sdk:disk_serializer.obj
 0002:000041d8       $unwind$?internal_read_string@DiskSerializer@bento@@AEAA_NAEAVDynamicString@2@PEBD1@Z 00000001400121d8     bento_sdk:disk_serializer.obj
 0002:000041f8       $stateUnwindMap$?internal_read_string@DiskSerializer@bento@@AEAA_NAEAVDynamicString@2@PEBD1@Z 00000001400121f8     bento_sdk:disk_serializer.obj
 0002:00004230       $ip2state$?internal_read_string@DiskSerializer@bento@@AEAA_NAEAVDynamicString@2@PEBD1@Z 0000000140012230     bento_sdk:disk_serializer.obj
 0002:00004278       $unwind$??0SystemAllocator@bento@@QEAA@XZ 0000000140012278     bento_sdk:system_allocator.obj
 0002:00004280       $unwind$?reallocate@SystemAllocator@bento@@UEAAPEAXPEAX_K11@Z 0000000140012280     bento_sdk:system_allocator.obj
 0002:00004298       $unwind$??_GSystemAllocator@bento@@UEAAPEAXI@Z 0000000140012298     bento_sdk:system_allocator.obj
 0002:000042a4       $unwind$?murmur_hash_64@bento@@YA_KPEBXII@Z 00000001400122a4     bento_sdk:hash.obj
 0002:000042ac       $unwind$??_GILogger@bento@@UEAAPEAXI@Z 00000001400122ac     bento_sdk:system_logger.obj
 0002:000042b4       $unwind$?log@SystemLogger@bento@@UEAAXW4Type@LogLevel@2@PEBD1@Z 00000001400122b4     bento_sdk:system_logger.obj
 0002:000042c0       $unwind$??_GSystemLogger@bento@@UEAAPEAXI@Z 00000001400122c0     bento_sdk:system_logger.obj
 0002:000042c8       $unwind$??$?6U?$char_traits@D@std@@@std@@YAAEAV?$basic_ostream@DU?$char_traits@D@std@@@0@AEAV10@PEBD@Z 00000001400122c8     bento_sdk:system_logger.obj
 0002:000042e8       $stateUnwindMap$??$?6U?$char_traits@D@std@@@std@@YAAEAV?$basic_ostream@DU?$char_traits@D@std@@@0@AEAV10@PEBD@Z 00000001400122e8     bento_sdk:system_logger.obj
 0002:00004308       $ip2state$??$?6U?$char_traits@D@std@@@std@@YAAEAV?$basic_ostream@DU?$char_traits@D@std@@@0@AEAV10@PEBD@Z 0000000140012308     bento_sdk:system_logger.obj
 0002:00004338       $unwind$??1_Sentry_base@?$basic_ostream@DU?$char_traits@D@std@@@std@@QEAA@XZ 0000000140012338     bento_sdk:system_logger.obj
 0002:00004348       $ip2state$??1_Sentry_base@?$basic_ostream@DU?$char_traits@D@std@@@std@@QEAA@XZ 0000000140012348     bento_sdk:system_logger.obj
 0002:00004350       $unwind$??1sentry@?$basic_ostream@DU?$char_traits@D@std@@@std@@QEAA@XZ 0000000140012350     bento_sdk:system_logger.obj
 0002:00004360       $stateUnwindMap$??1sentry@?$basic_ostream@DU?$char_traits@D@std@@@std@@QEAA@XZ 0000000140012360     bento_sdk:system_logger.obj
 0002:00004368       $ip2state$??1sentry@?$basic_ostream@DU?$char_traits@D@std@@@std@@QEAA@XZ 0000000140012368     bento_sdk:system_logger.obj
 0002:00004380       $unwind$??_GIAllocator@bento@@UEAAPEAXI@Z 0000000140012380     bento_sdk:allocator.obj
 0002:00004388       $unwind$?configure_argv@__scrt_narrow_argv_policy@@SAHXZ 0000000140012388     MSVCRT:exe_main.obj
 0002:00004390       $unwind$?set_fmode@__scrt_file_policy@@SAXXZ 0000000140012390     MSVCRT:exe_main.obj
 0002:00004398       $unwind$?set_commode@__scrt_file_policy@@SAXXZ 0000000140012398     MSVCRT:exe_main.obj
 0002:000043a0       $unwind$?invoke_main@@YAHXZ 00000001400123a0     MSVCRT:exe_main.obj
 0002:000043ac       $unwind$?pre_c_initialization@@YAHXZ 00000001400123ac     MSVCRT:exe_main.obj
 0002:000043b4       $unwind$?post_pgo_initialization@@YAHXZ 00000001400123b4     MSVCRT:exe_main.obj
 0002:000043bc       $unwind$?pre_cpp_initialization@@YAXXZ 00000001400123bc     MSVCRT:exe_main.obj
 0002:000043c4       $unwind$?__scrt_common_main_seh@@YAHXZ 00000001400123c4     MSVCRT:exe_main.obj
 0002:000043fc       $unwind$?filt$0@?0??__scrt_common_main_seh@@YAHXZ@4HA 00000001400123fc     MSVCRT:exe_main.obj
 0002:00004404       $unwind$?__scrt_common_main@@YAHXZ 0000000140012404     MSVCRT:exe_main.obj
 0002:0000440c       $unwind$mainCRTStartup     000000014001240c     MSVCRT:exe_main.obj
 0002:00004414       $unwind$__GSHandlerCheckCommon 0000000140012414     MSVCRT:_gshandler_.obj
 0002:0000441c       $unwind$__GSHandlerCheck   000000014001241c     MSVCRT:_gshandler_.obj
 0002:00004428       $xdatasym                  0000000140012428     MSVCRT:_amdsecgs_.obj
 0002:0000442c       $unwind$atexit             000000014001242c     MSVCRT:utility.obj
 0002:00004434       $unwind$_onexit            0000000140012434     MSVCRT:utility.obj
 0002:0000443c       $unwind$__scrt_is_nonwritable_in_current_image 000000014001243c     MSVCRT:utility.obj
 0002:0000445c       $unwind$__scrt_is_nonwritable_in_current_image$filt$0 000000014001245c     MSVCRT:utility.obj
 0002:00004464       $unwind$__scrt_acquire_startup_lock 0000000140012464     MSVCRT:utility.obj
 0002:0000446c       $unwind$__scrt_release_startup_lock 000000014001246c     MSVCRT:utility.obj
 0002:00004474       $unwind$__scrt_initialize_crt 0000000140012474     MSVCRT:utility.obj
 0002:0000447c       $unwind$__scrt_uninitialize_crt 000000014001247c     MSVCRT:utility.obj
 0002:00004484       $unwind$__scrt_initialize_onexit_tables 0000000140012484     MSVCRT:utility.obj
 0002:00004490       $unwind$__scrt_dllmain_exception_filter 0000000140012490     MSVCRT:utility.obj
 0002:000044a4       $unwind$__scrt_dllmain_before_initialize_c 00000001400124a4     MSVCRT:utility.obj
 0002:000044ac       $unwind$__scrt_dllmain_after_initialize_c 00000001400124ac     MSVCRT:utility.obj
 0002:000044b4       $unwind$__scrt_dllmain_uninitialize_c 00000001400124b4     MSVCRT:utility.obj
 0002:000044bc       $unwind$__scrt_dllmain_uninitialize_critical 00000001400124bc     MSVCRT:utility.obj
 0002:000044c4       $unwind$__scrt_dllmain_crt_thread_attach 00000001400124c4     MSVCRT:utility.obj
 0002:000044cc       $unwind$__scrt_dllmain_crt_thread_detach 00000001400124cc     MSVCRT:utility.obj
 0002:000044d4       $unwind$??_M@YAXPEAX_K1P6AX0@Z@Z 00000001400124d4     MSVCRT:ehvecdtr.obj
 0002:000044fc       $unwind$?fin$0@?0???_M@YAXPEAX_K1P6AX0@Z@Z@4HA 00000001400124fc     MSVCRT:ehvecdtr.obj
 0002:00004504       $unwind$?__ArrayUnwind@@YAXPEAX_K1P6AX0@Z@Z 0000000140012504     MSVCRT:ehvecdtr.obj
 0002:00004530       $unwind$?filt$0@?0??__ArrayUnwind@@YAXPEAX_K1P6AX0@Z@Z@4HA 0000000140012530     MSVCRT:ehvecdtr.obj
 0002:00004538       $unwind$?ArrayUnwindFilter@@YAHPEAU_EXCEPTION_POINTERS@@@Z 0000000140012538     MSVCRT:ehvecdtr.obj
 0002:00004540       $unwind$??2@YAPEAX_K@Z     0000000140012540     MSVCRT:new_scalar.obj
 0002:00004548       $unwind$__GSHandlerCheck_EH 0000000140012548     MSVCRT:gshandlereh.obj
 0002:00004560       $unwind$??_Gtype_info@@UEAAPEAXI@Z 0000000140012560     MSVCRT:std_type_info_static.obj
 0002:00004568       $unwind$__isa_available_init 0000000140012568     MSVCRT:_cpu_disp_.obj
 0002:0000457c       $unwind$__security_init_cookie 000000014001257c     MSVCRT:gs_support.obj
 0002:00004588       $unwind$__get_entropy      0000000140012588     MSVCRT:gs_support.obj
 0002:00004590       $unwind$__scrt_initialize_default_local_stdio_options 0000000140012590     MSVCRT:default_local_stdio_options.obj
 0002:00004598       $unwind$__scrt_get_show_window_mode 0000000140012598     MSVCRT:utility_desktop.obj
 0002:000045a0       $unwind$__scrt_is_managed_app 00000001400125a0     MSVCRT:utility_desktop.obj
 0002:000045a8       $unwind$__scrt_fastfail    00000001400125a8     MSVCRT:utility_desktop.obj
 0002:000045b8       $unwind$__scrt_unhandled_exception_filter 00000001400125b8     MSVCRT:utility_desktop.obj
 0002:000045c0       $unwind$_RTC_Initialize    00000001400125c0     MSVCRT:_initsect_.obj
 0002:000045d0       $unwind$_RTC_Terminate     00000001400125d0     MSVCRT:_initsect_.obj
 0002:000045e0       $unwind$__report_securityfailure 00000001400125e0     MSVCRT:gs_report.obj
 0002:000045e8       $unwind$__report_securityfailureEx 00000001400125e8     MSVCRT:gs_report.obj
 0002:000045f0       $unwind$__report_rangecheckfailure 00000001400125f0     MSVCRT:gs_report.obj
 0002:000045f8       $unwind$__report_gsfailure 00000001400125f8     MSVCRT:gs_report.obj
 0002:00004600       $unwind$capture_current_context 0000000140012600     MSVCRT:gs_report.obj
 0002:0000460c       $unwind$capture_previous_context 000000014001260c     MSVCRT:gs_report.obj
 0002:00004618       $unwind$__raise_securityfailure 0000000140012618     MSVCRT:gs_report.obj
 0002:00004620       $unwind$??0exception@std@@QEAA@AEBV01@@Z 0000000140012620     MSVCRT:throw_bad_alloc.obj
 0002:00004628       $unwind$??_Gexception@std@@UEAAPEAXI@Z 0000000140012628     MSVCRT:throw_bad_alloc.obj
 0002:00004634       $unwind$??0bad_alloc@std@@QEAA@AEBV01@@Z 0000000140012634     MSVCRT:throw_bad_alloc.obj
 0002:0000463c       $unwind$??_Gbad_alloc@std@@UEAAPEAXI@Z 000000014001263c     MSVCRT:throw_bad_alloc.obj
 0002:00004648       $unwind$??0bad_array_new_length@std@@QEAA@AEBV01@@Z 0000000140012648     MSVCRT:throw_bad_alloc.obj
 0002:00004650       $unwind$??_Gbad_array_new_length@std@@UEAAPEAXI@Z 0000000140012650     MSVCRT:throw_bad_alloc.obj
 0002:0000465c       $unwind$?__scrt_throw_std_bad_alloc@@YAXXZ 000000014001265c     MSVCRT:throw_bad_alloc.obj
 0002:00004664       $unwind$?__scrt_throw_std_bad_array_new_length@@YAXXZ 0000000140012664     MSVCRT:throw_bad_alloc.obj
 0002:00004670       $xdatasym                  0000000140012670     MSVCRT:_guard_dispatch_.obj
 0002:00004678       $xdatasym                  0000000140012678     MSVCRT:_rfgfailure_.obj
 0002:000054b2       .idata$6                   00000001400134b2     msvcprt:MSVCP140.dll
 0002:0000559c       .idata$6                   000000014001359c     vcruntime:VCRUNTIME140.dll
 0002:000058d4       .idata$6                   00000001400138d4     ucrt:api-ms-win-crt-heap-l1-1-0.dll
 0002:000058f4       .idata$6                   00000001400138f4     ucrt:api-ms-win-crt-string-l1-1-0.dll
 0002:00005916       .idata$6                   0000000140013916     ucrt:api-ms-win-crt-runtime-l1-1-0.dll
 0002:00005938       .idata$6                   0000000140013938     ucrt:api-ms-win-crt-math-l1-1-0.dll
 0002:00005958       .idata$6                   0000000140013958     ucrt:api-ms-win-crt-stdio-l1-1-0.dll
 0002:00005978       .idata$6                   0000000140013978     ucrt:api-ms-win-crt-locale-l1-1-0.dll
 0002:0000599a       .idata$6                   000000014001399a     ucrt:api-ms-win-crt-convert-l1-1-0.dll
 0002:000059bc       .idata$6                   00000001400139bc     ucrt:api-ms-win-crt-filesystem-l1-1-0.dll
 0002:00005b94       .idata$6                   0000000140013b94     kernel32:KERNEL32.dll
 0003:000001c0       ?__common_allocator@bento@@3VSystemAllocator@1@A 00000001400141c0     bento_sdk:common.obj
 0003:000001dc       ?module_local_atexit_table_initialized@@3_NA 00000001400141dc     MSVCRT:utility.obj
 0003:000001e8       ?module_local_atexit_table@@3U_onexit_table_t@@A 00000001400141e8     MSVCRT:utility.obj
 0003:00000200       ?module_local_at_quick_exit_table@@3U_onexit_table_t@@A 0000000140014200     MSVCRT:utility.obj
 0003:00000218       ?is_initialized_as_dll@@3_NA 0000000140014218     MSVCRT:utility.obj
 0003:00000240       GS_ExceptionRecord         0000000140014240     MSVCRT:gs_report.obj
 0003:000002e0       GS_ContextRecord           00000001400142e0     MSVCRT:gs_report.obj
 0004:00000000       $pdata$??__E__common_allocator@bento@@YAXXZ 0000000140015000     bento_sdk:common.obj
 0004:0000000c       $pdata$??__E__default_system_logger@bento@@YAXXZ 000000014001500c     bento_sdk:log.obj
 0004:00000018       $pdata$??1?$Vector@D@bento@@QEAA@XZ 0000000140015018     testCompiler.obj
 0004:00000024       $pdata$??1?$Vector@VDynamicString@bento@@@bento@@QEAA@XZ 0000000140015024     testCompiler.obj
 0004:00000030       $pdata$??1DynamicString@bento@@QEAA@XZ 0000000140015030     testCompiler.obj
 0004:0000003c       $pdata$??1TCompilerOptions@noiseless@@QEAA@XZ 000000014001503c     testCompiler.obj
 0004:00000048       $pdata$?clear@?$Vector@VDynamicString@bento@@@bento@@QEAAXXZ 0000000140015048     testCompiler.obj
 0004:00000054       $pdata$?free@?$Vector@D@bento@@QEAAXXZ 0000000140015054     testCompiler.obj
 0004:00000060       $pdata$?free@?$Vector@VDynamicString@bento@@@bento@@QEAAXXZ 0000000140015060     testCompiler.obj
 0004:0000006c       $pdata$?reserve@?$Vector@VDynamicString@bento@@@bento@@QEAAXI@Z 000000014001506c     testCompiler.obj
 0004:00000078       $pdata$?resize@?$Vector@VDynamicString@bento@@@bento@@QEAAXI@Z 0000000140015078     testCompiler.obj
 0004:00000084       $pdata$main                0000000140015084     testCompiler.obj
 0004:00000090       $pdata$?build_from_args@asset_compiler@noiseless@@YAXAEAUTCompilerOptions@2@AEBV?$Vector@VDynamicString@bento@@@bento@@@Z 0000000140015090     noiseless_sdk:compiler_options.obj
 0004:0000009c       $pdata$1$?build_from_args@asset_compiler@noiseless@@YAXAEAUTCompilerOptions@2@AEBV?$Vector@VDynamicString@bento@@@bento@@@Z 000000014001509c     noiseless_sdk:compiler_options.obj
 0004:000000a8       $pdata$2$?build_from_args@asset_compiler@noiseless@@YAXAEAUTCompilerOptions@2@AEBV?$Vector@VDynamicString@bento@@@bento@@@Z 00000001400150a8     noiseless_sdk:compiler_options.obj
 0004:000000b4       $pdata$??1TKernelSource@noiseless@@QEAA@XZ 00000001400150b4     noiseless_sdk:compiler.obj
 0004:000000c0       $pdata$?compile@asset_compiler@noiseless@@YA_NAEBUTCompilerOptions@2@AEAVTAssetDatabase@bento@@@Z 00000001400150c0     noiseless_sdk:compiler.obj
 0004:000000cc       $pdata$?write@asset_compiler@noiseless@@YAXAEBUTCompilerOptions@2@AEBVTAssetDatabase@bento@@@Z 00000001400150cc     noiseless_sdk:compiler.obj
 0004:000000d8       $pdata$??$pack_vector_bytes@D@bento@@YAXAEAV?$Vector@D@0@AEBV10@@Z 00000001400150d8     noiseless_sdk:kernel_source.obj
 0004:000000e4       $pdata$??$unpack_vector_bytes@D@bento@@YAXAEAPEBDAEAV?$Vector@D@0@@Z 00000001400150e4     noiseless_sdk:kernel_source.obj
 0004:000000f0       $pdata$0$??$unpack_vector_bytes@D@bento@@YAXAEAPEBDAEAV?$Vector@D@0@@Z 00000001400150f0     noiseless_sdk:kernel_source.obj
 0004:000000fc       $pdata$1$??$unpack_vector_bytes@D@bento@@YAXAEAPEBDAEAV?$Vector@D@0@@Z 00000001400150fc     noiseless_sdk:kernel_source.obj
 0004:00000108       $pdata$?pack_type@bento@@YAXAEAV?$Vector@D@1@AEBUTKernelSource@noiseless@@@Z 0000000140015108     noiseless_sdk:kernel_source.obj
 0004:00000114       $pdata$?reserve@?$Vector@D@bento@@QEAAXI@Z 0000000140015114     noiseless_sdk:kernel_source.obj
 0004:00000120       $pdata$?resize@?$Vector@D@bento@@QEAAXI@Z 0000000140015120     noiseless_sdk:kernel_source.obj
 0004:0000012c       $pdata$?unpack_type@bento@@YA_NAEAPEBDAEAUTKernelSource@noiseless@@@Z 000000014001512c     noiseless_sdk:kernel_source.obj
 0004:00000138       $pdata$1$?unpack_type@bento@@YA_NAEAPEBDAEAUTKernelSource@noiseless@@@Z 0000000140015138     noiseless_sdk:kernel_source.obj
 0004:00000144       $pdata$2$?unpack_type@bento@@YA_NAEAPEBDAEAUTKernelSource@noiseless@@@Z 0000000140015144     noiseless_sdk:kernel_source.obj
 0004:00000150       $pdata$??$_Getvals@_W@?$time_get@DV?$istreambuf_iterator@DU?$char_traits@D@std@@@std@@@std@@IEAAX_WAEBV_Locinfo@1@@Z 0000000140015150     noiseless_sdk:asset_database_helpers.obj
 0004:0000015c       $pdata$??$_Getvals@_W@?$time_get@_WV?$istreambuf_iterator@_WU?$char_traits@_W@std@@@std@@@std@@IEAAX_WAEBV_Locinfo@1@@Z 000000014001515c     noiseless_sdk:asset_database_helpers.obj
 0004:00000168       $pdata$??1DiskSerializer@bento@@QEAA@XZ 0000000140015168     noiseless_sdk:asset_database_helpers.obj
 0004:00000174       $pdata$?_Maklocwcs@std@@YAPEA_WPEB_W@Z 0000000140015174     noiseless_sdk:asset_database_helpers.obj
 0004:00000180       $pdata$?read_database@noiseless@@YA_NPEBDAEAVTAssetDatabase@bento@@@Z 0000000140015180     noiseless_sdk:asset_database_helpers.obj
 0004:0000018c       $pdata$?write_database@noiseless@@YA_NPEBDAEBVTAssetDatabase@bento@@@Z 000000014001518c     noiseless_sdk:asset_database_helpers.obj
 0004:00000198       $pdata$?write_database_debug@noiseless@@YA_NPEBDAEBVTAssetDatabase@bento@@@Z 0000000140015198     noiseless_sdk:asset_database_helpers.obj
 0004:000001a4       $pdata$??0DynamicString@bento@@QEAA@AEAVIAllocator@1@@Z 00000001400151a4     bento_sdk:dynamic_string.obj
 0004:000001b0       $pdata$??0DynamicString@bento@@QEAA@AEAVIAllocator@1@I@Z 00000001400151b0     bento_sdk:dynamic_string.obj
 0004:000001bc       $pdata$??0DynamicString@bento@@QEAA@AEAVIAllocator@1@PEBD@Z 00000001400151bc     bento_sdk:dynamic_string.obj
 0004:000001c8       $pdata$??0DynamicString@bento@@QEAA@AEBV01@@Z 00000001400151c8     bento_sdk:dynamic_string.obj
 0004:000001d4       $pdata$??4DynamicString@bento@@QEAAAEAV01@AEBV01@@Z 00000001400151d4     bento_sdk:dynamic_string.obj
 0004:000001e0       $pdata$??4DynamicString@bento@@QEAAAEAV01@PEBD@Z 00000001400151e0     bento_sdk:dynamic_string.obj
 0004:000001ec       $pdata$??YDynamicString@bento@@QEAAAEAV01@AEBV01@@Z 00000001400151ec     bento_sdk:dynamic_string.obj
 0004:000001f8       $pdata$??YDynamicString@bento@@QEAAAEAV01@PEBD@Z 00000001400151f8     bento_sdk:dynamic_string.obj
 0004:00000204       $pdata$?pack_type@bento@@YAXAEAV?$Vector@D@1@AEBVDynamicString@1@@Z 0000000140015204     bento_sdk:dynamic_string.obj
 0004:00000210       $pdata$?resize@DynamicString@bento@@QEAAXI@Z 0000000140015210     bento_sdk:dynamic_string.obj
 0004:0000021c       $pdata$?substr@string@bento@@YA?AVDynamicString@2@AEBV32@II@Z 000000014001521c     bento_sdk:dynamic_string.obj
 0004:00000228       $pdata$?to_lower_case@string@bento@@YAXAEAVDynamicString@2@@Z 0000000140015228     bento_sdk:dynamic_string.obj
 0004:00000234       $pdata$0$?to_lower_case@string@bento@@YAXAEAVDynamicString@2@@Z 0000000140015234     bento_sdk:dynamic_string.obj
 0004:00000240       $pdata$1$?to_lower_case@string@bento@@YAXAEAVDynamicString@2@@Z 0000000140015240     bento_sdk:dynamic_string.obj
 0004:0000024c       $pdata$?unpack_type@bento@@YAXAEAPEBDAEAVDynamicString@1@@Z 000000014001524c     bento_sdk:dynamic_string.obj
 0004:00000258       $pdata$??$?6DU?$char_traits@D@std@@_J@std@@YAAEAV?$basic_ostream@DU?$char_traits@D@std@@@0@AEAV10@AEBU?$_Smanip@_J@0@@Z 0000000140015258     bento_sdk:asset_database.obj
 0004:00000264       $pdata$??$?HDU?$char_traits@D@std@@V?$allocator@D@1@@std@@YA?AV?$basic_string@DU?$char_traits@D@std@@V?$allocator@D@2@@0@$$QEAV10@0@Z 0000000140015264     bento_sdk:asset_database.obj
 0004:00000270       $pdata$??$?HDU?$char_traits@D@std@@V?$allocator@D@1@@std@@YA?AV?$basic_string@DU?$char_traits@D@std@@V?$allocator@D@2@@0@$$QEAV10@QEBD@Z 0000000140015270     bento_sdk:asset_database.obj
 0004:0000027c       $pdata$??$?HDU?$char_traits@D@std@@V?$allocator@D@1@@std@@YA?AV?$basic_string@DU?$char_traits@D@std@@V?$allocator@D@2@@0@QEBD$$QEAV10@@Z 000000014001527c     bento_sdk:asset_database.obj
 0004:00000288       $pdata$??$?HDU?$char_traits@D@std@@V?$allocator@D@1@@std@@YA?AV?$basic_string@DU?$char_traits@D@std@@V?$allocator@D@2@@0@QEBDAEBV10@@Z 0000000140015288     bento_sdk:asset_database.obj
 0004:00000294       $pdata$??$_Allocate@U?$_Default_allocate_traits@$00@std@@@std@@YAPEAX_K0_K@Z 0000000140015294     bento_sdk:asset_database.obj
 0004:000002a0       $pdata$??$_Copy_nodes@U_Copy_tag@?$_Tree@V?$_Tmap_traits@V?$basic_string@DU?$char_traits@D@std@@V?$allocator@D@2@@std@@V?$basic_json@Vmap@std@@Vvector@2@V?$basic_string@DU?$char_traits@D@std@@V?$allocator@D@2@@2@_N_J_KNVallocator@2@Uadl_serializer@nlohmann@@@nlohmann@@U?$less@V?$basic_string@DU?$char_traits@D@std@@V?$allocator@D@2@@std@@@2@V?$allocator@U?$pair@$$CBV?$basic_string@DU?$char_traits@D@std@@V?$allocator@D@2@@std@@V?$basic_json@Vmap@std@@Vvector@2@V?$basic_string@DU?$char_traits@D@std@@V?$allocator@D@2@@2@_N_J_KNVallocator@2@Uadl_serializer@nlohmann@@@nlohmann@@@std@@@2@$0A@@std@@@std@@@?$_Tree@V?$_Tmap_traits@V?$basic_string@DU?$char_traits@D@std@@V?$allocator@D@2@@std@@V?$basic_json@Vmap@std@@Vvector@2@V?$basic_string@DU?$char_traits@D@std@@V?$allocator@D@2@@2@_N_J_KNVallocator@2@Uadl_serializer@nlohmann@@@nlohmann@@U?$less@V?$basic_string@DU?$char_traits@D@std@@V?$allocator@D@2@@std@@@2@V?$allocator@U?$pair@$$CBV?$basic_string@DU?$char_traits@D@std@@V?$allocator@D@2@@std@@V?$basic_json@Vmap@std@@Vvector@2@V?$basic_string@DU?$char_traits@D@std@@V?$allocator@D@2@@2@_N_J_KNVallocator@2@Uadl_serializer@nlohmann@@@nlohmann@@@std@@@2@$0A@@std@@@std@@IEAAPEAU?$_Tree_node@U?$pair@$$CBV?$basic_string@DU?$char_traits@D@std@@V?$allocator@D@2@@std@@V?$basic_json@Vmap@std@@Vvector@2@V?$basic_string@DU?$char_traits@D@std@@V?$allocator@D@2@@2@_N_J_KNVallocator@2@Uadl_serializer@nlohmann@@@nlohmann@@@std@@PEAX@1@PEAU21@0U_Copy_tag@01@@Z 00000001400152a0     bento_sdk:asset_database.obj
 0004:000002ac       $pdata$??$_Insert_at@AEAU?$pair@$$CBV?$basic_string@DU?$char_traits@D@std@@V?$allocator@D@2@@std@@V?$basic_json@Vmap@std@@Vvector@2@V?$basic_string@DU?$char_traits@D@std@@V?$allocator@D@2@@2@_N_J_KNVallocator@2@Uadl_serializer@nlohmann@@@nlohmann@@@std@@PEAU?$_Tree_node@U?$pair@$$CBV?$basic_string@DU?$char_traits@D@std@@V?$allocator@D@2@@std@@V?$basic_json@Vmap@std@@Vvector@2@V?$basic_string@DU?$char_traits@D@std@@V?$allocator@D@2@@2@_N_J_KNVallocator@2@Uadl_serializer@nlohmann@@@nlohmann@@@std@@PEAX@2@@?$_Tree@V?$_Tmap_traits@V?$basic_string@DU?$char_traits@D@std@@V?$allocator@D@2@@std@@V?$basic_json@Vmap@std@@Vvector@2@V?$basic_string@DU?$char_traits@D@std@@V?$allocator@D@2@@2@_N_J_KNVallocator@2@Uadl_serializer@nlohmann@@@nlohmann@@U?$less@V?$basic_string@DU?$char_traits@D@std@@V?$allocator@D@2@@std@@@2@V?$allocator@U?$pair@$$CBV?$basic_string@DU?$char_traits@D@std@@V?$allocator@D@2@@std@@V?$basic_json@Vmap@std@@Vvector@2@V?$basic_string@DU?$char_traits@D@std@@V?$allocator@D@2@@2@_N_J_KNVallocator@2@Uadl_serializer@nlohmann@@@nlohmann@@@std@@@2@$0A@@std@@@std@@IEAA?AV?$_Tree_iterator@V?$_Tree_val@U?$_Tree_simple_types@U?$pair@$$CBV?$basic_string@DU?$char_traits@D@std@@V?$allocator@D@2@@std@@V?$basic_json@Vmap@std@@Vvector@2@V?$basic_string@DU?$char_traits@D@std@@V?$allocator@D@2@@2@_N_J_KNVallocator@2@Uadl_serializer@nlohmann@@@nlohmann@@@std@@@std@@@std@@@1@_NPEAU?$_Tree_node@U?$pair@$$CBV?$basic_string@DU?$char_traits@D@std@@V?$allocator@D@2@@std@@V?$basic_json@Vmap@std@@Vvector@2@V?$basic_string@DU?$char_traits@D@std@@V?$allocator@D@2@@2@_N_J_KNVallocator@2@Uadl_serializer@nlohmann@@@nlohmann@@@std@@PEAX@1@AEAU?$pair@$$CBV?$basic_string@DU?$char_traits@D@std@@V?$allocator@D@2@@std@@V?$basic_json@Vmap@std@@Vvector@2@V?$basic_string@DU?$char_traits@D@std@@V?$allocator@D@2@@2@_N_J_KNVallocator@2@Uadl_serializer@nlohmann@@@nlohmann@@@1@1@Z 00000001400152ac     bento_sdk:asset_database.obj
 0004:000002b8       $pdata$0$??$_Insert_at@AEAU?$pair@$$CBV?$basic_string@DU?$char_traits@D@std@@V?$allocator@D@2@@std@@V?$basic_json@Vmap@std@@Vvector@2@V?$basic_string@DU?$char_traits@D@std@@V?$allocator@D@2@@2@_N_J_KNVallocator@2@Uadl_serializer@nlohmann@@@nlohmann@@@std@@PEAU?$_Tree_node@U?$pair@$$CBV?$basic_string@DU?$char_traits@D@std@@V?$allocator@D@2@@std@@V?$basic_json@Vmap@std@@Vvector@2@V?$basic_string@DU?$char_traits@D@std@@V?$allocator@D@2@@2@_N_J_KNVallocator@2@Uadl_serializer@nlohmann@@@nlohmann@@@std@@PEAX@2@@?$_Tree@V?$_Tmap_traits@V?$basic_string@DU?$char_traits@D@std@@V?$allocator@D@2@@std@@V?$basic_json@Vmap@std@@Vvector@2@V?$basic_string@DU?$char_traits@D@std@@V?$allocator@D@2@@2@_N_J_KNVallocator@2@Uadl_serializer@nlohmann@@@nlohmann@@U?$less@V?$basic_string@DU?$char_traits@D@std@@V?$allocator@D@2@@std@@@2@V?$allocator@U?$pair@$$CBV?$basic_string@DU?$char_traits@D@std@@V?$allocator@D@2@@std@@V?$basic_json@Vmap@std@@Vvector@2@V?$basic_string@DU?$char_traits@D@std@@V?$allocator@D@2@@2@_N_J_KNVallocator@2@Uadl_serializer@nlohmann@@@nlohmann@@@std@@@2@$0A@@std@@@std@@IEAA?AV?$_Tree_iterator@V?$_Tree_val@U?$_Tree_simple_types@U?$pair@$$CBV?$basic_string@DU?$char_traits@D@std@@V?$allocator@D@2@@std@@V?$basic_json@Vmap@std@@Vvector@2@V?$basic_string@DU?$char_traits@D@std@@V?$allocator@D@2@@2@_N_J_KNVallocator@2@Uadl_serializer@nlohmann@@@nlohmann@@@std@@@std@@@std@@@1@_NPEAU?$_Tree_node@U?$pair@$$CBV?$basic_string@DU?$char_traits@D@std@@V?$allocator@D@2@@std@@V?$basic_json@Vmap@std@@Vvector@2@V?$basic_string@DU?$char_traits@D@std@@V?$allocator@D@2@@2@_N_J_KNVallocator@2@Uadl_serializer@nlohmann@@@nlohmann@@@std@@PEAX@1@AEAU?$pair@$$CBV?$basic_string@DU?$char_traits@D@std@@V?$allocator@D@2@@std@@V?$basic_json@Vmap@std@@Vvector@2@V?$basic_string@DU?$char_traits@D@std@@V?$allocator@D@2@@2@_N_J_KNVallocator@2@Uadl_serializer@nlohmann@@@nlohmann@@@1@1@Z 00000001400152b8     bento_sdk:asset_database.obj
 0004:000002c4       $pdata$1$??$_Insert_at@AEAU?$pair@$$CBV?$basic_string@DU?$char_traits@D@std@@V?$allocator@D@2@@std@@V?$basic_json@Vmap@std@@Vvector@2@V?$basic_string@DU?$char_traits@D@std@@V?$allocator@D@2@@2@_N_J_KNVallocator@2@Uadl_serializer@nlohmann@@@nlohmann@@@std@@PEAU?$_Tree_node@U?$pair@$$CBV?$basic_string@DU?$char_traits@D@std@@V?$allocator@D@2@@std@@V?$basic_json@Vmap@std@@Vvector@2@V?$basic_string@DU?$char_traits@D@std@@V?$allocator@D@2@@2@_N_J_KNVallocator@2@Uadl_serializer@nlohmann@@@nlohmann@@@std@@PEAX@2@@?$_Tree@V?$_Tmap_traits@V?$basic_string@DU?$char_traits@D@std@@V?$allocator@D@2@@std@@V?$basic_json@Vmap@std@@Vvector@2@V?$basic_string@DU?$char_traits@D@std@@V?$allocator@D@2@@2@_N_J_KNVallocator@2@Uadl_serializer@nlohmann@@@nlohmann@@U?$less@V?$basic_string@DU?$char_traits@D@std@@V?$allocator@D@2@@std@@@2@V?$allocator@U?$pair@$$CBV?$basic_string@DU?$char_traits@D@std@@V?$allocator@D@2@@std@@V?$basic_json@Vmap@std@@Vvector@2@V?$basic_string@DU?$char_traits@D@std@@V?$allocator@D@2@@2@_N_J_KNVallocator@2@Uadl_serializer@nlohmann@@@nlohmann@@@std@@@2@$0A@@std@@@std@@IEAA?AV?$_Tree_iterator@V?$_Tree_val@U?$_Tree_simple_types@U?$pair@$$CBV?$basic_string@DU?$char_traits@D@std@@V?$allocator@D@2@@std@@V?$basic_json@Vmap@std@@Vvector@2@V?$basic_string@DU?$char_traits@D@std@@V?$allocator@D@2@@2@_N_J_KNVallocator@2@Uadl_serializer@nlohmann@@@nlohmann@@@std@@@std@@@std@@@1@_NPEAU?$_Tree_node@U?$pair@$$CBV?$basic_string@DU?$char_traits@D@std@@V?$allocator@D@2@@std@@V?$basic_json@Vmap@std@@Vvector@2@V?$basic_string@DU?$char_traits@D@std@@V?$allocator@D@2@@2@_N_J_KNVallocator@2@Uadl_serializer@nlohmann@@@nlohmann@@@std@@PEAX@1@AEAU?$pair@$$CBV?$basic_string@DU?$char_traits@D@std@@V?$allocator@D@2@@std@@V?$basic_json@Vmap@std@@Vvector@2@V?$basic_string@DU?$char_traits@D@std@@V?$allocator@D@2@@2@_N_J_KNVallocator@2@Uadl_serializer@nlohmann@@@nlohmann@@@1@1@Z 00000001400152c4     bento_sdk:asset_database.obj
 0004:000002d0       $pdata$??$_Insert_hint@AEAU?$pair@$$CBV?$basic_string@DU?$char_traits@D@std@@V?$allocator@D@2@@std@@V?$basic_json@Vmap@std@@Vvector@2@V?$basic_string@DU?$char_traits@D@std@@V?$allocator@D@2@@2@_N_J_KNVallocator@2@Uadl_serializer@nlohmann@@@nlohmann@@@std@@PEAU?$_Tree_node@U?$pair@$$CBV?$basic_string@DU?$char_traits@D@std@@V?$allocator@D@2@@std@@V?$basic_json@Vmap@std@@Vvector@2@V?$basic_string@DU?$char_traits@D@std@@V?$allocator@D@2@@2@_N_J_KNVallocator@2@Uadl_serializer@nlohmann@@@nlohmann@@@std@@PEAX@2@@?$_Tree@V?$_Tmap_traits@V?$basic_string@DU?$char_traits@D@std@@V?$allocator@D@2@@std@@V?$basic_json@Vmap@std@@Vvector@2@V?$basic_string@DU?$char_traits@D@std@@V?$allocator@D@2@@2@_N_J_KNVallocator@2@Uadl_serializer@nlohmann@@@nlohmann@@U?$less@V?$basic_string@DU?$char_traits@D@std@@V?$allocator@D@2@@std@@@2@V?$allocator@U?$pair@$$CBV?$basic_string@DU?$char_traits@D@std@@V?$allocator@D@2@@std@@V?$basic_json@Vmap@std@@Vvector@2@V?$basic_string@DU?$char_traits@D@std@@V?$allocator@D@2@@2@_N_J_KNVallocator@2@Uadl_serializer@nlohmann@@@nlohmann@@@std@@@2@$0A@@std@@@std@@IEAA?AV?$_Tree_iterator@V?$_Tree_val@U?$_Tree_simple_types@U?$pair@$$CBV?$basic_string@DU?$char_traits@D@std@@V?$allocator@D@2@@std@@V?$basic_json@Vmap@std@@Vvector@2@V?$basic_string@DU?$char_traits@D@std@@V?$allocator@D@2@@2@_N_J_KNVallocator@2@Uadl_serializer@nlohmann@@@nlohmann@@@std@@@std@@@std@@@1@V?$_Tree_const_iterator@V?$_Tree_val@U?$_Tree_simple_types@U?$pair@$$CBV?$basic_string@DU?$char_traits@D@std@@V?$allocator@D@2@@std@@V?$basic_json@Vmap@std@@Vvector@2@V?$basic_string@DU?$char_traits@D@std@@V?$allocator@D@2@@2@_N_J_KNVallocator@2@Uadl_serializer@nlohmann@@@nlohmann@@@std@@@std@@@std@@@1@AEAU?$pair@$$CBV?$basic_string@DU?$char_traits@D@std@@V?$allocator@D@2@@std@@V?$basic_json@Vmap@std@@Vvector@2@V?$basic_string@DU?$char_traits@D@std@@V?$allocator@D@2@@2@_N_J_KNVallocator@2@Uadl_serializer@nlohmann@@@nlohmann@@@1@PEAU?$_Tree_node@U?$pair@$$CBV?$basic_string@DU?$char_traits@D@std@@V?$allocator@D@2@@std@@V?$basic_json@Vmap@std@@Vvector@2@V?$basic_string@DU?$char_traits@D@std@@V?$allocator@D@2@@2@_N_J_KNVallocator@2@Uadl_serializer@nlohmann@@@nlohmann@@@std@@PEAX@1@@Z 00000001400152d0     bento_sdk:asset_database.obj
 0004:000002dc       $pdata$1$??$_Insert_hint@AEAU?$pair@$$CBV?$basic_string@DU?$char_traits@D@std@@V?$allocator@D@2@@std@@V?$basic_json@Vmap@std@@Vvector@2@V?$basic_string@DU?$char_traits@D@std@@V?$allocator@D@2@@2@_N_J_KNVallocator@2@Uadl_serializer@nlohmann@@@nlohmann@@@std@@PEAU?$_Tree_node@U?$pair@$$CBV?$basic_string@DU?$char_traits@D@std@@V?$allocator@D@2@@std@@V?$basic_json@Vmap@std@@Vvector@2@V?$basic_string@DU?$char_traits@D@std@@V?$allocator@D@2@@2@_N_J_KNVallocator@2@Uadl_serializer@nlohmann@@@nlohmann@@@std@@PEAX@2@@?$_Tree@V?$_Tmap_traits@V?$basic_string@DU?$char_traits@D@std@@V?$allocator@D@2@@std@@V?$basic_json@Vmap@std@@Vvector@2@V?$basic_string@DU?$char_traits@D@std@@V?$allocator@D@2@@2@_N_J_KNVallocator@2@Uadl_serializer@nlohmann@@@nlohmann@@U?$less@V?$basic_string@DU?$char_traits@D@std@@V?$allocator@D@2@@std@@@2@V?$allocator@U?$pair@$$CBV?$basic_string@DU?$char_traits@D@std@@V?$allocator@D@2@@std@@V?$basic_json@Vmap@std@@Vvector@2@V?$basic_string@DU?$char_traits@D@std@@V?$allocator@D@2@@2@_N_J_KNVallocator@2@Uadl_serializer@nlohmann@@@nlohmann@@@std@@@2@$0A@@std@@@std@@IEAA?AV?$_Tree_iterator@V?$_Tree_val@U?$_Tree_simple_types@U?$pair@$$CBV?$basic_string@DU?$char_traits@D@std@@V?$allocator@D@2@@std@@V?$basic_json@Vmap@std@@Vvector@2@V?$basic_string@DU?$char_traits@D@std@@V?$allocator@D@2@@2@_N_J_KNVallocator@2@Uadl_serializer@nlohmann@@@nlohmann@@@std@@@std@@@std@@@1@V?$_Tree_const_iterator@V?$_Tree_val@U?$_Tree_simple_types@U?$pair@$$CBV?$basic_string@DU?$char_traits@D@std@@V?$allocator@D@2@@std@@V?$basic_json@Vmap@std@@Vvector@2@V?$basic_string@DU?$char_traits@D@std@@V?$allocator@D@2@@2@_N_J_KNVallocator@2@Uadl_serializer@nlohmann@@@nlohmann@@@std@@@std@@@std@@@1@AEAU?$pair@$$CBV?$basic_string@DU?$char_traits@D@std@@V?$allocator@D@2@@std@@V?$basic_json@Vmap@std@@Vvector@2@V?$basic_string@DU?$char_traits@D@std@@V?$allocator@D@2@@2@_N_J_KNVallocator@2@Uadl_serializer@nlohmann@@@nlohmann@@@1@PEAU?$_Tree_node@U?$pair@$$CBV?$basic_string@DU?$char_traits@D@std@@V?$allocator@D@2@@std@@V?$basic_json@Vmap@std@@Vvector@2@V?$basic_string@DU?$char_traits@D@std@@V?$allocator@D@2@@2@_N_J_KNVallocator@2@Uadl_serializer@nlohmann@@@nlohmann@@@std@@PEAX@1@@Z 00000001400152dc     bento_sdk:asset_database.obj
 0004:000002e8       $pdata$2$??$_Insert_hint@AEAU?$pair@$$CBV?$basic_string@DU?$char_traits@D@std@@V?$allocator@D@2@@std@@V?$basic_json@Vmap@std@@Vvector@2@V?$basic_string@DU?$char_traits@D@std@@V?$allocator@D@2@@2@_N_J_KNVallocator@2@Uadl_serializer@nlohmann@@@nlohmann@@@std@@PEAU?$_Tree_node@U?$pair@$$CBV?$basic_string@DU?$char_traits@D@std@@V?$allocator@D@2@@std@@V?$basic_json@Vmap@std@@Vvector@2@V?$basic_string@DU?$char_traits@D@std@@V?$allocator@D@2@@2@_N_J_KNVallocator@2@Uadl_serializer@nlohmann@@@nlohmann@@@std@@PEAX@2@@?$_Tree@V?$_Tmap_traits@V?$basic_string@DU?$char_traits@D@std@@V?$allocator@D@2@@std@@V?$basic_json@Vmap@std@@Vvector@2@V?$basic_string@DU?$char_traits@D@std@@V?$allocator@D@2@@2@_N_J_KNVallocator@2@Uadl_serializer@nlohmann@@@nlohmann@@U?$less@V?$basic_string@DU?$char_traits@D@std@@V?$allocator@D@2@@std@@@2@V?$allocator@U?$pair@$$CBV?$basic_string@DU?$char_traits@D@std@@V?$allocator@D@2@@std@@V?$basic_json@Vmap@std@@Vvector@2@V?$basic_string@DU?$char_traits@D@std@@V?$allocator@D@2@@2@_N_J_KNVallocator@2@Uadl_serializer@nlohmann@@@nlohmann@@@std@@@2@$0A@@std@@@std@@IEAA?AV?$_Tree_iterator@V?$_Tree_val@U?$_Tree_simple_types@U?$pair@$$CBV?$basic_string@DU?$char_traits@D@std@@V?$allocator@D@2@@std@@V?$basic_json@Vmap@std@@Vvector@2@V?$basic_string@DU?$char_traits@D@std@@V?$allocator@D@2@@2@_N_J_KNVallocator@2@Uadl_serializer@nlohmann@@@nlohmann@@@std@@@std@@@std@@@1@V?$_Tree_const_iterator@V?$_Tree_val@U?$_Tree_simple_types@U?$pair@$$CBV?$basic_string@DU?$char_traits@D@std@@V?$allocator@D@2@@std@@V?$basic_json@Vmap@std@@Vvector@2@V?$basic_string@DU?$char_traits@D@std@@V?$allocator@D@2@@2@_N_J_KNVallocator@2@Uadl_serializer@nlohmann@@@nlohmann@@@std@@@std@@@std@@@1@AEAU?$pair@$$CBV?$basic_string@DU?$char_traits@D@std@@V?$allocator@D@2@@std@@V?$basic_json@Vmap@std@@Vvector@2@V?$basic_string@DU?$char_traits@D@std@@V?$allocator@D@2@@2@_N_J_KNVallocator@2@Uadl_serializer@nlohmann@@@nlohmann@@@1@PEAU?$_Tree_node@U?$pair@$$CBV?$basic_string@DU?$char_traits@D@std@@V?$allocator@D@2@@std@@V?$basic_json@Vmap@std@@Vvector@2@V?$basic_string@DU?$char_traits@D@std@@V?$allocator@D@2@@2@_N_J_KNVallocator@2@Uadl_serializer@nlohmann@@@nlohmann@@@std@@PEAX@1@@Z 00000001400152e8     bento_sdk:asset_database.obj
 0004:000002f4       $pdata$??$_Insert_nohint@AEAU?$pair@$$CBV?$basic_string@DU?$char_traits@D@std@@V?$allocator@D@2@@std@@V?$basic_json@Vmap@std@@Vvector@2@V?$basic_string@DU?$char_traits@D@std@@V?$allocator@D@2@@2@_N_J_KNVallocator@2@Uadl_serializer@nlohmann@@@nlohmann@@@std@@PEAU?$_Tree_node@U?$pair@$$CBV?$basic_string@DU?$char_traits@D@std@@V?$allocator@D@2@@std@@V?$basic_json@Vmap@std@@Vvector@2@V?$basic_string@DU?$char_traits@D@std@@V?$allocator@D@2@@2@_N_J_KNVallocator@2@Uadl_serializer@nlohmann@@@nlohmann@@@std@@PEAX@2@@?$_Tree@V?$_Tmap_traits@V?$basic_string@DU?$char_traits@D@std@@V?$allocator@D@2@@std@@V?$basic_json@Vmap@std@@Vvector@2@V?$basic_string@DU?$char_traits@D@std@@V?$allocator@D@2@@2@_N_J_KNVallocator@2@Uadl_serializer@nlohmann@@@nlohmann@@U?$less@V?$basic_string@DU?$char_traits@D@std@@V?$allocator@D@2@@std@@@2@V?$allocator@U?$pair@$$CBV?$basic_string@DU?$char_traits@D@std@@V?$allocator@D@2@@std@@V?$basic_json@Vmap@std@@Vvector@2@V?$basic_string@DU?$char_traits@D@std@@V?$allocator@D@2@@2@_N_J_KNVallocator@2@Uadl_serializer@nlohmann@@@nlohmann@@@std@@@2@$0A@@std@@@std@@IEAA?AU?$pair@V?$_Tree_iterator@V?$_Tree_val@U?$_Tree_simple_types@U?$pair@$$CBV?$basic_string@DU?$char_traits@D@std@@V?$allocator@D@2@@std@@V?$basic_json@Vmap@std@@Vvector@2@V?$basic_string@DU?$char_traits@D@std@@V?$allocator@D@2@@2@_N_J_KNVallocator@2@Uadl_serializer@nlohmann@@@nlohmann@@@std@@@std@@@std@@@std@@_N@1@_NAEAU?$pair@$$CBV?$basic_string@DU?$char_traits@D@std@@V?$allocator@D@2@@std@@V?$basic_json@Vmap@std@@Vvector@2@V?$basic_string@DU?$char_traits@D@std@@V?$allocator@D@2@@2@_N_J_KNVallocator@2@Uadl_serializer@nlohmann@@@nlohmann@@@1@PEAU?$_Tree_node@U?$pair@$$CBV?$basic_string@DU?$char_traits@D@std@@V?$allocator@D@2@@std@@V?$basic_json@Vmap@std@@Vvector@2@V?$basic_string@DU?$char_traits@D@std@@V?$allocator@D@2@@2@_N_J_KNVallocator@2@Uadl_serializer@nlohmann@@@nlohmann@@@std@@PEAX@1@@Z 00000001400152f4     bento_sdk:asset_database.obj
 0004:00000300       $pdata$??$_Reallocate_grow_by@V<lambda_f3a66ab6a0570788f31503db83886f49>@@_KPEBD_K@?$basic_string@DU?$char_traits@D@std@@V?$allocator@D@2@@std@@QEAAAEAV01@_KV<lambda_f3a66ab6a0570788f31503db83886f49>@@_KPEBD2@Z 0000000140015300     bento_sdk:asset_database.obj
 0004:0000030c       $pdata$3$??$_Reallocate_grow_by@V<lambda_f3a66ab6a0570788f31503db83886f49>@@_KPEBD_K@?$basic_string@DU?$char_traits@D@std@@V?$allocator@D@2@@std@@QEAAAEAV01@_KV<lambda_f3a66ab6a0570788f31503db83886f49>@@_KPEBD2@Z 000000014001530c     bento_sdk:asset_database.obj
 0004:00000318       $pdata$4$??$_Reallocate_grow_by@V<lambda_f3a66ab6a0570788f31503db83886f49>@@_KPEBD_K@?$basic_string@DU?$char_traits@D@std@@V?$allocator@D@2@@std@@QEAAAEAV01@_KV<lambda_f3a66ab6a0570788f31503db83886f49>@@_KPEBD2@Z 0000000140015318     bento_sdk:asset_database.obj
 0004:00000324       $pdata$??$compute_boundaries@N@dtoa_impl@detail@nlohmann@@YA?AUboundaries@012@N@Z 0000000140015324     bento_sdk:asset_database.obj
 0004:00000330       $pdata$??$construct@V?$basic_json@Vmap@std@@Vvector@2@V?$basic_string@DU?$char_traits@D@std@@V?$allocator@D@2@@2@_N_J_KNVallocator@2@Uadl_serializer@nlohmann@@@nlohmann@@@?$external_constructor@$02@detail@nlohmann@@SAXAEAV?$basic_json@Vmap@std@@Vvector@2@V?$basic_string@DU?$char_traits@D@std@@V?$allocator@D@2@@2@_N_J_KNVallocator@2@Uadl_serializer@nlohmann@@@2@$$QEAV?$basic_string@DU?$char_traits@D@std@@V?$allocator@D@2@@std@@@Z 0000000140015330     bento_sdk:asset_database.obj
 0004:0000033c       $pdata$??$create@V?$map@V?$basic_string@DU?$char_traits@D@std@@V?$allocator@D@2@@std@@V?$basic_json@Vmap@std@@Vvector@2@V?$basic_string@DU?$char_traits@D@std@@V?$allocator@D@2@@2@_N_J_KNVallocator@2@Uadl_serializer@nlohmann@@@nlohmann@@U?$less@V?$basic_string@DU?$char_traits@D@std@@V?$allocator@D@2@@std@@@2@V?$allocator@U?$pair@$$CBV?$basic_string@DU?$char_traits@D@std@@V?$allocator@D@2@@std@@V?$basic_json@Vmap@std@@Vvector@2@V?$basic_string@DU?$char_traits@D@std@@V?$allocator@D@2@@2@_N_J_KNVallocator@2@Uadl_serializer@nlohmann@@@nlohmann@@@std@@@2@@std@@$$V@?$basic_json@Vmap@std@@Vvector@2@V?$basic_string@DU?$char_traits@D@std@@V?$allocator@D@2@@2@_N_J_KNVallocator@2@Uadl_serializer@nlohmann@@@nlohmann@@CAPEAV?$map@V?$basic_string@DU?$char_traits@D@std@@V?$allocator@D@2@@std@@V?$basic_json@Vmap@std@@Vvector@2@V?$basic_string@DU?$char_traits@D@std@@V?$allocator@D@2@@2@_N_J_KNVallocator@2@Uadl_serializer@nlohmann@@@nlohmann@@U?$less@V?$basic_string@DU?$char_traits@D@std@@V?$allocator@D@2@@std@@@2@V?$allocator@U?$pair@$$CBV?$basic_string@DU?$char_traits@D@std@@V?$allocator@D@2@@std@@V?$basic_json@Vmap@std@@Vvector@2@V?$basic_string@DU?$char_traits@D@std@@V?$allocator@D@2@@2@_N_J_KNVallocator@2@Uadl_serializer@nlohmann@@@nlohmann@@@std@@@2@@std@@XZ 000000014001533c     bento_sdk:asset_database.obj
 0004:00000348       $pdata$??$emplace@V?$basic_string@DU?$char_traits@D@std@@V?$allocator@D@2@@std@@V?$basic_json@Vmap@std@@Vvector@2@V?$basic_string@DU?$char_traits@D@std@@V?$allocator@D@2@@2@_N_J_KNVallocator@2@Uadl_serializer@nlohmann@@@nlohmann@@@?$_Tree@V?$_Tmap_traits@V?$basic_string@DU?$char_traits@D@std@@V?$allocator@D@2@@std@@V?$basic_json@Vmap@std@@Vvector@2@V?$basic_string@DU?$char_traits@D@std@@V?$allocator@D@2@@2@_N_J_KNVallocator@2@Uadl_serializer@nlohmann@@@nlohmann@@U?$less@V?$basic_string@DU?$char_traits@D@std@@V?$allocator@D@2@@std@@@2@V?$allocator@U?$pair@$$CBV?$basic_string@DU?$char_traits@D@std@@V?$allocator@D@2@@std@@V?$basic_json@Vmap@std@@Vvector@2@V?$basic_string@DU?$char_traits@D@std@@V?$allocator@D@2@@2@_N_J_KNVallocator@2@Uadl_serializer@nlohmann@@@nlohmann@@@std@@@2@$0A@@std@@@std@@QEAA?AU?$pair@V?$_Tree_iterator@V?$_Tree_val@U?$_Tree_simple_types@U?$pair@$$CBV?$basic_string@DU?$char_traits@D@std@@V?$allocator@D@2@@std@@V?$basic_json@Vmap@std@@Vvector@2@V?$basic_string@DU?$char_traits@D@std@@V?$allocator@D@2@@2@_N_J_KNVallocator@2@Uadl_serializer@nlohmann@@@nlohmann@@@std@@@std@@@std@@@std@@_N@1@$$QEAV?$basic_string@DU?$char_traits@D@std@@V?$allocator@D@2@@1@$$QEAV?$basic_json@Vmap@std@@Vvector@2@V?$basic_string@DU?$char_traits@D@std@@V?$allocator@D@2@@2@_N_J_KNVallocator@2@Uadl_serializer@nlohmann@@@nlohmann@@@Z 0000000140015348     bento_sdk:asset_database.obj
 0004:00000354       $pdata$??$grisu2@N@dtoa_impl@detail@nlohmann@@YAXPEADAEAH1N@Z 0000000140015354     bento_sdk:asset_database.obj
 0004:00000360       $pdata$??$pack_vector_types@UTAsset@bento@@@bento@@YAXAEAV?$Vector@D@0@AEBV?$Vector@UTAsset@bento@@@0@@Z 0000000140015360     bento_sdk:asset_database.obj
 0004:0000036c       $pdata$0$??$pack_vector_types@UTAsset@bento@@@bento@@YAXAEAV?$Vector@D@0@AEBV?$Vector@UTAsset@bento@@@0@@Z 000000014001536c     bento_sdk:asset_database.obj
 0004:00000378       $pdata$1$??$pack_vector_types@UTAsset@bento@@@bento@@YAXAEAV?$Vector@D@0@AEBV?$Vector@UTAsset@bento@@@0@@Z 0000000140015378     bento_sdk:asset_database.obj
 0004:00000384       $pdata$2$??$pack_vector_types@UTAsset@bento@@@bento@@YAXAEAV?$Vector@D@0@AEBV?$Vector@UTAsset@bento@@@0@@Z 0000000140015384     bento_sdk:asset_database.obj
 0004:00000390       $pdata$3$??$pack_vector_types@UTAsset@bento@@@bento@@YAXAEAV?$Vector@D@0@AEBV?$Vector@UTAsset@bento@@@0@@Z 0000000140015390     bento_sdk:asset_database.obj
 0004:0000039c       $pdata$??$to_chars@N@detail@nlohmann@@YAPEADPEAD0N@Z 000000014001539c     bento_sdk:asset_database.obj
 0004:000003a8       $pdata$??$to_json@V?$basic_json@Vmap@std@@Vvector@2@V?$basic_string@DU?$char_traits@D@std@@V?$allocator@D@2@@2@_N_J_KNVallocator@2@Uadl_serializer@nlohmann@@@nlohmann@@$$BY04D$0A@@detail@nlohmann@@YAXAEAV?$basic_json@Vmap@std@@Vvector@2@V?$basic_string@DU?$char_traits@D@std@@V?$allocator@D@2@@2@_N_J_KNVallocator@2@Uadl_serializer@nlohmann@@@1@AEAY04$$CBD@Z 00000001400153a8     bento_sdk:asset_database.obj
 0004:000003b4       $pdata$??$to_json@V?$basic_json@Vmap@std@@Vvector@2@V?$basic_string@DU?$char_traits@D@std@@V?$allocator@D@2@@2@_N_J_KNVallocator@2@Uadl_serializer@nlohmann@@@nlohmann@@@detail@nlohmann@@YAXAEAV?$basic_json@Vmap@std@@Vvector@2@V?$basic_string@DU?$char_traits@D@std@@V?$allocator@D@2@@2@_N_J_KNVallocator@2@Uadl_serializer@nlohmann@@@1@$$QEAV?$basic_string@DU?$char_traits@D@std@@V?$allocator@D@2@@std@@@Z 00000001400153b4     bento_sdk:asset_database.obj
 0004:000003c0       $pdata$??$to_json@V?$basic_json@Vmap@std@@Vvector@2@V?$basic_string@DU?$char_traits@D@std@@V?$allocator@D@2@@2@_N_J_KNVallocator@2@Uadl_serializer@nlohmann@@@nlohmann@@PEBD$0A@@detail@nlohmann@@YAXAEAV?$basic_json@Vmap@std@@Vvector@2@V?$basic_string@DU?$char_traits@D@std@@V?$allocator@D@2@@2@_N_J_KNVallocator@2@Uadl_serializer@nlohmann@@@1@AEBQEBD@Z 00000001400153c0     bento_sdk:asset_database.obj
 0004:000003cc       $pdata$??$unpack_vector_types@UTAsset@bento@@@bento@@YAXAEAPEBDAEAV?$Vector@UTAsset@bento@@@0@@Z 00000001400153cc     bento_sdk:asset_database.obj
 0004:000003d8       $pdata$0$??$unpack_vector_types@UTAsset@bento@@@bento@@YAXAEAPEBDAEAV?$Vector@UTAsset@bento@@@0@@Z 00000001400153d8     bento_sdk:asset_database.obj
 0004:000003e4       $pdata$1$??$unpack_vector_types@UTAsset@bento@@@bento@@YAXAEAPEBDAEAV?$Vector@UTAsset@bento@@@0@@Z 00000001400153e4     bento_sdk:asset_database.obj
 0004:000003f0       $pdata$2$??$unpack_vector_types@UTAsset@bento@@@bento@@YAXAEAPEBDAEAV?$Vector@UTAsset@bento@@@0@@Z 00000001400153f0     bento_sdk:asset_database.obj
 0004:000003fc       $pdata$3$??$unpack_vector_types@UTAsset@bento@@@bento@@YAXAEAPEBDAEAV?$Vector@UTAsset@bento@@@0@@Z 00000001400153fc     bento_sdk:asset_database.obj
 0004:00000408       $pdata$??0?$basic_json@Vmap@std@@Vvector@2@V?$basic_string@DU?$char_traits@D@std@@V?$allocator@D@2@@2@_N_J_KNVallocator@2@Uadl_serializer@nlohmann@@@nlohmann@@QEAA@AEBV01@@Z 0000000140015408     bento_sdk:asset_database.obj
 0004:00000414       $pdata$??0?$basic_json@Vmap@std@@Vvector@2@V?$basic_string@DU?$char_traits@D@std@@V?$allocator@D@2@@2@_N_J_KNVallocator@2@Uadl_serializer@nlohmann@@@nlohmann@@QEAA@V?$initializer_list@V?$json_ref@V?$basic_json@Vmap@std@@Vvector@2@V?$basic_string@DU?$char_traits@D@std@@V?$allocator@D@2@@2@_N_J_KNVallocator@2@Uadl_serializer@nlohmann@@@nlohmann@@@detail@nlohmann@@@std@@_NW4value_t@detail@1@@Z 0000000140015414     bento_sdk:asset_database.obj
 0004:00000420       $pdata$??0?$basic_string@DU?$char_traits@D@std@@V?$allocator@D@2@@std@@QEAA@AEBV01@@Z 0000000140015420     bento_sdk:asset_database.obj
 0004:0000042c       $pdata$??0?$basic_string@DU?$char_traits@D@std@@V?$allocator@D@2@@std@@QEAA@QEBD@Z 000000014001542c     bento_sdk:asset_database.obj
 0004:00000438       $pdata$??0?$basic_string@DU?$char_traits@D@std@@V?$allocator@D@2@@std@@QEAA@_KD@Z 0000000140015438     bento_sdk:asset_database.obj
 0004:00000444       $pdata$??0json_value@?$basic_json@Vmap@std@@Vvector@2@V?$basic_string@DU?$char_traits@D@std@@V?$allocator@D@2@@2@_N_J_KNVallocator@2@Uadl_serializer@nlohmann@@@nlohmann@@QEAA@W4value_t@detail@2@@Z 0000000140015444     bento_sdk:asset_database.obj
 0004:00000450       $pdata$??1?$Vector@UTAsset@bento@@@bento@@QEAA@XZ 0000000140015450     bento_sdk:asset_database.obj
 0004:0000045c       $pdata$??1?$basic_stringbuf@DU?$char_traits@D@std@@V?$allocator@D@2@@std@@UEAA@XZ 000000014001545c     bento_sdk:asset_database.obj
 0004:00000468       $pdata$??1?$basic_stringstream@DU?$char_traits@D@std@@V?$allocator@D@2@@std@@UEAA@XZ 0000000140015468     bento_sdk:asset_database.obj
 0004:00000474       $pdata$??1?$output_adapter@DV?$basic_string@DU?$char_traits@D@std@@V?$allocator@D@2@@std@@@detail@nlohmann@@QEAA@XZ 0000000140015474     bento_sdk:asset_database.obj
 0004:00000480       $pdata$0$??1?$output_adapter@DV?$basic_string@DU?$char_traits@D@std@@V?$allocator@D@2@@std@@@detail@nlohmann@@QEAA@XZ 0000000140015480     bento_sdk:asset_database.obj
 0004:0000048c       $pdata$1$??1?$output_adapter@DV?$basic_string@DU?$char_traits@D@std@@V?$allocator@D@2@@std@@@detail@nlohmann@@QEAA@XZ 000000014001548c     bento_sdk:asset_database.obj
 0004:00000498       $pdata$??1?$serializer@V?$basic_json@Vmap@std@@Vvector@2@V?$basic_string@DU?$char_traits@D@std@@V?$allocator@D@2@@2@_N_J_KNVallocator@2@Uadl_serializer@nlohmann@@@nlohmann@@@detail@nlohmann@@QEAA@XZ 0000000140015498     bento_sdk:asset_database.obj
 0004:000004a4       $pdata$0$??1?$serializer@V?$basic_json@Vmap@std@@Vvector@2@V?$basic_string@DU?$char_traits@D@std@@V?$allocator@D@2@@2@_N_J_KNVallocator@2@Uadl_serializer@nlohmann@@@nlohmann@@@detail@nlohmann@@QEAA@XZ 00000001400154a4     bento_sdk:asset_database.obj
 0004:000004b0       $pdata$1$??1?$serializer@V?$basic_json@Vmap@std@@Vvector@2@V?$basic_string@DU?$char_traits@D@std@@V?$allocator@D@2@@2@_N_J_KNVallocator@2@Uadl_serializer@nlohmann@@@nlohmann@@@detail@nlohmann@@QEAA@XZ 00000001400154b0     bento_sdk:asset_database.obj
 0004:000004bc       $pdata$??1?$shared_ptr@U?$output_adapter_protocol@D@detail@nlohmann@@@std@@QEAA@XZ 00000001400154bc     bento_sdk:asset_database.obj
 0004:000004c8       $pdata$0$??1?$shared_ptr@U?$output_adapter_protocol@D@detail@nlohmann@@@std@@QEAA@XZ 00000001400154c8     bento_sdk:asset_database.obj
 0004:000004d4       $pdata$1$??1?$shared_ptr@U?$output_adapter_protocol@D@detail@nlohmann@@@std@@QEAA@XZ 00000001400154d4     bento_sdk:asset_database.obj
 0004:000004e0       $pdata$??1TAssetDatabase@bento@@QEAA@XZ 00000001400154e0     bento_sdk:asset_database.obj
 0004:000004ec       $pdata$??4?$Vector@D@bento@@QEAAXAEBV01@@Z 00000001400154ec     bento_sdk:asset_database.obj
 0004:000004f8       $pdata$??A?$basic_json@Vmap@std@@Vvector@2@V?$basic_string@DU?$char_traits@D@std@@V?$allocator@D@2@@2@_N_J_KNVallocator@2@Uadl_serializer@nlohmann@@@nlohmann@@QEAAAEAV01@AEBV?$basic_string@DU?$char_traits@D@std@@V?$allocator@D@2@@std@@@Z 00000001400154f8     bento_sdk:asset_database.obj
 0004:00000504       $pdata$??_D?$basic_stringstream@DU?$char_traits@D@std@@V?$allocator@D@2@@std@@QEAAXXZ 0000000140015504     bento_sdk:asset_database.obj
 0004:00000510       $pdata$??_G?$_Ref_count_obj@V?$output_string_adapter@DV?$basic_string@DU?$char_traits@D@std@@V?$allocator@D@2@@std@@@detail@nlohmann@@@std@@UEAAPEAXI@Z 0000000140015510     bento_sdk:asset_database.obj
 0004:0000051c       $pdata$??_G?$basic_stringbuf@DU?$char_traits@D@std@@V?$allocator@D@2@@std@@UEAAPEAXI@Z 000000014001551c     bento_sdk:asset_database.obj
 0004:00000528       $pdata$??_G?$basic_stringstream@DU?$char_traits@D@std@@V?$allocator@D@2@@std@@UEAAPEAXI@Z 0000000140015528     bento_sdk:asset_database.obj
 0004:00000534       $pdata$??_G?$output_adapter_protocol@D@detail@nlohmann@@UEAAPEAXI@Z 0000000140015534     bento_sdk:asset_database.obj
 0004:00000540       $pdata$??_G?$output_string_adapter@DV?$basic_string@DU?$char_traits@D@std@@V?$allocator@D@2@@std@@@detail@nlohmann@@UEAAPEAXI@Z 0000000140015540     bento_sdk:asset_database.obj
 0004:0000054c       $pdata$??_G_Ref_count_base@std@@UEAAPEAXI@Z 000000014001554c     bento_sdk:asset_database.obj
 0004:00000558       $pdata$??_Gexception@detail@nlohmann@@UEAAPEAXI@Z 0000000140015558     bento_sdk:asset_database.obj
 0004:00000564       $pdata$??_Gexception@stdext@@UEAAPEAXI@Z 0000000140015564     bento_sdk:asset_database.obj
 0004:00000570       $pdata$??_Gother_error@detail@nlohmann@@UEAAPEAXI@Z 0000000140015570     bento_sdk:asset_database.obj
 0004:0000057c       $pdata$??_Gruntime_error@std@@UEAAPEAXI@Z 000000014001557c     bento_sdk:asset_database.obj
 0004:00000588       $pdata$??_Gtype_error@detail@nlohmann@@UEAAPEAXI@Z 0000000140015588     bento_sdk:asset_database.obj
 0004:00000594       $pdata$?_Become_small@?$basic_string@DU?$char_traits@D@std@@V?$allocator@D@2@@std@@QEAAXXZ 0000000140015594     bento_sdk:asset_database.obj
 0004:000005a0       $pdata$?_Buy@?$vector@V?$basic_json@Vmap@std@@Vvector@2@V?$basic_string@DU?$char_traits@D@std@@V?$allocator@D@2@@2@_N_J_KNVallocator@2@Uadl_serializer@nlohmann@@@nlohmann@@V?$allocator@V?$basic_json@Vmap@std@@Vvector@2@V?$basic_string@DU?$char_traits@D@std@@V?$allocator@D@2@@2@_N_J_KNVallocator@2@Uadl_serializer@nlohmann@@@nlohmann@@@std@@@std@@AEAA_N_K@Z 00000001400155a0     bento_sdk:asset_database.obj
 0004:000005ac       $pdata$?_Destroy_if_node@?$_Tree@V?$_Tmap_traits@V?$basic_string@DU?$char_traits@D@std@@V?$allocator@D@2@@std@@V?$basic_json@Vmap@std@@Vvector@2@V?$basic_string@DU?$char_traits@D@std@@V?$allocator@D@2@@2@_N_J_KNVallocator@2@Uadl_serializer@nlohmann@@@nlohmann@@U?$less@V?$basic_string@DU?$char_traits@D@std@@V?$allocator@D@2@@std@@@2@V?$allocator@U?$pair@$$CBV?$basic_string@DU?$char_traits@D@std@@V?$allocator@D@2@@std@@V?$basic_json@Vmap@std@@Vvector@2@V?$basic_string@DU?$char_traits@D@std@@V?$allocator@D@2@@2@_N_J_KNVallocator@2@Uadl_serializer@nlohmann@@@nlohmann@@@std@@@2@$0A@@std@@@std@@IEAAXPEAU?$_Tree_node@U?$pair@$$CBV?$basic_string@DU?$char_traits@D@std@@V?$allocator@D@2@@std@@V?$basic_json@Vmap@std@@Vvector@2@V?$basic_string@DU?$char_traits@D@std@@V?$allocator@D@2@@2@_N_J_KNVallocator@2@Uadl_serializer@nlohmann@@@nlohmann@@@std@@PEAX@2@@Z 00000001400155ac     bento_sdk:asset_database.obj
 0004:000005b8       $pdata$?_Doraise@runtime_error@std@@MEBAXXZ 00000001400155b8     bento_sdk:asset_database.obj
 0004:000005c4       $pdata$?_Erase@?$_Tree@V?$_Tmap_traits@V?$basic_string@DU?$char_traits@D@std@@V?$allocator@D@2@@std@@V?$basic_json@Vmap@std@@Vvector@2@V?$basic_string@DU?$char_traits@D@std@@V?$allocator@D@2@@2@_N_J_KNVallocator@2@Uadl_serializer@nlohmann@@@nlohmann@@U?$less@V?$basic_string@DU?$char_traits@D@std@@V?$allocator@D@2@@std@@@2@V?$allocator@U?$pair@$$CBV?$basic_string@DU?$char_traits@D@std@@V?$allocator@D@2@@std@@V?$basic_json@Vmap@std@@Vvector@2@V?$basic_string@DU?$char_traits@D@std@@V?$allocator@D@2@@2@_N_J_KNVallocator@2@Uadl_serializer@nlohmann@@@nlohmann@@@std@@@2@$0A@@std@@@std@@IEAAXPEAU?$_Tree_node@U?$pair@$$CBV?$basic_string@DU?$char_traits@D@std@@V?$allocator@D@2@@std@@V?$basic_json@Vmap@std@@Vvector@2@V?$basic_string@DU?$char_traits@D@std@@V?$allocator@D@2@@2@_N_J_KNVallocator@2@Uadl_serializer@nlohmann@@@nlohmann@@@std@@PEAX@2@@Z 00000001400155c4     bento_sdk:asset_database.obj
 0004:000005d0       $pdata$0$?_Erase@?$_Tree@V?$_Tmap_traits@V?$basic_string@DU?$char_traits@D@std@@V?$allocator@D@2@@std@@V?$basic_json@Vmap@std@@Vvector@2@V?$basic_string@DU?$char_traits@D@std@@V?$allocator@D@2@@2@_N_J_KNVallocator@2@Uadl_serializer@nlohmann@@@nlohmann@@U?$less@V?$basic_string@DU?$char_traits@D@std@@V?$allocator@D@2@@std@@@2@V?$allocator@U?$pair@$$CBV?$basic_string@DU?$char_traits@D@std@@V?$allocator@D@2@@std@@V?$basic_json@Vmap@std@@Vvector@2@V?$basic_string@DU?$char_traits@D@std@@V?$allocator@D@2@@2@_N_J_KNVallocator@2@Uadl_serializer@nlohmann@@@nlohmann@@@std@@@2@$0A@@std@@@std@@IEAAXPEAU?$_Tree_node@U?$pair@$$CBV?$basic_string@DU?$char_traits@D@std@@V?$allocator@D@2@@std@@V?$basic_json@Vmap@std@@Vvector@2@V?$basic_string@DU?$char_traits@D@std@@V?$allocator@D@2@@2@_N_J_KNVallocator@2@Uadl_serializer@nlohmann@@@nlohmann@@@std@@PEAX@2@@Z 00000001400155d0     bento_sdk:asset_database.obj
 0004:000005dc       $pdata$1$?_Erase@?$_Tree@V?$_Tmap_traits@V?$basic_string@DU?$char_traits@D@std@@V?$allocator@D@2@@std@@V?$basic_json@Vmap@std@@Vvector@2@V?$basic_string@DU?$char_traits@D@std@@V?$allocator@D@2@@2@_N_J_KNVallocator@2@Uadl_serializer@nlohmann@@@nlohmann@@U?$less@V?$basic_string@DU?$char_traits@D@std@@V?$allocator@D@2@@std@@@2@V?$allocator@U?$pair@$$CBV?$basic_string@DU?$char_traits@D@std@@V?$allocator@D@2@@std@@V?$basic_json@Vmap@std@@Vvector@2@V?$basic_string@DU?$char_traits@D@std@@V?$allocator@D@2@@2@_N_J_KNVallocator@2@Uadl_serializer@nlohmann@@@nlohmann@@@std@@@2@$0A@@std@@@std@@IEAAXPEAU?$_Tree_node@U?$pair@$$CBV?$basic_string@DU?$char_traits@D@std@@V?$allocator@D@2@@std@@V?$basic_json@Vmap@std@@Vvector@2@V?$basic_string@DU?$char_traits@D@std@@V?$allocator@D@2@@2@_N_J_KNVallocator@2@Uadl_serializer@nlohmann@@@nlohmann@@@std@@PEAX@2@@Z 00000001400155dc     bento_sdk:asset_database.obj
 0004:000005e8       $pdata$?_Fail@?$_Default_allocate_traits@$00@std@@SAXXZ 00000001400155e8     bento_sdk:asset_database.obj
 0004:000005f4       $pdata$?_Tidy@?$vector@V?$basic_json@Vmap@std@@Vvector@2@V?$basic_string@DU?$char_traits@D@std@@V?$allocator@D@2@@2@_N_J_KNVallocator@2@Uadl_serializer@nlohmann@@@nlohmann@@V?$allocator@V?$basic_json@Vmap@std@@Vvector@2@V?$basic_string@DU?$char_traits@D@std@@V?$allocator@D@2@@2@_N_J_KNVallocator@2@Uadl_serializer@nlohmann@@@nlohmann@@@std@@@std@@AEAAXXZ 00000001400155f4     bento_sdk:asset_database.obj
 0004:00000600       $pdata$0$?_Tidy@?$vector@V?$basic_json@Vmap@std@@Vvector@2@V?$basic_string@DU?$char_traits@D@std@@V?$allocator@D@2@@2@_N_J_KNVallocator@2@Uadl_serializer@nlohmann@@@nlohmann@@V?$allocator@V?$basic_json@Vmap@std@@Vvector@2@V?$basic_string@DU?$char_traits@D@std@@V?$allocator@D@2@@2@_N_J_KNVallocator@2@Uadl_serializer@nlohmann@@@nlohmann@@@std@@@std@@AEAAXXZ 0000000140015600     bento_sdk:asset_database.obj
 0004:0000060c       $pdata$1$?_Tidy@?$vector@V?$basic_json@Vmap@std@@Vvector@2@V?$basic_string@DU?$char_traits@D@std@@V?$allocator@D@2@@2@_N_J_KNVallocator@2@Uadl_serializer@nlohmann@@@nlohmann@@V?$allocator@V?$basic_json@Vmap@std@@Vvector@2@V?$basic_string@DU?$char_traits@D@std@@V?$allocator@D@2@@2@_N_J_KNVallocator@2@Uadl_serializer@nlohmann@@@nlohmann@@@std@@@std@@AEAAXXZ 000000014001560c     bento_sdk:asset_database.obj
 0004:00000618       $pdata$?_Tidy_deallocate@?$basic_string@DU?$char_traits@D@std@@V?$allocator@D@2@@std@@QEAAXXZ 0000000140015618     bento_sdk:asset_database.obj
 0004:00000624       $pdata$?_Xlen@?$basic_string@DU?$char_traits@D@std@@V?$allocator@D@2@@std@@SAXXZ 0000000140015624     bento_sdk:asset_database.obj
 0004:00000630       $pdata$?_Xlength@?$vector@V?$basic_json@Vmap@std@@Vvector@2@V?$basic_string@DU?$char_traits@D@std@@V?$allocator@D@2@@2@_N_J_KNVallocator@2@Uadl_serializer@nlohmann@@@nlohmann@@V?$allocator@V?$basic_json@Vmap@std@@Vvector@2@V?$basic_string@DU?$char_traits@D@std@@V?$allocator@D@2@@2@_N_J_KNVallocator@2@Uadl_serializer@nlohmann@@@nlohmann@@@std@@@std@@CAXXZ 0000000140015630     bento_sdk:asset_database.obj
 0004:0000063c       $pdata$?_Xran@?$_String_val@U?$_Simple_types@D@std@@@std@@SAXXZ 000000014001563c     bento_sdk:asset_database.obj
 0004:00000648       $pdata$?append@?$basic_string@DU?$char_traits@D@std@@V?$allocator@D@2@@std@@QEAAAEAV12@QEBD_K@Z 0000000140015648     bento_sdk:asset_database.obj
 0004:00000654       $pdata$1$?append@?$basic_string@DU?$char_traits@D@std@@V?$allocator@D@2@@std@@QEAAAEAV12@QEBD_K@Z 0000000140015654     bento_sdk:asset_database.obj
 0004:00000660       $pdata$2$?append@?$basic_string@DU?$char_traits@D@std@@V?$allocator@D@2@@std@@QEAAAEAV12@QEBD_K@Z 0000000140015660     bento_sdk:asset_database.obj
 0004:0000066c       $pdata$?append@?$basic_string@DU?$char_traits@D@std@@V?$allocator@D@2@@std@@QEAAAEAV12@_KD@Z 000000014001566c     bento_sdk:asset_database.obj
 0004:00000678       $pdata$1$?append@?$basic_string@DU?$char_traits@D@std@@V?$allocator@D@2@@std@@QEAAAEAV12@_KD@Z 0000000140015678     bento_sdk:asset_database.obj
 0004:00000684       $pdata$2$?append@?$basic_string@DU?$char_traits@D@std@@V?$allocator@D@2@@std@@QEAAAEAV12@_KD@Z 0000000140015684     bento_sdk:asset_database.obj
 0004:00000690       $pdata$?assign@?$basic_string@DU?$char_traits@D@std@@V?$allocator@D@2@@std@@QEAAAEAV12@QEBD_K@Z 0000000140015690     bento_sdk:asset_database.obj
 0004:0000069c       $pdata$0$?assign@?$basic_string@DU?$char_traits@D@std@@V?$allocator@D@2@@std@@QEAAAEAV12@QEBD_K@Z 000000014001569c     bento_sdk:asset_database.obj
 0004:000006a8       $pdata$1$?assign@?$basic_string@DU?$char_traits@D@std@@V?$allocator@D@2@@std@@QEAAAEAV12@QEBD_K@Z 00000001400156a8     bento_sdk:asset_database.obj
 0004:000006b4       $pdata$2$?assign@?$basic_string@DU?$char_traits@D@std@@V?$allocator@D@2@@std@@QEAAAEAV12@QEBD_K@Z 00000001400156b4     bento_sdk:asset_database.obj
 0004:000006c0       $pdata$3$?assign@?$basic_string@DU?$char_traits@D@std@@V?$allocator@D@2@@std@@QEAAAEAV12@QEBD_K@Z 00000001400156c0     bento_sdk:asset_database.obj
 0004:000006cc       $pdata$?clear@?$Vector@UTAsset@bento@@@bento@@QEAAXXZ 00000001400156cc     bento_sdk:asset_database.obj
 0004:000006d8       $pdata$?compare@?$basic_string@DU?$char_traits@D@std@@V?$allocator@D@2@@std@@QEBAHAEBV12@@Z 00000001400156d8     bento_sdk:asset_database.obj
 0004:000006e4       $pdata$?create@other_error@detail@nlohmann@@SA?AV123@HAEBV?$basic_string@DU?$char_traits@D@std@@V?$allocator@D@2@@std@@@Z 00000001400156e4     bento_sdk:asset_database.obj
 0004:000006f0       $pdata$?create@type_error@detail@nlohmann@@SA?AV123@HAEBV?$basic_string@DU?$char_traits@D@std@@V?$allocator@D@2@@std@@@Z 00000001400156f0     bento_sdk:asset_database.obj
 0004:000006fc       $pdata$?destroy@json_value@?$basic_json@Vmap@std@@Vvector@2@V?$basic_string@DU?$char_traits@D@std@@V?$allocator@D@2@@2@_N_J_KNVallocator@2@Uadl_serializer@nlohmann@@@nlohmann@@QEAAXW4value_t@detail@3@@Z 00000001400156fc     bento_sdk:asset_database.obj
 0004:00000708       $pdata$?dump@?$basic_json@Vmap@std@@Vvector@2@V?$basic_string@DU?$char_traits@D@std@@V?$allocator@D@2@@2@_N_J_KNVallocator@2@Uadl_serializer@nlohmann@@@nlohmann@@QEBA?AV?$basic_string@DU?$char_traits@D@std@@V?$allocator@D@2@@std@@HD_N@Z 0000000140015708     bento_sdk:asset_database.obj
 0004:00000714       $pdata$?dump@?$serializer@V?$basic_json@Vmap@std@@Vvector@2@V?$basic_string@DU?$char_traits@D@std@@V?$allocator@D@2@@2@_N_J_KNVallocator@2@Uadl_serializer@nlohmann@@@nlohmann@@@detail@nlohmann@@QEAAXAEBV?$basic_json@Vmap@std@@Vvector@2@V?$basic_string@DU?$char_traits@D@std@@V?$allocator@D@2@@2@_N_J_KNVallocator@2@Uadl_serializer@nlohmann@@@3@_N1II@Z 0000000140015714     bento_sdk:asset_database.obj
 0004:00000720       $pdata$4$?dump@?$serializer@V?$basic_json@Vmap@std@@Vvector@2@V?$basic_string@DU?$char_traits@D@std@@V?$allocator@D@2@@2@_N_J_KNVallocator@2@Uadl_serializer@nlohmann@@@nlohmann@@@detail@nlohmann@@QEAAXAEBV?$basic_json@Vmap@std@@Vvector@2@V?$basic_string@DU?$char_traits@D@std@@V?$allocator@D@2@@2@_N_J_KNVallocator@2@Uadl_serializer@nlohmann@@@3@_N1II@Z 0000000140015720     bento_sdk:asset_database.obj
 0004:0000072c       $pdata$5$?dump@?$serializer@V?$basic_json@Vmap@std@@Vvector@2@V?$basic_string@DU?$char_traits@D@std@@V?$allocator@D@2@@2@_N_J_KNVallocator@2@Uadl_serializer@nlohmann@@@nlohmann@@@detail@nlohmann@@QEAAXAEBV?$basic_json@Vmap@std@@Vvector@2@V?$basic_string@DU?$char_traits@D@std@@V?$allocator@D@2@@2@_N_J_KNVallocator@2@Uadl_serializer@nlohmann@@@3@_N1II@Z 000000014001572c     bento_sdk:asset_database.obj
 0004:00000738       $pdata$6$?dump@?$serializer@V?$basic_json@Vmap@std@@Vvector@2@V?$basic_string@DU?$char_traits@D@std@@V?$allocator@D@2@@2@_N_J_KNVallocator@2@Uadl_serializer@nlohmann@@@nlohmann@@@detail@nlohmann@@QEAAXAEBV?$basic_json@Vmap@std@@Vvector@2@V?$basic_string@DU?$char_traits@D@std@@V?$allocator@D@2@@2@_N_J_KNVallocator@2@Uadl_serializer@nlohmann@@@3@_N1II@Z 0000000140015738     bento_sdk:asset_database.obj
 0004:00000744       $pdata$7$?dump@?$serializer@V?$basic_json@Vmap@std@@Vvector@2@V?$basic_string@DU?$char_traits@D@std@@V?$allocator@D@2@@2@_N_J_KNVallocator@2@Uadl_serializer@nlohmann@@@nlohmann@@@detail@nlohmann@@QEAAXAEBV?$basic_json@Vmap@std@@Vvector@2@V?$basic_string@DU?$char_traits@D@std@@V?$allocator@D@2@@2@_N_J_KNVallocator@2@Uadl_serializer@nlohmann@@@3@_N1II@Z 0000000140015744     bento_sdk:asset_database.obj
 0004:00000750       $pdata$8$?dump@?$serializer@V?$basic_json@Vmap@std@@Vvector@2@V?$basic_string@DU?$char_traits@D@std@@V?$allocator@D@2@@2@_N_J_KNVallocator@2@Uadl_serializer@nlohmann@@@nlohmann@@@detail@nlohmann@@QEAAXAEBV?$basic_json@Vmap@std@@Vvector@2@V?$basic_string@DU?$char_traits@D@std@@V?$allocator@D@2@@2@_N_J_KNVallocator@2@Uadl_serializer@nlohmann@@@3@_N1II@Z 0000000140015750     bento_sdk:asset_database.obj
 0004:0000075c       $pdata$9$?dump@?$serializer@V?$basic_json@Vmap@std@@Vvector@2@V?$basic_string@DU?$char_traits@D@std@@V?$allocator@D@2@@2@_N_J_KNVallocator@2@Uadl_serializer@nlohmann@@@nlohmann@@@detail@nlohmann@@QEAAXAEBV?$basic_json@Vmap@std@@Vvector@2@V?$basic_string@DU?$char_traits@D@std@@V?$allocator@D@2@@2@_N_J_KNVallocator@2@Uadl_serializer@nlohmann@@@3@_N1II@Z 000000014001575c     bento_sdk:asset_database.obj
 0004:00000768       $pdata$?dump_escaped@?$serializer@V?$basic_json@Vmap@std@@Vvector@2@V?$basic_string@DU?$char_traits@D@std@@V?$allocator@D@2@@2@_N_J_KNVallocator@2@Uadl_serializer@nlohmann@@@nlohmann@@@detail@nlohmann@@AEAAXAEBV?$basic_string@DU?$char_traits@D@std@@V?$allocator@D@2@@std@@_N@Z 0000000140015768     bento_sdk:asset_database.obj
 0004:00000774       $pdata$?format_buffer@dtoa_impl@detail@nlohmann@@YAPEADPEADHHHH@Z 0000000140015774     bento_sdk:asset_database.obj
 0004:00000780       $pdata$?free@?$Vector@UTAsset@bento@@@bento@@QEAAXXZ 0000000140015780     bento_sdk:asset_database.obj
 0004:0000078c       $pdata$?grisu2@dtoa_impl@detail@nlohmann@@YAXPEADAEAH1Udiyfp@123@22@Z 000000014001578c     bento_sdk:asset_database.obj
 0004:00000798       $pdata$?grisu2_digit_gen@dtoa_impl@detail@nlohmann@@YAXPEADAEAH1Udiyfp@123@22@Z 0000000140015798     bento_sdk:asset_database.obj
 0004:000007a4       $pdata$?insert@?$basic_string@DU?$char_traits@D@std@@V?$allocator@D@2@@std@@QEAAAEAV12@_KQEBD0@Z 00000001400157a4     bento_sdk:asset_database.obj
 0004:000007b0       $pdata$1$?insert@?$basic_string@DU?$char_traits@D@std@@V?$allocator@D@2@@std@@QEAAAEAV12@_KQEBD0@Z 00000001400157b0     bento_sdk:asset_database.obj
 0004:000007bc       $pdata$2$?insert@?$basic_string@DU?$char_traits@D@std@@V?$allocator@D@2@@std@@QEAAAEAV12@_KQEBD0@Z 00000001400157bc     bento_sdk:asset_database.obj
 0004:000007c8       $pdata$?insert_asset@TAssetDatabase@bento@@QEAAXPEBD0IAEAV?$Vector@D@2@@Z 00000001400157c8     bento_sdk:asset_database.obj
 0004:000007d4       $pdata$?name@exception@detail@nlohmann@@KA?AV?$basic_string@DU?$char_traits@D@std@@V?$allocator@D@2@@std@@AEBV45@H@Z 00000001400157d4     bento_sdk:asset_database.obj
 0004:000007e0       $pdata$?overflow@?$basic_stringbuf@DU?$char_traits@D@std@@V?$allocator@D@2@@std@@MEAAHH@Z 00000001400157e0     bento_sdk:asset_database.obj
 0004:000007ec       $pdata$0$?overflow@?$basic_stringbuf@DU?$char_traits@D@std@@V?$allocator@D@2@@std@@MEAAHH@Z 00000001400157ec     bento_sdk:asset_database.obj
 0004:000007f8       $pdata$5$?overflow@?$basic_stringbuf@DU?$char_traits@D@std@@V?$allocator@D@2@@std@@MEAAHH@Z 00000001400157f8     bento_sdk:asset_database.obj
 0004:00000804       $pdata$6$?overflow@?$basic_stringbuf@DU?$char_traits@D@std@@V?$allocator@D@2@@std@@MEAAHH@Z 0000000140015804     bento_sdk:asset_database.obj
 0004:00000810       $pdata$2$?overflow@?$basic_stringbuf@DU?$char_traits@D@std@@V?$allocator@D@2@@std@@MEAAHH@Z 0000000140015810     bento_sdk:asset_database.obj
 0004:0000081c       $pdata$8$?overflow@?$basic_stringbuf@DU?$char_traits@D@std@@V?$allocator@D@2@@std@@MEAAHH@Z 000000014001581c     bento_sdk:asset_database.obj
 0004:00000828       $pdata$?pack_type@bento@@YAXAEAV?$Vector@D@1@AEBUTAsset@1@@Z 0000000140015828     bento_sdk:asset_database.obj
 0004:00000834       $pdata$?pack_type@bento@@YAXAEAV?$Vector@D@1@AEBVTAssetDatabase@1@@Z 0000000140015834     bento_sdk:asset_database.obj
 0004:00000840       $pdata$0$?pack_type@bento@@YAXAEAV?$Vector@D@1@AEBVTAssetDatabase@1@@Z 0000000140015840     bento_sdk:asset_database.obj
 0004:0000084c       $pdata$1$?pack_type@bento@@YAXAEAV?$Vector@D@1@AEBVTAssetDatabase@1@@Z 000000014001584c     bento_sdk:asset_database.obj
 0004:00000858       $pdata$2$?pack_type@bento@@YAXAEAV?$Vector@D@1@AEBVTAssetDatabase@1@@Z 0000000140015858     bento_sdk:asset_database.obj
 0004:00000864       $pdata$3$?pack_type@bento@@YAXAEAV?$Vector@D@1@AEBVTAssetDatabase@1@@Z 0000000140015864     bento_sdk:asset_database.obj
 0004:00000870       $pdata$?push_back@?$basic_string@DU?$char_traits@D@std@@V?$allocator@D@2@@std@@QEAAXD@Z 0000000140015870     bento_sdk:asset_database.obj
 0004:0000087c       $pdata$0$?push_back@?$basic_string@DU?$char_traits@D@std@@V?$allocator@D@2@@std@@QEAAXD@Z 000000014001587c     bento_sdk:asset_database.obj
 0004:00000888       $pdata$2$?push_back@?$basic_string@DU?$char_traits@D@std@@V?$allocator@D@2@@std@@QEAAXD@Z 0000000140015888     bento_sdk:asset_database.obj
 0004:00000894       $pdata$3$?push_back@?$basic_string@DU?$char_traits@D@std@@V?$allocator@D@2@@std@@QEAAXD@Z 0000000140015894     bento_sdk:asset_database.obj
 0004:000008a0       $pdata$5$?push_back@?$basic_string@DU?$char_traits@D@std@@V?$allocator@D@2@@std@@QEAAXD@Z 00000001400158a0     bento_sdk:asset_database.obj
 0004:000008ac       $pdata$?request_asset@TAssetDatabase@bento@@QEBAPEBUTAsset@2@PEBD@Z 00000001400158ac     bento_sdk:asset_database.obj
 0004:000008b8       $pdata$?reserve@?$Vector@UTAsset@bento@@@bento@@QEAAXI@Z 00000001400158b8     bento_sdk:asset_database.obj
 0004:000008c4       $pdata$?resize@?$Vector@UTAsset@bento@@@bento@@QEAAXI@Z 00000001400158c4     bento_sdk:asset_database.obj
 0004:000008d0       $pdata$?seekoff@?$basic_stringbuf@DU?$char_traits@D@std@@V?$allocator@D@2@@std@@MEAA?AV?$fpos@U_Mbstatet@@@2@_JHH@Z 00000001400158d0     bento_sdk:asset_database.obj
 0004:000008dc       $pdata$?seekpos@?$basic_stringbuf@DU?$char_traits@D@std@@V?$allocator@D@2@@std@@MEAA?AV?$fpos@U_Mbstatet@@@2@V32@H@Z 00000001400158dc     bento_sdk:asset_database.obj
 0004:000008e8       $pdata$?str@?$basic_stringstream@DU?$char_traits@D@std@@V?$allocator@D@2@@std@@QEBA?AV?$basic_string@DU?$char_traits@D@std@@V?$allocator@D@2@@2@XZ 00000001400158e8     bento_sdk:asset_database.obj
 0004:000008f4       $pdata$?to_string@bento@@YAXAEAVDynamicString@1@AEBVTAssetDatabase@1@@Z 00000001400158f4     bento_sdk:asset_database.obj
 0004:00000900       $pdata$?to_string@std@@YA?AV?$basic_string@DU?$char_traits@D@std@@V?$allocator@D@2@@1@_K@Z 0000000140015900     bento_sdk:asset_database.obj
 0004:0000090c       $pdata$?unpack_type@bento@@YAXAEAPEBDAEAUTAsset@1@@Z 000000014001590c     bento_sdk:asset_database.obj
 0004:00000918       $pdata$?unpack_type@bento@@YA_NAEAPEBDAEAVTAssetDatabase@1@@Z 0000000140015918     bento_sdk:asset_database.obj
 0004:00000924       $pdata$0$?unpack_type@bento@@YA_NAEAPEBDAEAVTAssetDatabase@1@@Z 0000000140015924     bento_sdk:asset_database.obj
 0004:00000930       $pdata$1$?unpack_type@bento@@YA_NAEAPEBDAEAVTAssetDatabase@1@@Z 0000000140015930     bento_sdk:asset_database.obj
 0004:0000093c       $pdata$2$?unpack_type@bento@@YA_NAEAPEBDAEAVTAssetDatabase@1@@Z 000000014001593c     bento_sdk:asset_database.obj
 0004:00000948       $pdata$3$?unpack_type@bento@@YA_NAEAPEBDAEAVTAssetDatabase@1@@Z 0000000140015948     bento_sdk:asset_database.obj
 0004:00000954       $pdata$snprintf            0000000140015954     bento_sdk:asset_database.obj
 0004:00000960       $pdata$?add_extension@path@bento@@YA?AVDynamicString@2@PEBD0AEAVIAllocator@2@@Z 0000000140015960     bento_sdk:file_system.obj
 0004:0000096c       $pdata$?collect_files_with_extension@file_system@bento@@YAXPEBD0AEAV?$Vector@VDynamicString@bento@@@2@@Z 000000014001596c     bento_sdk:file_system.obj
 0004:00000978       $pdata$?directory@path@bento@@YA?AVDynamicString@2@PEBDAEAVIAllocator@2@@Z 0000000140015978     bento_sdk:file_system.obj
 0004:00000984       $pdata$?extension@path@bento@@YA?AVDynamicString@2@PEBDAEAVIAllocator@2@@Z 0000000140015984     bento_sdk:file_system.obj
 0004:00000990       $pdata$?filename@path@bento@@YA?AVDynamicString@2@PEBDAEAVIAllocator@2@@Z 0000000140015990     bento_sdk:file_system.obj
 0004:0000099c       $pdata$?internal_join@path@bento@@YA?AVDynamicString@2@PEBD0DAEAVIAllocator@2@@Z 000000014001599c     bento_sdk:file_system.obj
 0004:000009a8       $pdata$?join@path@bento@@YA?AVDynamicString@2@PEBD0AEAVIAllocator@2@@Z 00000001400159a8     bento_sdk:file_system.obj
 0004:000009b4       $pdata$?path_is_file@file_system@bento@@YA_NPEBD@Z 00000001400159b4     bento_sdk:file_system.obj
 0004:000009c0       $pdata$?push_back@?$Vector@D@bento@@QEAAXAEBD@Z 00000001400159c0     bento_sdk:file_system.obj
 0004:000009cc       $pdata$?push_back@?$Vector@VDynamicString@bento@@@bento@@QEAAXAEBVDynamicString@2@@Z 00000001400159cc     bento_sdk:file_system.obj
 0004:000009d8       $pdata$?read_file@bento@@YA_NPEBDAEAV?$Vector@D@1@W4FileType@1@@Z 00000001400159d8     bento_sdk:file_system.obj
 0004:000009e4       $pdata$0$?read_file@bento@@YA_NPEBDAEAV?$Vector@D@1@W4FileType@1@@Z 00000001400159e4     bento_sdk:file_system.obj
 0004:000009f0       $pdata$2$?read_file@bento@@YA_NPEBDAEAV?$Vector@D@1@W4FileType@1@@Z 00000001400159f0     bento_sdk:file_system.obj
 0004:000009fc       $pdata$3$?read_file@bento@@YA_NPEBDAEAV?$Vector@D@1@W4FileType@1@@Z 00000001400159fc     bento_sdk:file_system.obj
 0004:00000a08       $pdata$4$?read_file@bento@@YA_NPEBDAEAV?$Vector@D@1@W4FileType@1@@Z 0000000140015a08     bento_sdk:file_system.obj
 0004:00000a14       $pdata$?strip_extension@path@bento@@YA?AVDynamicString@2@PEBDAEAVIAllocator@2@@Z 0000000140015a14     bento_sdk:file_system.obj
 0004:00000a20       $pdata$?write_file@bento@@YA_NPEBD0IW4FileType@1@@Z 0000000140015a20     bento_sdk:file_system.obj
 0004:00000a2c       $pdata$2$?write_file@bento@@YA_NPEBD0IW4FileType@1@@Z 0000000140015a2c     bento_sdk:file_system.obj
 0004:00000a38       $pdata$4$?write_file@bento@@YA_NPEBD0IW4FileType@1@@Z 0000000140015a38     bento_sdk:file_system.obj
 0004:00000a44       $pdata$5$?write_file@bento@@YA_NPEBD0IW4FileType@1@@Z 0000000140015a44     bento_sdk:file_system.obj
 0004:00000a50       $pdata$_wclosedir          0000000140015a50     bento_sdk:file_system.obj
 0004:00000a5c       $pdata$dirent_first        0000000140015a5c     bento_sdk:file_system.obj
 0004:00000a68       $pdata$opendir             0000000140015a68     bento_sdk:file_system.obj
 0004:00000a74       $pdata$0$opendir           0000000140015a74     bento_sdk:file_system.obj
 0004:00000a80       $pdata$1$opendir           0000000140015a80     bento_sdk:file_system.obj
 0004:00000a8c       $pdata$2$opendir           0000000140015a8c     bento_sdk:file_system.obj
 0004:00000a98       $pdata$3$opendir           0000000140015a98     bento_sdk:file_system.obj
 0004:00000aa4       $pdata$4$opendir           0000000140015aa4     bento_sdk:file_system.obj
 0004:00000ab0       $pdata$5$opendir           0000000140015ab0     bento_sdk:file_system.obj
 0004:00000abc       $pdata$?pack_buffer@bento@@YAXAEAV?$Vector@D@1@IPEBD@Z 0000000140015abc     bento_sdk:stream.obj
 0004:00000ac8       $pdata$1$?pack_buffer@bento@@YAXAEAV?$Vector@D@1@IPEBD@Z 0000000140015ac8     bento_sdk:stream.obj
 0004:00000ad4       $pdata$2$?pack_buffer@bento@@YAXAEAV?$Vector@D@1@IPEBD@Z 0000000140015ad4     bento_sdk:stream.obj
 0004:00000ae0       $pdata$3$?pack_buffer@bento@@YAXAEAV?$Vector@D@1@IPEBD@Z 0000000140015ae0     bento_sdk:stream.obj
 0004:00000aec       $pdata$4$?pack_buffer@bento@@YAXAEAV?$Vector@D@1@IPEBD@Z 0000000140015aec     bento_sdk:stream.obj
 0004:00000af8       $pdata$?unpack_buffer@bento@@YAXAEAPEBDIPEAD@Z 0000000140015af8     bento_sdk:stream.obj
 0004:00000b04       $pdata$0$?unpack_buffer@bento@@YAXAEAPEBDIPEAD@Z 0000000140015b04     bento_sdk:stream.obj
 0004:00000b10       $pdata$1$?unpack_buffer@bento@@YAXAEAPEBDIPEAD@Z 0000000140015b10     bento_sdk:stream.obj
 0004:00000b1c       $pdata$??0DiskSerializer@bento@@QEAA@AEAVIAllocator@1@PEBD@Z 0000000140015b1c     bento_sdk:disk_serializer.obj
 0004:00000b28       $pdata$?internal_read_buffer@DiskSerializer@bento@@AEAA_NAEAV?$Vector@D@2@PEBD1@Z 0000000140015b28     bento_sdk:disk_serializer.obj
 0004:00000b34       $pdata$?internal_read_string@DiskSerializer@bento@@AEAA_NAEAVDynamicString@2@PEBD1@Z 0000000140015b34     bento_sdk:disk_serializer.obj
 0004:00000b40       $pdata$?internal_write_buffer@DiskSerializer@bento@@AEAA_NAEBV?$Vector@D@2@PEBD1@Z 0000000140015b40     bento_sdk:disk_serializer.obj
 0004:00000b4c       $pdata$?internal_write_string@DiskSerializer@bento@@AEAA_NAEBVDynamicString@2@PEBD1@Z 0000000140015b4c     bento_sdk:disk_serializer.obj
 0004:00000b58       $pdata$??0SystemAllocator@bento@@QEAA@XZ 0000000140015b58     bento_sdk:system_allocator.obj
 0004:00000b64       $pdata$??_GSystemAllocator@bento@@UEAAPEAXI@Z 0000000140015b64     bento_sdk:system_allocator.obj
 0004:00000b70       $pdata$?reallocate@SystemAllocator@bento@@UEAAPEAXPEAX_K11@Z 0000000140015b70     bento_sdk:system_allocator.obj
 0004:00000b7c       $pdata$?murmur_hash_64@bento@@YA_KPEBXII@Z 0000000140015b7c     bento_sdk:hash.obj
 0004:00000b88       $pdata$??$?6U?$char_traits@D@std@@@std@@YAAEAV?$basic_ostream@DU?$char_traits@D@std@@@0@AEAV10@PEBD@Z 0000000140015b88     bento_sdk:system_logger.obj
 0004:00000b94       $pdata$??1_Sentry_base@?$basic_ostream@DU?$char_traits@D@std@@@std@@QEAA@XZ 0000000140015b94     bento_sdk:system_logger.obj
 0004:00000ba0       $pdata$??1sentry@?$basic_ostream@DU?$char_traits@D@std@@@std@@QEAA@XZ 0000000140015ba0     bento_sdk:system_logger.obj
 0004:00000bac       $pdata$??_GILogger@bento@@UEAAPEAXI@Z 0000000140015bac     bento_sdk:system_logger.obj
 0004:00000bb8       $pdata$??_GSystemLogger@bento@@UEAAPEAXI@Z 0000000140015bb8     bento_sdk:system_logger.obj
 0004:00000bc4       $pdata$?log@SystemLogger@bento@@UEAAXW4Type@LogLevel@2@PEBD1@Z 0000000140015bc4     bento_sdk:system_logger.obj
 0004:00000bd0       $pdata$??_GIAllocator@bento@@UEAAPEAXI@Z 0000000140015bd0     bento_sdk:allocator.obj
 0004:00000bdc       $pdata$?pre_c_initialization@@YAHXZ 0000000140015bdc     MSVCRT:exe_main.obj
 0004:00000be8       $pdata$?post_pgo_initialization@@YAHXZ 0000000140015be8     MSVCRT:exe_main.obj
 0004:00000bf4       $pdata$?pre_cpp_initialization@@YAXXZ 0000000140015bf4     MSVCRT:exe_main.obj
 0004:00000c00       $pdata$?__scrt_common_main@@YAHXZ 0000000140015c00     MSVCRT:exe_main.obj
 0004:00000c0c       $pdata$?__scrt_common_main_seh@@YAHXZ 0000000140015c0c     MSVCRT:exe_main.obj
 0004:00000c18       $pdata$?configure_argv@__scrt_narrow_argv_policy@@SAHXZ 0000000140015c18     MSVCRT:exe_main.obj
 0004:00000c24       $pdata$?invoke_main@@YAHXZ 0000000140015c24     MSVCRT:exe_main.obj
 0004:00000c30       $pdata$?set_commode@__scrt_file_policy@@SAXXZ 0000000140015c30     MSVCRT:exe_main.obj
 0004:00000c3c       $pdata$?set_fmode@__scrt_file_policy@@SAXXZ 0000000140015c3c     MSVCRT:exe_main.obj
 0004:00000c48       $pdata$mainCRTStartup      0000000140015c48     MSVCRT:exe_main.obj
 0004:00000c54       $pdata$__GSHandlerCheck    0000000140015c54     MSVCRT:_gshandler_.obj
 0004:00000c60       $pdata$__GSHandlerCheckCommon 0000000140015c60     MSVCRT:_gshandler_.obj
 0004:00000c78       $pdata$__scrt_acquire_startup_lock 0000000140015c78     MSVCRT:utility.obj
 0004:00000c84       $pdata$__scrt_dllmain_after_initialize_c 0000000140015c84     MSVCRT:utility.obj
 0004:00000c90       $pdata$__scrt_dllmain_before_initialize_c 0000000140015c90     MSVCRT:utility.obj
 0004:00000c9c       $pdata$__scrt_dllmain_crt_thread_attach 0000000140015c9c     MSVCRT:utility.obj
 0004:00000ca8       $pdata$__scrt_dllmain_crt_thread_detach 0000000140015ca8     MSVCRT:utility.obj
 0004:00000cb4       $pdata$__scrt_dllmain_exception_filter 0000000140015cb4     MSVCRT:utility.obj
 0004:00000cc0       $pdata$__scrt_dllmain_uninitialize_c 0000000140015cc0     MSVCRT:utility.obj
 0004:00000ccc       $pdata$__scrt_dllmain_uninitialize_critical 0000000140015ccc     MSVCRT:utility.obj
 0004:00000cd8       $pdata$__scrt_initialize_crt 0000000140015cd8     MSVCRT:utility.obj
 0004:00000ce4       $pdata$__scrt_initialize_onexit_tables 0000000140015ce4     MSVCRT:utility.obj
 0004:00000cf0       $pdata$__scrt_is_nonwritable_in_current_image 0000000140015cf0     MSVCRT:utility.obj
 0004:00000cfc       $pdata$__scrt_release_startup_lock 0000000140015cfc     MSVCRT:utility.obj
 0004:00000d08       $pdata$__scrt_uninitialize_crt 0000000140015d08     MSVCRT:utility.obj
 0004:00000d14       $pdata$_onexit             0000000140015d14     MSVCRT:utility.obj
 0004:00000d20       $pdata$atexit              0000000140015d20     MSVCRT:utility.obj
 0004:00000d2c       $pdata$??_M@YAXPEAX_K1P6AX0@Z@Z 0000000140015d2c     MSVCRT:ehvecdtr.obj
 0004:00000d38       $pdata$?ArrayUnwindFilter@@YAHPEAU_EXCEPTION_POINTERS@@@Z 0000000140015d38     MSVCRT:ehvecdtr.obj
 0004:00000d44       $pdata$?__ArrayUnwind@@YAXPEAX_K1P6AX0@Z@Z 0000000140015d44     MSVCRT:ehvecdtr.obj
 0004:00000d50       $pdata$??2@YAPEAX_K@Z      0000000140015d50     MSVCRT:new_scalar.obj
 0004:00000d5c       $pdata$__GSHandlerCheck_EH 0000000140015d5c     MSVCRT:gshandlereh.obj
 0004:00000d68       $pdata$??_Gtype_info@@UEAAPEAXI@Z 0000000140015d68     MSVCRT:std_type_info_static.obj
 0004:00000d74       $pdata$__isa_available_init 0000000140015d74     MSVCRT:_cpu_disp_.obj
 0004:00000d80       $pdata$__get_entropy       0000000140015d80     MSVCRT:gs_support.obj
 0004:00000d8c       $pdata$__security_init_cookie 0000000140015d8c     MSVCRT:gs_support.obj
 0004:00000d98       $pdata$__scrt_initialize_default_local_stdio_options 0000000140015d98     MSVCRT:default_local_stdio_options.obj
 0004:00000da4       $pdata$__scrt_fastfail     0000000140015da4     MSVCRT:utility_desktop.obj
 0004:00000db0       $pdata$__scrt_get_show_window_mode 0000000140015db0     MSVCRT:utility_desktop.obj
 0004:00000dbc       $pdata$__scrt_is_managed_app 0000000140015dbc     MSVCRT:utility_desktop.obj
 0004:00000dc8       $pdata$__scrt_unhandled_exception_filter 0000000140015dc8     MSVCRT:utility_desktop.obj
 0004:00000dd4       $pdata$_RTC_Initialize     0000000140015dd4     MSVCRT:_initsect_.obj
 0004:00000de0       $pdata$_RTC_Terminate      0000000140015de0     MSVCRT:_initsect_.obj
 0004:00000dec       $pdata$__raise_securityfailure 0000000140015dec     MSVCRT:gs_report.obj
 0004:00000df8       $pdata$__report_gsfailure  0000000140015df8     MSVCRT:gs_report.obj
 0004:00000e04       $pdata$__report_rangecheckfailure 0000000140015e04     MSVCRT:gs_report.obj
 0004:00000e10       $pdata$__report_securityfailure 0000000140015e10     MSVCRT:gs_report.obj
 0004:00000e1c       $pdata$__report_securityfailureEx 0000000140015e1c     MSVCRT:gs_report.obj
 0004:00000e28       $pdata$capture_current_context 0000000140015e28     MSVCRT:gs_report.obj
 0004:00000e34       $pdata$capture_previous_context 0000000140015e34     MSVCRT:gs_report.obj
 0004:00000e40       $pdata$??0bad_alloc@std@@QEAA@AEBV01@@Z 0000000140015e40     MSVCRT:throw_bad_alloc.obj
 0004:00000e4c       $pdata$??0bad_array_new_length@std@@QEAA@AEBV01@@Z 0000000140015e4c     MSVCRT:throw_bad_alloc.obj
 0004:00000e58       $pdata$??0exception@std@@QEAA@AEBV01@@Z 0000000140015e58     MSVCRT:throw_bad_alloc.obj
 0004:00000e64       $pdata$??_Gbad_alloc@std@@UEAAPEAXI@Z 0000000140015e64     MSVCRT:throw_bad_alloc.obj
 0004:00000e70       $pdata$??_Gbad_array_new_length@std@@UEAAPEAXI@Z 0000000140015e70     MSVCRT:throw_bad_alloc.obj
 0004:00000e7c       $pdata$??_Gexception@std@@UEAAPEAXI@Z 0000000140015e7c     MSVCRT:throw_bad_alloc.obj
 0004:00000e88       $pdata$?__scrt_throw_std_bad_alloc@@YAXXZ 0000000140015e88     MSVCRT:throw_bad_alloc.obj
 0004:00000e94       $pdata$?__scrt_throw_std_bad_array_new_length@@YAXXZ 0000000140015e94     MSVCRT:throw_bad_alloc.obj
 0004:00000edc       $pdata$?dtor$6@?0??resize@?$Vector@VDynamicString@bento@@@bento@@QEAAXI@Z@4HA 0000000140015edc     testCompiler.obj
 0004:00000ee8       $pdata$?dtor$8@?0??resize@?$Vector@VDynamicString@bento@@@bento@@QEAAXI@Z@4HA 0000000140015ee8     testCompiler.obj
 0004:00000ef4       $pdata$?dtor$0@?0???$?HDU?$char_traits@D@std@@V?$allocator@D@1@@std@@YA?AV?$basic_string@DU?$char_traits@D@std@@V?$allocator@D@2@@0@QEBDAEBV10@@Z@4HA 0000000140015ef4     bento_sdk:asset_database.obj
 0004:00000f00       $pdata$?dtor$30@?0???$_Copy_nodes@U_Copy_tag@?$_Tree@V?$_Tmap_traits@V?$basic_string@DU?$char_traits@D@std@@V?$allocator@D@2@@std@@V?$basic_json@Vmap@std@@Vvector@2@V?$basic_string@DU?$char_traits@D@std@@V?$allocator@D@2@@2@_N_J_KNVallocator@2@Uadl_serializer@nlohmann@@@nlohmann@@U?$less@V?$basic_string@DU?$char_traits@D@std@@V?$allocator@D@2@@std@@@2@V?$allocator@U?$pair@$$CBV?$basic_string@DU?$char_traits@D@std@@V?$allocator@D@2@@std@@V?$basic_json@Vmap@std@@Vvector@2@V?$basic_string@DU?$char_traits@D@std@@V?$allocator@D@2@@2@_N_J_KNVallocator@2@Uadl_serializer@nlohmann@@@nlohmann@@@std@@@2@$0A@@std@@@std@@@?$_Tree@V?$_Tmap_traits@V?$basic_string@DU?$char_traits@D@std@@V?$allocator@D@2@@std@@V?$basic_json@Vmap@std@@Vvector@2@V?$basic_string@DU?$char_traits@D@std@@V?$allocator@D@2@@2@_N_J_KNVallocator@2@Uadl_serializer@nlohmann@@@nlohmann@@U?$less@V?$basic_string@DU?$char_traits@D@std@@V?$allocator@D@2@@std@@@2@V?$allocator@U?$pair@$$CBV?$basic_string@DU?$char_traits@D@std@@V?$allocator@D@2@@std@@V?$basic_json@Vmap@std@@Vvector@2@V?$basic_string@DU?$char_traits@D@std@@V?$allocator@D@2@@2@_N_J_KNVallocator@2@Uadl_serializer@nlohmann@@@nlohmann@@@std@@@2@$0A@@std@@@std@@IEAAPEAU?$_Tree_node@U?$pair@$$CBV?$basic_string@DU?$char_traits@D@std@@V?$allocator@D@2@@std@@V?$basic_json@Vmap@std@@Vvector@2@V?$basic_string@DU?$char_traits@D@std@@V?$allocator@D@2@@2@_N_J_KNVallocator@2@Uadl_serializer@nlohmann@@@nlohmann@@@std@@PEAX@1@PEAU21@0U_Copy_tag@01@@Z@4HA 0000000140015f00     bento_sdk:asset_database.obj
 0004:00000f0c       $pdata$?dtor$9@?0???$create@V?$map@V?$basic_string@DU?$char_traits@D@std@@V?$allocator@D@2@@std@@V?$basic_json@Vmap@std@@Vvector@2@V?$basic_string@DU?$char_traits@D@std@@V?$allocator@D@2@@2@_N_J_KNVallocator@2@Uadl_serializer@nlohmann@@@nlohmann@@U?$less@V?$basic_string@DU?$char_traits@D@std@@V?$allocator@D@2@@std@@@2@V?$allocator@U?$pair@$$CBV?$basic_string@DU?$char_traits@D@std@@V?$allocator@D@2@@std@@V?$basic_json@Vmap@std@@Vvector@2@V?$basic_string@DU?$char_traits@D@std@@V?$allocator@D@2@@2@_N_J_KNVallocator@2@Uadl_serializer@nlohmann@@@nlohmann@@@std@@@2@@std@@$$V@?$basic_json@Vmap@std@@Vvector@2@V?$basic_string@DU?$char_traits@D@std@@V?$allocator@D@2@@2@_N_J_KNVallocator@2@Uadl_serializer@nlohmann@@@nlohmann@@CAPEAV?$map@V?$basic_string@DU?$char_traits@D@std@@V?$allocator@D@2@@std@@V?$basic_json@Vmap@std@@Vvector@2@V?$basic_string@DU?$char_traits@D@std@@V?$allocator@D@2@@2@_N_J_KNVallocator@2@Uadl_serializer@nlohmann@@@nlohmann@@U?$less@V?$basic_string@DU?$char_traits@D@std@@V?$allocator@D@2@@std@@@2@V?$allocator@U?$pair@$$CBV?$basic_string@DU?$char_traits@D@std@@V?$allocator@D@2@@std@@V?$basic_json@Vmap@std@@Vvector@2@V?$basic_string@DU?$char_traits@D@std@@V?$allocator@D@2@@2@_N_J_KNVallocator@2@Uadl_serializer@nlohmann@@@nlohmann@@@std@@@2@@std@@XZ@4HA 0000000140015f0c     bento_sdk:asset_database.obj
 0004:00000f18       $pdata$?dtor$11@?0???0?$basic_json@Vmap@std@@Vvector@2@V?$basic_string@DU?$char_traits@D@std@@V?$allocator@D@2@@2@_N_J_KNVallocator@2@Uadl_serializer@nlohmann@@@nlohmann@@QEAA@AEBV01@@Z@4HA 0000000140015f18     bento_sdk:asset_database.obj
 0004:00000f24       $pdata$?dtor$231@?0???0?$basic_json@Vmap@std@@Vvector@2@V?$basic_string@DU?$char_traits@D@std@@V?$allocator@D@2@@2@_N_J_KNVallocator@2@Uadl_serializer@nlohmann@@@nlohmann@@QEAA@AEBV01@@Z@4HA 0000000140015f24     bento_sdk:asset_database.obj
 0004:00000f30       $pdata$?dtor$256@?0???0?$basic_json@Vmap@std@@Vvector@2@V?$basic_string@DU?$char_traits@D@std@@V?$allocator@D@2@@2@_N_J_KNVallocator@2@Uadl_serializer@nlohmann@@@nlohmann@@QEAA@AEBV01@@Z@4HA 0000000140015f30     bento_sdk:asset_database.obj
 0004:00000f3c       $pdata$?dtor$289@?0???0?$basic_json@Vmap@std@@Vvector@2@V?$basic_string@DU?$char_traits@D@std@@V?$allocator@D@2@@2@_N_J_KNVallocator@2@Uadl_serializer@nlohmann@@@nlohmann@@QEAA@AEBV01@@Z@4HA 0000000140015f3c     bento_sdk:asset_database.obj
 0004:00000f48       $pdata$?dtor$99@?0???0?$basic_json@Vmap@std@@Vvector@2@V?$basic_string@DU?$char_traits@D@std@@V?$allocator@D@2@@2@_N_J_KNVallocator@2@Uadl_serializer@nlohmann@@@nlohmann@@QEAA@V?$initializer_list@V?$json_ref@V?$basic_json@Vmap@std@@Vvector@2@V?$basic_string@DU?$char_traits@D@std@@V?$allocator@D@2@@2@_N_J_KNVallocator@2@Uadl_serializer@nlohmann@@@nlohmann@@@detail@nlohmann@@@std@@_NW4value_t@detail@1@@Z@4HA 0000000140015f48     bento_sdk:asset_database.obj
 0004:00000f54       $pdata$?dtor$143@?0???0?$basic_json@Vmap@std@@Vvector@2@V?$basic_string@DU?$char_traits@D@std@@V?$allocator@D@2@@2@_N_J_KNVallocator@2@Uadl_serializer@nlohmann@@@nlohmann@@QEAA@V?$initializer_list@V?$json_ref@V?$basic_json@Vmap@std@@Vvector@2@V?$basic_string@DU?$char_traits@D@std@@V?$allocator@D@2@@2@_N_J_KNVallocator@2@Uadl_serializer@nlohmann@@@nlohmann@@@detail@nlohmann@@@std@@_NW4value_t@detail@1@@Z@4HA 0000000140015f54     bento_sdk:asset_database.obj
 0004:00000f60       $pdata$?dtor$37@?0???0json_value@?$basic_json@Vmap@std@@Vvector@2@V?$basic_string@DU?$char_traits@D@std@@V?$allocator@D@2@@2@_N_J_KNVallocator@2@Uadl_serializer@nlohmann@@@nlohmann@@QEAA@W4value_t@detail@2@@Z@4HA 0000000140015f60     bento_sdk:asset_database.obj
 0004:00000f6c       $pdata$?dtor$73@?0???A?$basic_json@Vmap@std@@Vvector@2@V?$basic_string@DU?$char_traits@D@std@@V?$allocator@D@2@@2@_N_J_KNVallocator@2@Uadl_serializer@nlohmann@@@nlohmann@@QEAAAEAV01@AEBV?$basic_string@DU?$char_traits@D@std@@V?$allocator@D@2@@std@@@Z@4HA 0000000140015f6c     bento_sdk:asset_database.obj
 0004:00000f78       $pdata$?dtor$0@?0??dump@?$basic_json@Vmap@std@@Vvector@2@V?$basic_string@DU?$char_traits@D@std@@V?$allocator@D@2@@2@_N_J_KNVallocator@2@Uadl_serializer@nlohmann@@@nlohmann@@QEBA?AV?$basic_string@DU?$char_traits@D@std@@V?$allocator@D@2@@std@@HD_N@Z@4HA 0000000140015f78     bento_sdk:asset_database.obj
 0004:00000f84       $pdata$?dtor$23@?0??dump_escaped@?$serializer@V?$basic_json@Vmap@std@@Vvector@2@V?$basic_string@DU?$char_traits@D@std@@V?$allocator@D@2@@2@_N_J_KNVallocator@2@Uadl_serializer@nlohmann@@@nlohmann@@@detail@nlohmann@@AEAAXAEBV?$basic_string@DU?$char_traits@D@std@@V?$allocator@D@2@@std@@_N@Z@4HA 0000000140015f84     bento_sdk:asset_database.obj
 0004:00000f90       $pdata$?dtor$106@?0??dump_escaped@?$serializer@V?$basic_json@Vmap@std@@Vvector@2@V?$basic_string@DU?$char_traits@D@std@@V?$allocator@D@2@@2@_N_J_KNVallocator@2@Uadl_serializer@nlohmann@@@nlohmann@@@detail@nlohmann@@AEAAXAEBV?$basic_string@DU?$char_traits@D@std@@V?$allocator@D@2@@std@@_N@Z@4HA 0000000140015f90     bento_sdk:asset_database.obj
 0004:00000f9c       $pdata$?dtor$12@?0??resize@?$Vector@UTAsset@bento@@@bento@@QEAAXI@Z@4HA 0000000140015f9c     bento_sdk:asset_database.obj
 0004:00000fa8       $pdata$?dtor$17@?0??resize@?$Vector@UTAsset@bento@@@bento@@QEAAXI@Z@4HA 0000000140015fa8     bento_sdk:asset_database.obj
 0004:00000fb4       $pdata$?dtor$3@?0??to_string@bento@@YAXAEAVDynamicString@1@AEBVTAssetDatabase@1@@Z@4HA 0000000140015fb4     bento_sdk:asset_database.obj
 0004:00000fc0       $pdata$?dtor$7@?0??to_string@bento@@YAXAEAVDynamicString@1@AEBVTAssetDatabase@1@@Z@4HA 0000000140015fc0     bento_sdk:asset_database.obj
 0004:00000fcc       $pdata$?dtor$12@?0??to_string@bento@@YAXAEAVDynamicString@1@AEBVTAssetDatabase@1@@Z@4HA 0000000140015fcc     bento_sdk:asset_database.obj
 0004:00000fd8       $pdata$?dtor$16@?0??to_string@bento@@YAXAEAVDynamicString@1@AEBVTAssetDatabase@1@@Z@4HA 0000000140015fd8     bento_sdk:asset_database.obj
 0004:00000fe4       $pdata$?dtor$18@?0??to_string@bento@@YAXAEAVDynamicString@1@AEBVTAssetDatabase@1@@Z@4HA 0000000140015fe4     bento_sdk:asset_database.obj
 0004:00000ff0       $pdata$?dtor$17@?0??collect_files_with_extension@file_system@bento@@YAXPEBD0AEAV?$Vector@VDynamicString@bento@@@2@@Z@4HA 0000000140015ff0     bento_sdk:file_system.obj
 0004:00000ffc       $pdata$?dtor$1@?0??push_back@?$Vector@VDynamicString@bento@@@bento@@QEAAXAEBVDynamicString@2@@Z@4HA 0000000140015ffc     bento_sdk:file_system.obj
 0004:00001008       $pdata$?filt$0@?0??__scrt_common_main_seh@@YAHXZ@4HA 0000000140016008     MSVCRT:exe_main.obj
 0004:00001014       $pdata$__scrt_is_nonwritable_in_current_image$filt$0 0000000140016014     MSVCRT:utility.obj
 0004:00001020       $pdata$?fin$0@?0???_M@YAXPEAX_K1P6AX0@Z@Z@4HA 0000000140016020     MSVCRT:ehvecdtr.obj
 0004:0000102c       $pdata$?filt$0@?0??__ArrayUnwind@@YAXPEAX_K1P6AX0@Z@Z@4HA 000000014001602c     MSVCRT:ehvecdtr.obj
 0005:00000060       $R000000                   0000000140017060     * linker generated manifest res *
